0:abort
1:enlargeMemory
2:getTotalMemory
3:abortOnCannotGrowMemory
4:invoke_dii
5:invoke_i
6:invoke_ii
7:invoke_iii
8:invoke_iiii
9:invoke_iiiii
10:invoke_iiiiii
11:invoke_iiiiiii
12:invoke_iiiiiiii
13:invoke_iiiiiiiiii
14:invoke_iiiiiiiiiii
15:invoke_v
16:invoke_vi
17:invoke_vii
18:invoke_viifi
19:invoke_viii
20:invoke_viiii
21:invoke_viiiii
22:invoke_viiiiii
23:invoke_viiiiiii
24:invoke_viiiiiiii
25:invoke_viiiiiiiiii
26:_JS_Cursor_SetImage
27:_JS_Cursor_SetShow
28:_JS_Eval_ClearInterval
29:_JS_Eval_SetInterval
30:_JS_FileSystem_Initialize
31:_JS_FileSystem_Sync
32:_JS_Log_Dump
33:_JS_Log_StackTrace
34:_JS_Sound_Create_Channel
35:_JS_Sound_GetLength
36:_JS_Sound_GetLoadState
37:_JS_Sound_Init
38:_JS_Sound_Load
39:_JS_Sound_Load_PCM
40:_JS_Sound_Play
41:_JS_Sound_ReleaseInstance
42:_JS_Sound_ResumeIfNeeded
43:_JS_Sound_Set3D
44:_JS_Sound_SetListenerOrientation
45:_JS_Sound_SetListenerPosition
46:_JS_Sound_SetLoop
47:_JS_Sound_SetLoopPoints
48:_JS_Sound_SetPitch
49:_JS_Sound_SetPosition
50:_JS_Sound_SetVolume
51:_JS_Sound_Stop
52:_JS_SystemInfo_GetCanvasClientSize
53:_JS_SystemInfo_GetDocumentURL
54:_JS_SystemInfo_GetGPUInfo
55:_JS_SystemInfo_GetMatchWebGLToCanvasSize
56:_JS_SystemInfo_GetMemory
57:_JS_SystemInfo_GetOS
58:_JS_SystemInfo_GetPreferredDevicePixelRatio
59:_JS_SystemInfo_GetScreenSize
60:_JS_SystemInfo_HasCursorLock
61:_JS_SystemInfo_HasFullscreen
62:_JS_SystemInfo_HasWebGL
63:___buildEnvironment
64:___cxa_allocate_exception
65:___cxa_begin_catch
66:___cxa_end_catch
67:___cxa_find_matching_catch_2
68:___cxa_find_matching_catch_3
69:___cxa_find_matching_catch_4
70:___cxa_free_exception
71:___cxa_pure_virtual
72:___cxa_rethrow
73:___cxa_throw
74:___lock
75:___map_file
76:___resumeException
77:___setErrNo
78:___syscall10
79:___syscall102
80:___syscall122
81:___syscall140
82:___syscall142
83:___syscall145
84:___syscall146
85:___syscall15
86:___syscall183
87:___syscall192
88:___syscall193
89:___syscall195
90:___syscall196
91:___syscall197
92:___syscall199
93:___syscall220
94:___syscall221
95:___syscall268
96:___syscall3
97:___syscall33
98:___syscall38
99:___syscall39
100:___syscall4
101:___syscall40
102:___syscall5
103:___syscall54
104:___syscall6
105:___syscall77
106:___syscall85
107:___syscall91
108:___unlock
109:_abort
110:_atexit
111:_clock
112:_clock_getres
113:_clock_gettime
114:_difftime
115:_dlclose
116:_dlopen
117:_dlsym
118:_emscripten_asm_const_i
119:_emscripten_asm_const_ii
120:_emscripten_asm_const_sync_on_main_thread_i
121:_emscripten_cancel_main_loop
122:_emscripten_exit_fullscreen
123:_emscripten_exit_pointerlock
124:_emscripten_get_canvas_element_size
125:_emscripten_get_fullscreen_status
126:_emscripten_get_gamepad_status
127:_emscripten_get_main_loop_timing
128:_emscripten_get_now
129:_emscripten_get_num_gamepads
130:_emscripten_has_threading_support
131:_emscripten_html5_remove_all_event_listeners
132:_emscripten_is_webgl_context_lost
133:_emscripten_log
134:_emscripten_memcpy_big
135:_emscripten_num_logical_cores
136:_emscripten_request_fullscreen
137:_emscripten_request_pointerlock
138:_emscripten_set_blur_callback_on_thread
139:_emscripten_set_canvas_element_size
140:_emscripten_set_dblclick_callback_on_thread
141:_emscripten_set_devicemotion_callback_on_thread
142:_emscripten_set_deviceorientation_callback_on_thread
143:_emscripten_set_focus_callback_on_thread
144:_emscripten_set_fullscreenchange_callback_on_thread
145:_emscripten_set_gamepadconnected_callback_on_thread
146:_emscripten_set_gamepaddisconnected_callback_on_thread
147:_emscripten_set_keydown_callback_on_thread
148:_emscripten_set_keypress_callback_on_thread
149:_emscripten_set_keyup_callback_on_thread
150:_emscripten_set_main_loop
151:_emscripten_set_main_loop_timing
152:_emscripten_set_mousedown_callback_on_thread
153:_emscripten_set_mousemove_callback_on_thread
154:_emscripten_set_mouseup_callback_on_thread
155:_emscripten_set_touchcancel_callback_on_thread
156:_emscripten_set_touchend_callback_on_thread
157:_emscripten_set_touchmove_callback_on_thread
158:_emscripten_set_touchstart_callback_on_thread
159:_emscripten_set_wheel_callback_on_thread
160:_emscripten_webgl_create_context
161:_emscripten_webgl_destroy_context
162:_emscripten_webgl_enable_extension
163:_emscripten_webgl_get_current_context
164:_emscripten_webgl_init_context_attributes
165:_emscripten_webgl_make_context_current
166:_exit
167:_flock
168:_getenv
169:_gethostbyaddr
170:_gethostbyname
171:_getpagesize
172:_getpwuid
173:_gettimeofday
174:_glActiveTexture
175:_glAttachShader
176:_glBeginQuery
177:_glBeginTransformFeedback
178:_glBindAttribLocation
179:_glBindBuffer
180:_glBindBufferBase
181:_glBindBufferRange
182:_glBindFramebuffer
183:_glBindRenderbuffer
184:_glBindSampler
185:_glBindTexture
186:_glBindTransformFeedback
187:_glBindVertexArray
188:_glBlendEquation
189:_glBlendEquationSeparate
190:_glBlendFuncSeparate
191:_glBlitFramebuffer
192:_glBufferData
193:_glBufferSubData
194:_glCheckFramebufferStatus
195:_glClear
196:_glClearBufferfi
197:_glClearBufferfv
198:_glClearBufferuiv
199:_glClearColor
200:_glClearDepthf
201:_glClearStencil
202:_glColorMask
203:_glCompileShader
204:_glCompressedTexImage2D
205:_glCompressedTexImage3D
206:_glCompressedTexSubImage2D
207:_glCompressedTexSubImage3D
208:_glCopyBufferSubData
209:_glCopyTexImage2D
210:_glCopyTexSubImage2D
211:_glCreateProgram
212:_glCreateShader
213:_glCullFace
214:_glDeleteBuffers
215:_glDeleteFramebuffers
216:_glDeleteProgram
217:_glDeleteQueries
218:_glDeleteRenderbuffers
219:_glDeleteSamplers
220:_glDeleteShader
221:_glDeleteSync
222:_glDeleteTextures
223:_glDeleteTransformFeedbacks
224:_glDeleteVertexArrays
225:_glDepthFunc
226:_glDepthMask
227:_glDetachShader
228:_glDisable
229:_glDisableVertexAttribArray
230:_glDrawArrays
231:_glDrawArraysInstanced
232:_glDrawBuffers
233:_glDrawElements
234:_glDrawElementsInstanced
235:_glEnable
236:_glEnableVertexAttribArray
237:_glEndQuery
238:_glEndTransformFeedback
239:_glFenceSync
240:_glFinish
241:_glFlush
242:_glFlushMappedBufferRange
243:_glFramebufferRenderbuffer
244:_glFramebufferTexture2D
245:_glFramebufferTextureLayer
246:_glFrontFace
247:_glGenBuffers
248:_glGenFramebuffers
249:_glGenQueries
250:_glGenRenderbuffers
251:_glGenSamplers
252:_glGenTextures
253:_glGenTransformFeedbacks
254:_glGenVertexArrays
255:_glGenerateMipmap
256:_glGetActiveAttrib
257:_glGetActiveUniform
258:_glGetActiveUniformBlockName
259:_glGetActiveUniformBlockiv
260:_glGetActiveUniformsiv
261:_glGetAttribLocation
262:_glGetError
263:_glGetFramebufferAttachmentParameteriv
264:_glGetIntegeri_v
265:_glGetIntegerv
266:_glGetInternalformativ
267:_glGetProgramBinary
268:_glGetProgramInfoLog
269:_glGetProgramiv
270:_glGetRenderbufferParameteriv
271:_glGetShaderInfoLog
272:_glGetShaderPrecisionFormat
273:_glGetShaderSource
274:_glGetShaderiv
275:_glGetString
276:_glGetStringi
277:_glGetTexParameteriv
278:_glGetUniformBlockIndex
279:_glGetUniformIndices
280:_glGetUniformLocation
281:_glGetUniformiv
282:_glGetVertexAttribiv
283:_glInvalidateFramebuffer
284:_glIsEnabled
285:_glIsVertexArray
286:_glLinkProgram
287:_glMapBufferRange
288:_glPixelStorei
289:_glPolygonOffset
290:_glProgramBinary
291:_glProgramParameteri
292:_glReadBuffer
293:_glReadPixels
294:_glRenderbufferStorage
295:_glRenderbufferStorageMultisample
296:_glSamplerParameteri
297:_glScissor
298:_glShaderSource
299:_glStencilFuncSeparate
300:_glStencilMask
301:_glStencilOpSeparate
302:_glTexImage2D
303:_glTexImage3D
304:_glTexParameterf
305:_glTexParameteri
306:_glTexParameteriv
307:_glTexStorage2D
308:_glTexStorage3D
309:_glTexSubImage2D
310:_glTexSubImage3D
311:_glTransformFeedbackVaryings
312:_glUniform1fv
313:_glUniform1i
314:_glUniform1iv
315:_glUniform1uiv
316:_glUniform2fv
317:_glUniform2iv
318:_glUniform2uiv
319:_glUniform3fv
320:_glUniform3iv
321:_glUniform3uiv
322:_glUniform4fv
323:_glUniform4iv
324:_glUniform4uiv
325:_glUniformBlockBinding
326:_glUniformMatrix3fv
327:_glUniformMatrix4fv
328:_glUnmapBuffer
329:_glUseProgram
330:_glValidateProgram
331:_glVertexAttrib4f
332:_glVertexAttrib4fv
333:_glVertexAttribIPointer
334:_glVertexAttribPointer
335:_glViewport
336:_gmtime
337:_inet_addr
338:_llvm_eh_typeid_for
339:_llvm_exp2_f32
340:_llvm_log10_f32
341:_llvm_log2_f32
342:_llvm_trap
343:_localtime
344:_mktime
345:_nanosleep
346:_pthread_cond_destroy
347:_pthread_cond_init
348:_pthread_cond_timedwait
349:_pthread_cond_wait
350:_pthread_getspecific
351:_pthread_key_create
352:_pthread_key_delete
353:_pthread_mutex_destroy
354:_pthread_mutex_init
355:_pthread_mutexattr_destroy
356:_pthread_mutexattr_init
357:_pthread_mutexattr_setprotocol
358:_pthread_mutexattr_settype
359:_pthread_once
360:_pthread_setspecific
361:_sched_yield
362:_setenv
363:_sigaction
364:_sigemptyset
365:_strftime
366:_sysconf
367:_time
368:_unsetenv
369:_utime
370:f64-rem
371:legalimport$invoke_iiiijii
372:legalimport$invoke_iiijiii
373:legalimport$invoke_iij
374:legalimport$invoke_j
375:legalimport$invoke_ji
376:legalimport$invoke_jii
377:legalimport$invoke_jiii
378:legalimport$invoke_jiiiii
379:legalimport$invoke_jiiiiiiiiii
380:legalimport$invoke_jiiji
381:legalimport$invoke_jiji
382:legalimport$invoke_jijiii
383:legalimport$invoke_jijj
384:legalimport$invoke_viiiji
385:legalimport$invoke_viij
386:legalimport$invoke_viiji
387:legalimport$invoke_viji
388:legalimport$___atomic_compare_exchange_8
389:legalimport$___atomic_fetch_add_8
390:legalimport$_glClientWaitSync
391:__growWasmMemory
392:stackAlloc
393:stackSave
394:stackRestore
395:establishStackSpace
396:setThrew
397:setTempRet0
398:getTempRet0
399:__GLOBAL__sub_I_AccessibilityScriptingClasses_cpp
400:__ZN9Scripting11UnityEngine13AccessibilityL54__ManagedRegistrationHelperFunction_VisionUtilityProxyEPv
401:__ZN9Scripting11UnityEngine13Accessibility18VisionUtilityProxy9InitProxyEv
402:__ZN9Scripting11UnityEngine13Accessibility18VisionUtilityProxy12CleanupProxyEv
403:__ZN13dynamic_arrayIPK10ModuleSpecLm0EE4growEv
404:__ZN4core20StringStorageDefaultIcE10deallocateEv
405:__GLOBAL__sub_I_AIScriptingClasses_cpp
406:___cxx_global_var_init
407:__ZN9Scripting11UnityEngine2AIL48__ManagedRegistrationHelperFunction_NavMeshProxyEPv
408:__ZN9Scripting11UnityEngine2AIL59__ManagedRegistrationHelperFunction_NavMeshBuildSourceProxyEPv
409:__ZN9Scripting11UnityEngine2AIL61__ManagedRegistrationHelperFunction_NavMeshTriangulationProxyEPv
410:__ZN9Scripting11UnityEngine2AI25NavMeshTriangulationProxy9InitProxyEv
411:__ZN9Scripting11UnityEngine2AI25NavMeshTriangulationProxy12CleanupProxyEv
412:__ZN9Scripting11UnityEngine2AI23NavMeshBuildSourceProxy9InitProxyEv
413:__ZN9Scripting11UnityEngine2AI23NavMeshBuildSourceProxy12CleanupProxyEv
414:__ZN9Scripting11UnityEngine2AI12NavMeshProxy9InitProxyEv
415:__ZN9Scripting11UnityEngine2AI12NavMeshProxy12CleanupProxyEv
416:__ZN6Object21AwakeFromLoadThreadedEv
417:__ZN6Object17IsAScriptedObjectEv
418:__ZNK16LevelGameManager7GetNameEv
419:__ZN6Object7SetNameEPKc
420:__ZN6Object12SetHideFlagsENS_9HideFlagsE
421:__ZNK11GameManager19ShouldWriteForBuildEv
422:__Z12TransferPPtrI14SafeBinaryReadEvRiRT_
423:__Z12TransferPPtrI18StreamedBinaryReadEvRiRT_
424:__Z12TransferPPtrI19StreamedBinaryWriteEvRiRT_
425:__ZNK9Behaviour10GetEnabledEv
426:__ZNSt3__213__tree_removeIPNS_16__tree_node_baseIPvEEEEvT_S5_
427:__ZN13dynamic_arrayIyLm0EE21resize_buffer_nocheckEm12ResizePolicy
428:__ZN13dynamic_arrayIiLm0EE21resize_buffer_nocheckEm12ResizePolicy
429:__ZN13dynamic_arrayIiLm0EED2Ev
430:__Z17CalculateGlobalRS23TransformAccessReadOnly
431:__Z23CalculateGlobalPosition23TransformAccessReadOnly
432:__ZN15EditorExtensionD2Ev
433:__ZN15EditorExtensionD0Ev
434:__ZNK15EditorExtension22GetTypeVirtualInternalEv
435:__ZNK6Object7GetNameEv
436:__ZN8Vector3f8TransferI14SafeBinaryReadEEvRT_
437:__ZNK4PPtrI9TransformEcvPS0_Ev
438:__ZNK4PPtrI9TransformEptEv
439:__ZNK11NamedObject7GetNameEv
440:__ZN4AABB8TransferI14SafeBinaryReadEEvRT_
441:__ZN11Quaternionf8TransferI14SafeBinaryReadEEvRT_
442:__ZN14SafeBinaryRead21TransferSTLStyleArrayI13dynamic_arrayI8Vector3fLm0EEEEvRT_17TransferMetaFlags
443:__ZN14SafeBinaryRead21TransferSTLStyleArrayI13dynamic_arrayIiLm0EEEEvRT_17TransferMetaFlags
444:__ZN13dynamic_arrayI8Vector3fLm0EE21resize_buffer_nocheckEm12ResizePolicy
445:__ZN14SafeBinaryRead21TransferSTLStyleArrayI13dynamic_arrayIhLm0EEEEvRT_17TransferMetaFlags
446:__ZN7Hash1288TransferI14SafeBinaryReadEEvRT_
447:__ZN13dynamic_arrayIhLm0EE21resize_buffer_nocheckEm12ResizePolicy
448:__ZN7Hash1288TransferI24GenerateTypeTreeTransferEEvRT_
449:__ZN11Quaternionf8TransferI24GenerateTypeTreeTransferEEvRT_
450:__ZN18StreamedBinaryRead8TransferI13dynamic_arrayIhLm0EEEEvRT_PKc17TransferMetaFlags
451:__ZN7Hash1288TransferI18StreamedBinaryReadEEvRT_
452:__ZN4AABB8TransferI18StreamedBinaryReadEEvRT_
453:__ZN18StreamedBinaryRead8TransferI11QuaternionfEEvRT_PKc17TransferMetaFlags
454:__ZN18StreamedBinaryRead8TransferI13dynamic_arrayIiLm0EEEEvRT_PKc17TransferMetaFlags
455:__ZN4AABB8TransferI19StreamedBinaryWriteEEvRT_
456:__ZN7Hash1288TransferI19StreamedBinaryWriteEEvRT_
457:__ZN4core20StringStorageDefaultIcE6assignERKS1_
458:__ZN4core20StringStorageDefaultIcE8allocateEm
459:__ZN14SafeBinaryRead21TransferSTLStyleArrayI13dynamic_arrayIN4core12basic_stringIcNS2_20StringStorageDefaultIcEEEELm0EEEEvRT_17TransferMetaFlags
460:__ZN13dynamic_arrayIN4core12basic_stringIcNS0_20StringStorageDefaultIcEEEELm0EE21resize_buffer_nocheckEm12ResizePolicy
461:__ZN14SafeBinaryRead21TransferSTLStyleArrayIN4core12basic_stringIcNS1_20StringStorageDefaultIcEEEEEEvRT_17TransferMetaFlags
462:__ZN4core20StringStorageDefaultIcE10reallocateEm
463:__ZN18StreamedBinaryRead21TransferSTLStyleArrayI13dynamic_arrayIN4core12basic_stringIcNS2_20StringStorageDefaultIcEEEELm0EEEEvRT_17TransferMetaFlags
464:__ZN18StreamedBinaryRead21TransferSTLStyleArrayIN4core12basic_stringIcNS1_20StringStorageDefaultIcEEEEEEvRT_17TransferMetaFlags
465:__ZN13dynamic_arrayIN4core12basic_stringIcNS0_20StringStorageDefaultIcEEEELm0EED2Ev
466:__ZNK4PPtrI6ObjectEcvPS0_Ev
467:__ZN13dynamic_arrayItLm0EE21resize_buffer_nocheckEm12ResizePolicy
468:__ZN13dynamic_arrayI8Vector3fLm0EE4growEv
469:__ZN13dynamic_arrayItLm0EE4growEv
470:__ZN13dynamic_arrayI8Vector2fLm0EE21resize_buffer_nocheckEm12ResizePolicy
471:__ZN13dynamic_arrayIyLm0EE4growEv
472:__ZNSt3__227__tree_balance_after_insertIPNS_16__tree_node_baseIPvEEEEvT_S5_
473:__Z18TransformDirection23TransformAccessReadOnlyRKN4math7_float3E
474:__Z24InverseTransformRotationRK23TransformAccessReadOnlyRKN4math7_float4E
475:__Z9SetLocalR15TransformAccessRKN4math7_float4Ey
476:__Z24InverseTransformPosition23TransformAccessReadOnlyRKN4math7_float3E
477:__Z25InverseTransformDirection23TransformAccessReadOnlyRKN4math7_float3Eb
478:__ZN13dynamic_arrayI8Vector2fLm0EEC2Em10MemLabelId
479:__ZN13dynamic_arrayIN4core12basic_stringIcNS0_20StringStorageDefaultIcEEEELm0EE4growEv
480:__ZN13dynamic_arrayI8JobFenceLm0EE4growEv
481:__ZN11Marshalling16StringMarshallercvRKN4core12basic_stringIcNS1_20StringStorageDefaultIcEEEEEv
482:__GLOBAL__sub_I_AndroidJNIScriptingClasses_cpp
483:__ZN9Scripting11UnityEngineL58__ManagedRegistrationHelperFunction__AndroidJNIHelperProxyEPv
484:__ZN9Scripting11UnityEngineL57__ManagedRegistrationHelperFunction_AndroidJNIHelperProxyEPv
485:__ZN9Scripting11UnityEngine21AndroidJNIHelperProxy9InitProxyEv
486:__ZN9Scripting11UnityEngine21AndroidJNIHelperProxy12CleanupProxyEv
487:__ZN9Scripting11UnityEngine22_AndroidJNIHelperProxy9InitProxyEv
488:__ZN9Scripting11UnityEngine22_AndroidJNIHelperProxy12CleanupProxyEv
489:__GLOBAL__sub_I_AnimationScriptingClasses_cpp
490:__GLOBAL__sub_I_Modules_Animation_0_cpp
491:__GLOBAL__sub_I_Modules_Animation_2_cpp
492:__GLOBAL__sub_I_Modules_Animation_7_cpp
493:__GLOBAL__sub_I_Modules_Animation_Constraints_0_cpp
494:__GLOBAL__sub_I_AnimationClip_cpp
495:___cxx_global_var_init_363
496:__ZN13RuntimeStaticI17ConstraintManagerLb0EE16StaticInitializeEPv
497:__ZN13RuntimeStaticI17ConstraintManagerLb0EE13StaticDestroyEPv
498:__ZN24StaticInitializeInternal13ConstructTypeI17ConstraintManagerLb0EEEPvS2_10MemLabelId
499:__ZZN17ConstraintManager15InitializeClassEvEN47PreLateUpdateConstraintManagerUpdateRegistrator7ForwardEv
500:__ZN17ConstraintManagerD2Ev
501:__ZN17ConstraintManagerD0Ev
502:__ZN17ConstraintManager6UpdateEv
503:__ZN4core8hash_setINS_4pairIKPK10GameObjectiLb0EEENS_9hash_pairINS_4hashIS4_EES5_iEENS_10equal_pairINSt3__28equal_toIS4_EES5_iEEE6resizeEi
504:__ZN4core8hash_mapIPK10GameObjectiNS_4hashIS3_EENSt3__28equal_toIS3_EEEixERKS3_
505:__ZN4core8hash_setIPN5Unity9ComponentENS_4hashIS3_EENSt3__28equal_toIS3_EEE6resizeEi
506:__ZL23GetComponentsInChildrenRK10GameObjectPFbRKN5Unity9ComponentEERN4core8hash_setIPS3_NS8_4hashISA_EENSt3__28equal_toISA_EEEE
507:__ZNSt3__26__sortIR23DependencySortPredicatePN4core4pairIiP9BehaviourLb0EEEEEvT0_S9_T_
508:__ZL32GetComponentsInConstraintSourcesRK11IConstraintPFbRKN5Unity9ComponentEERN4core8hash_setIPS3_NS8_4hashISA_EENSt3__28equal_toISA_EEEE
509:__ZN13dynamic_arrayIN4core4pairIiS_IP9BehaviourLm0EELb1EEELm0EED2Ev
510:__ZN13dynamic_arrayIN4math4trsXELm0EE21resize_buffer_nocheckEm12ResizePolicy
511:__ZN13ConstraintJob18ComputeConstraintsEPNS_17ConstraintJobDataEj
512:__ZN13dynamic_arrayIN13ConstraintJob23ConstraintComponentDataELm0EE4growEv
513:__ZN13ConstraintJob23ConstraintComponentDataC2ERKS0_
514:__ZN13dynamic_arrayIN13ConstraintJob23ConstraintComponentDataELm0EED2Ev
515:__Z11SetLocalTRS15TransformAccessRKN4math7_float3ERKNS0_7_float4ES3_y
516:__ZN13ConstraintJob23ConstraintComponentDataC2ERK16LookAtConstraint
517:__ZL21InitConstraintSourcesRK13dynamic_arrayI16ConstraintSourceLm0EERS_I23TransformAccessReadOnlyLm0EERS_IfLm0EE
518:__ZN13ConstraintJob23ConstraintComponentDataC2ERK16ParentConstraint
519:__ZN13ConstraintJob23ConstraintComponentDataC2ERK13AimConstraint
520:__ZN13ConstraintJob23ConstraintComponentDataC2ERK15ScaleConstraint
521:__ZN13ConstraintJob23ConstraintComponentDataC2ERK18RotationConstraint
522:__ZN13ConstraintJob23ConstraintComponentDataC2ERK18PositionConstraint
523:__Z21InverseTransformScale23TransformAccessReadOnlyRKN4math7_float3E
524:__ZN13dynamic_arrayIN4math7affineXELm0EEC2Em10MemLabelId
525:__Z34CalculateGlobalPositionAndRotation23TransformAccessReadOnlyRKN4math7_float3ERKNS0_7_float4E
526:__ZL17quatArcRotateSafeRKN4math7_float3ES2_
527:__ZL22GetComponentsInParentsRK10GameObjectPFbRKN5Unity9ComponentEERN4core8hash_setIPS3_NS8_4hashISA_EENSt3__28equal_toISA_EEEE
528:__ZN4core8hash_setIPN5Unity9ComponentENS_4hashIS3_EENSt3__28equal_toIS3_EEE6insertIRS3_EENS_4pairINS9_13node_iteratorIS3_EEbLb0EEEOT_
529:__ZNSt3__27__sort4IR23DependencySortPredicatePN4core4pairIiP9BehaviourLb0EEEEEjT0_S9_S9_S9_T_
530:__ZNSt3__227__insertion_sort_incompleteIR23DependencySortPredicatePN4core4pairIiP9BehaviourLb0EEEEEbT0_S9_T_
531:__ZN13RuntimeStaticI15AnimationBinderLb0EE16StaticInitializeEPv
532:__ZN13RuntimeStaticI15AnimationBinderLb0EE13StaticDestroyEPv
533:__ZN13RuntimeStaticI15AnimationBinderLb0EE7DestroyEv
534:__ZNSt3__26__treeINS_12__value_typeIPKN5Unity4TypeEPK8TypeTreeEENS_19__map_value_compareIS5_S9_NS_4lessIS5_EELb1EEENS_9allocatorIS9_EEE7destroyEPNS_11__tree_nodeIS9_PvEE
535:__ZN24StaticInitializeInternal13ConstructTypeI15AnimationBinderLb0EEEPvS2_10MemLabelId
536:__ZN18AnimatorStatistics16StaticInitializeEPv
537:__ZN18AnimatorStatistics13StaticDestroyEPv
538:__ZN11UnityEngine9Animation38InitializeGenericAnimationBindingCacheEPv
539:__ZN11UnityEngine9Animation35CleanupGenericAnimationBindingCacheEPv
540:__ZN11UnityEngine9Animation28GenericAnimationBindingCacheD2Ev
541:__ZN11UnityEngine9Animation28GenericAnimationBindingCache15DidReloadDomainE19AssemblyLoadFailure
542:__ZN11UnityEngine9Animation28GenericAnimationBindingCacheC2Ev
543:__ZN9Scripting11UnityEngineL55__ManagedRegistrationHelperFunction_AnimationEventProxyEPv
544:__ZN9Scripting11UnityEngine10AnimationsL54__ManagedRegistrationHelperFunction_AimConstraintProxyEPv
545:__ZN9Scripting11UnityEngine10AnimationsL62__ManagedRegistrationHelperFunction_AnimationClipPlayableProxyEPv
546:__ZN9Scripting11UnityEngine10AnimationsL61__ManagedRegistrationHelperFunction_AnimationHumanStreamProxyEPv
547:__ZN9Scripting11UnityEngine10AnimationsL68__ManagedRegistrationHelperFunction_AnimationLayerMixerPlayableProxyEPv
548:__ZN9Scripting11UnityEngine10AnimationsL63__ManagedRegistrationHelperFunction_AnimationMixerPlayableProxyEPv
549:__ZN9Scripting11UnityEngine10AnimationsL72__ManagedRegistrationHelperFunction_AnimationMotionXToDeltaPlayableProxyEPv
550:__ZN9Scripting11UnityEngine10AnimationsL64__ManagedRegistrationHelperFunction_AnimationOffsetPlayableProxyEPv
551:__ZN9Scripting11UnityEngine10AnimationsL64__ManagedRegistrationHelperFunction_AnimationPlayableOutputProxyEPv
552:__ZN9Scripting11UnityEngine10AnimationsL62__ManagedRegistrationHelperFunction_AnimationPosePlayableProxyEPv
553:__ZN9Scripting11UnityEngine10AnimationsL69__ManagedRegistrationHelperFunction_AnimationRemoveScalePlayableProxyEPv
554:__ZN9Scripting11UnityEngine10AnimationsL64__ManagedRegistrationHelperFunction_AnimationScriptPlayableProxyEPv
555:__ZN9Scripting11UnityEngine10AnimationsL56__ManagedRegistrationHelperFunction_AnimationStreamProxyEPv
556:__ZN9Scripting11UnityEngine10AnimationsL67__ManagedRegistrationHelperFunction_AnimatorControllerPlayableProxyEPv
557:__ZN9Scripting11UnityEngine10AnimationsL57__ManagedRegistrationHelperFunction_ConstraintSourceProxyEPv
558:__ZN9Scripting11UnityEngine10AnimationsL57__ManagedRegistrationHelperFunction_LookAtConstraintProxyEPv
559:__ZN9Scripting11UnityEngine10AnimationsL60__ManagedRegistrationHelperFunction_NotKeyableAttributeProxyEPv
560:__ZN9Scripting11UnityEngine10AnimationsL57__ManagedRegistrationHelperFunction_ParentConstraintProxyEPv
561:__ZN9Scripting11UnityEngine10AnimationsL59__ManagedRegistrationHelperFunction_PositionConstraintProxyEPv
562:__ZN9Scripting11UnityEngine10AnimationsL59__ManagedRegistrationHelperFunction_RotationConstraintProxyEPv
563:__ZN9Scripting11UnityEngine10AnimationsL56__ManagedRegistrationHelperFunction_ScaleConstraintProxyEPv
564:__ZN9Scripting11UnityEngineL55__ManagedRegistrationHelperFunction_AnimationStateProxyEPv
565:__ZN9Scripting11UnityEngineL49__ManagedRegistrationHelperFunction_AnimatorProxyEPv
566:__ZN9Scripting11UnityEngineL57__ManagedRegistrationHelperFunction_AnimatorClipInfoProxyEPv
567:__ZN9Scripting11UnityEngineL68__ManagedRegistrationHelperFunction_AnimatorControllerParameterProxyEPv
568:__ZN9Scripting11UnityEngineL66__ManagedRegistrationHelperFunction_RuntimeAnimatorControllerProxyEPv
569:__ZN9Scripting11UnityEngineL67__ManagedRegistrationHelperFunction_AnimatorOverrideControllerProxyEPv
570:__ZN9Scripting11UnityEngineL58__ManagedRegistrationHelperFunction_AnimatorStateInfoProxyEPv
571:__ZN9Scripting11UnityEngineL63__ManagedRegistrationHelperFunction_AnimatorTransitionInfoProxyEPv
572:__ZN9Scripting11UnityEngineL47__ManagedRegistrationHelperFunction_AvatarProxyEPv
573:__ZN9Scripting11UnityEngineL51__ManagedRegistrationHelperFunction_AvatarMaskProxyEPv
574:__ZN9Scripting11UnityEngineL50__ManagedRegistrationHelperFunction_HumanBoneProxyEPv
575:__ZN9Scripting11UnityEngineL72__ManagedRegistrationHelperFunction_SharedBetweenAnimatorsAttributeProxyEPv
576:__ZN9Scripting11UnityEngineL53__ManagedRegistrationHelperFunction_SkeletonBoneProxyEPv
577:__ZN9Scripting11UnityEngineL62__ManagedRegistrationHelperFunction_StateMachineBehaviourProxyEPv
578:__ZN9Scripting11UnityEngine26StateMachineBehaviourProxy9InitProxyEv
579:__ZN9Scripting11UnityEngine26StateMachineBehaviourProxy12CleanupProxyEv
580:__ZN9Scripting11UnityEngine17SkeletonBoneProxy9InitProxyEv
581:__ZN9Scripting11UnityEngine17SkeletonBoneProxy12CleanupProxyEv
582:__ZN9Scripting11UnityEngine36SharedBetweenAnimatorsAttributeProxy9InitProxyEv
583:__ZN9Scripting11UnityEngine36SharedBetweenAnimatorsAttributeProxy12CleanupProxyEv
584:__ZN9Scripting11UnityEngine14HumanBoneProxy9InitProxyEv
585:__ZN9Scripting11UnityEngine14HumanBoneProxy12CleanupProxyEv
586:__ZN9Scripting11UnityEngine15AvatarMaskProxy9InitProxyEv
587:__ZN9Scripting11UnityEngine15AvatarMaskProxy12CleanupProxyEv
588:__ZN9Scripting11UnityEngine11AvatarProxy9InitProxyEv
589:__ZN9Scripting11UnityEngine11AvatarProxy12CleanupProxyEv
590:__ZN9Scripting11UnityEngine27AnimatorTransitionInfoProxy9InitProxyEv
591:__ZN9Scripting11UnityEngine27AnimatorTransitionInfoProxy12CleanupProxyEv
592:__ZN9Scripting11UnityEngine22AnimatorStateInfoProxy9InitProxyEv
593:__ZN9Scripting11UnityEngine22AnimatorStateInfoProxy12CleanupProxyEv
594:__ZN9Scripting11UnityEngine31AnimatorOverrideControllerProxy9InitProxyEv
595:__ZN9Scripting11UnityEngine31AnimatorOverrideControllerProxy12CleanupProxyEv
596:__ZN9Scripting11UnityEngine30RuntimeAnimatorControllerProxy9InitProxyEv
597:__ZN9Scripting11UnityEngine30RuntimeAnimatorControllerProxy12CleanupProxyEv
598:__ZN9Scripting11UnityEngine32AnimatorControllerParameterProxy9InitProxyEv
599:__ZN9Scripting11UnityEngine32AnimatorControllerParameterProxy12CleanupProxyEv
600:__ZN9Scripting11UnityEngine21AnimatorClipInfoProxy9InitProxyEv
601:__ZN9Scripting11UnityEngine21AnimatorClipInfoProxy12CleanupProxyEv
602:__ZN9Scripting11UnityEngine13AnimatorProxy9InitProxyEv
603:__ZN9Scripting11UnityEngine13AnimatorProxy12CleanupProxyEv
604:__ZN9Scripting11UnityEngine19AnimationStateProxy9InitProxyEv
605:__ZN9Scripting11UnityEngine19AnimationStateProxy12CleanupProxyEv
606:__ZN9Scripting11UnityEngine10Animations20ScaleConstraintProxy9InitProxyEv
607:__ZN9Scripting11UnityEngine10Animations20ScaleConstraintProxy12CleanupProxyEv
608:__ZN9Scripting11UnityEngine10Animations23RotationConstraintProxy9InitProxyEv
609:__ZN9Scripting11UnityEngine10Animations23RotationConstraintProxy12CleanupProxyEv
610:__ZN9Scripting11UnityEngine10Animations23PositionConstraintProxy9InitProxyEv
611:__ZN9Scripting11UnityEngine10Animations23PositionConstraintProxy12CleanupProxyEv
612:__ZN9Scripting11UnityEngine10Animations21ParentConstraintProxy9InitProxyEv
613:__ZN9Scripting11UnityEngine10Animations21ParentConstraintProxy12CleanupProxyEv
614:__ZN9Scripting11UnityEngine10Animations24NotKeyableAttributeProxy9InitProxyEv
615:__ZN9Scripting11UnityEngine10Animations24NotKeyableAttributeProxy12CleanupProxyEv
616:__ZN9Scripting11UnityEngine10Animations21LookAtConstraintProxy9InitProxyEv
617:__ZN9Scripting11UnityEngine10Animations21LookAtConstraintProxy12CleanupProxyEv
618:__ZN9Scripting11UnityEngine10Animations21ConstraintSourceProxy9InitProxyEv
619:__ZN9Scripting11UnityEngine10Animations21ConstraintSourceProxy12CleanupProxyEv
620:__ZN9Scripting11UnityEngine10Animations31AnimatorControllerPlayableProxy9InitProxyEv
621:__ZN9Scripting11UnityEngine10Animations31AnimatorControllerPlayableProxy12CleanupProxyEv
622:__ZN9Scripting11UnityEngine10Animations20AnimationStreamProxy9InitProxyEv
623:__ZN9Scripting11UnityEngine10Animations20AnimationStreamProxy12CleanupProxyEv
624:__ZN9Scripting11UnityEngine10Animations28AnimationScriptPlayableProxy9InitProxyEv
625:__ZN9Scripting11UnityEngine10Animations28AnimationScriptPlayableProxy12CleanupProxyEv
626:__ZN9Scripting11UnityEngine10Animations33AnimationRemoveScalePlayableProxy9InitProxyEv
627:__ZN9Scripting11UnityEngine10Animations33AnimationRemoveScalePlayableProxy12CleanupProxyEv
628:__ZN9Scripting11UnityEngine10Animations26AnimationPosePlayableProxy9InitProxyEv
629:__ZN9Scripting11UnityEngine10Animations26AnimationPosePlayableProxy12CleanupProxyEv
630:__ZN9Scripting11UnityEngine10Animations28AnimationPlayableOutputProxy9InitProxyEv
631:__ZN9Scripting11UnityEngine10Animations28AnimationPlayableOutputProxy12CleanupProxyEv
632:__ZN9Scripting11UnityEngine10Animations28AnimationOffsetPlayableProxy9InitProxyEv
633:__ZN9Scripting11UnityEngine10Animations28AnimationOffsetPlayableProxy12CleanupProxyEv
634:__ZN9Scripting11UnityEngine10Animations36AnimationMotionXToDeltaPlayableProxy9InitProxyEv
635:__ZN9Scripting11UnityEngine10Animations36AnimationMotionXToDeltaPlayableProxy12CleanupProxyEv
636:__ZN9Scripting11UnityEngine10Animations27AnimationMixerPlayableProxy9InitProxyEv
637:__ZN9Scripting11UnityEngine10Animations27AnimationMixerPlayableProxy12CleanupProxyEv
638:__ZN9Scripting11UnityEngine10Animations32AnimationLayerMixerPlayableProxy9InitProxyEv
639:__ZN9Scripting11UnityEngine10Animations32AnimationLayerMixerPlayableProxy12CleanupProxyEv
640:__ZN9Scripting11UnityEngine10Animations25AnimationHumanStreamProxy9InitProxyEv
641:__ZN9Scripting11UnityEngine10Animations25AnimationHumanStreamProxy12CleanupProxyEv
642:__ZN9Scripting11UnityEngine10Animations26AnimationClipPlayableProxy9InitProxyEv
643:__ZN9Scripting11UnityEngine10Animations26AnimationClipPlayableProxy12CleanupProxyEv
644:__ZN9Scripting11UnityEngine10Animations18AimConstraintProxy9InitProxyEv
645:__ZN9Scripting11UnityEngine10Animations18AimConstraintProxy12CleanupProxyEv
646:__ZN9Scripting11UnityEngine19AnimationEventProxy9InitProxyEv
647:__ZN9Scripting11UnityEngine19AnimationEventProxy12CleanupProxyEv
648:__ZN4coreplERKNS_12basic_stringIcNS_20StringStorageDefaultIcEEEEPKc
649:__ZN14SafeBinaryRead21TransferSTLStyleArrayI13dynamic_arrayIjLm0EEEEvRT_17TransferMetaFlags
650:__ZN14SafeBinaryRead8TransferIjEEvRT_PKc17TransferMetaFlags
651:__ZN13dynamic_arrayIjLm0EEC2EmRKj10MemLabelId
652:__ZN4core12basic_stringIcNS_20StringStorageDefaultIcEEEaSERKS3_
653:__ZN4core12basic_stringIcNS_20StringStorageDefaultIcEEE6assignERKS3_
654:__ZnwmPv20non_null_placement_t
655:__ZN4core12basic_stringIcNS_20StringStorageDefaultIcEEED2Ev
656:__ZN4core20StringStorageDefaultIcED2Ev
657:__Z14CreateMemLabel18MemLabelIdentifieri
658:__ZN20dynamic_array_detail18dynamic_array_dataC2E10MemLabelId
659:__ZNK4core12basic_stringIcNS_20StringStorageDefaultIcEEE16get_memory_labelEv
660:__ZN4core20StringStorageDefaultIcEC2E10MemLabelId
661:__ZNK4core20StringStorageDefaultIcE16get_memory_labelEv
662:__ZNK13dynamic_arrayI11KeyframeTplIfELm0EE5beginEv
663:__ZNK13dynamic_arrayI11KeyframeTplIfELm0EE3endEv
664:__ZNK13dynamic_arrayI11KeyframeTplIfELm0EE8capacityEv
665:__ZN8Vector3fC2ERKS_
666:__ZNK4core12basic_stringIcNS_20StringStorageDefaultIcEEE5c_strEv
667:__ZN4coreplEPKcRKNS_12basic_stringIcNS_20StringStorageDefaultIcEEEE
668:__Z17DebugStringToFileIN4core12basic_stringIcNS0_20StringStorageDefaultIcEEEEEvRKT_PKcii15LogMessageFlagsiiPFvRK11CppLogEntryE
669:__ZN21DebugStringToFileDataC2Ev
670:__ZN12StringTraits13AsConstTCharsIcN4core20StringStorageDefaultIcEEEEPKT_RKNS1_12basic_stringIS4_T0_EE
671:__ZN4core12basic_stringIcNS_20StringStorageDefaultIcEEEC2E10MemLabelId
672:__ZNSt3__211char_traitsIcE6lengthEPKc
673:__ZNK4core12basic_stringIcNS_20StringStorageDefaultIcEEE6lengthEv
674:__ZN4core12basic_stringIcNS_20StringStorageDefaultIcEEE7reserveEm
675:__ZN4core12basic_stringIcNS_20StringStorageDefaultIcEEE6assignEPKcm
676:__ZN4core12basic_stringIcNS_20StringStorageDefaultIcEEE6appendERKS3_
677:__ZN4core12basic_stringIcNS_20StringStorageDefaultIcEEE6appendEPKcm
678:__ZN4core20StringStorageDefaultIcE6appendEPKcm
679:__ZN4core20StringStorageDefaultIcE8get_dataEv
680:__ZN4core20StringStorageDefaultIcE6resizeEmb
681:__ZNK4core20StringStorageDefaultIcE8capacityEv
682:__ZN4core20StringStorageDefaultIcE6assignEPKcm
683:__ZNK4core20StringStorageDefaultIcE9owns_dataEv
684:__ZN4core20StringStorageDefaultIcE7reserveEm
685:__ZN13dynamic_arrayI4PPtrI6ObjectELm0EE9owns_dataEv
686:__ZN13dynamic_arrayI4PPtrI6ObjectELm0EE10deallocateEv
687:__ZN20dynamic_array_detail18dynamic_array_data22set_capacity_not_ownedEm
688:__Z9MagnitudeRK8Vector3f
689:__Z3DotRK8Vector3fS1_
690:__Z8SqrtImplf
691:__Zan24TransferInstructionFlagsS_
692:__ZN14SafeBinaryRead8TransferIfEEvRT_PKc17TransferMetaFlags
693:__ZN14SafeBinaryRead8TransferIiEEvRT_PKc17TransferMetaFlags
694:__ZNK16TypeTreeIteratorptEv
695:__ZN3VFS8FileSizeC2ERKS0_
696:__ZNK3VFS16FileSizeTemplateIyEplERKy
697:__ZN3VFS8FileSizeC2ENS_16FileSizeTemplateIyEE
698:__ZN3VFS16FileSizeTemplateIyEC2ERKy
699:__ZN14SafeBinaryRead21TransferSTLStyleArrayI13dynamic_arrayI4PPtrI6ObjectELm0EEEEvRT_17TransferMetaFlags
700:__ZN15SerializeTraitsI13dynamic_arrayI4PPtrI6ObjectELm0EEE19ResizeSTLStyleArrayERS4_i
701:__ZN13dynamic_arrayI4PPtrI6ObjectELm0EE3endEv
702:__ZN15SerializeTraitsI4PPtrI6ObjectEE8TransferI14SafeBinaryReadEEvRS2_RT_
703:__ZN14SafeBinaryRead8TransferI4PPtrI6ObjectEEEvRT_PKc17TransferMetaFlags
704:__ZN14SafeBinaryRead22TransferWithTypeStringI4PPtrI6ObjectEEEvRT_PKcS7_17TransferMetaFlags
705:__ZN4PPtrI6ObjectE8TransferI14SafeBinaryReadEEvRT_
706:__ZN13dynamic_arrayI4PPtrI6ObjectELm0EE18resize_initializedEm12ResizePolicy
707:__ZN13dynamic_arrayI4PPtrI6ObjectELm0EE21resize_buffer_nocheckEm12ResizePolicy
708:__ZN20AutoLabelConstructorI4PPtrI6ObjectEE11construct_nEPvm10MemLabelId
709:__ZN19AllocatorTraitsImplI4PPtrI6ObjectELb0EE9ConstructIJEEEPS2_Pv10MemLabelIdDpOT_
710:__ZN14SafeBinaryRead8TransferIhEEvRT_PKc17TransferMetaFlags
711:__ZN14SafeBinaryRead22TransferWithTypeStringIhEEvRT_PKcS4_17TransferMetaFlags
712:__ZN31SerializeTraitsBaseForBasicTypeIhE8TransferI14SafeBinaryReadEEvRhRT_
713:__ZN14SafeBinaryRead17TransferBasicDataIhEEvRT_
714:__ZN12CachedReader4ReadIhEEvRT_m
715:__ZN14SafeBinaryRead16ConvertEndianessEv
716:__ZN14SafeBinaryRead17TransferBasicDataIiEEvRT_
717:__ZN12CachedReader4ReadIiEEvRT_m
718:__Z15SwapEndianBytesRj
719:__ZN31SerializeTraitsBaseForBasicTypeIiE8TransferI14SafeBinaryReadEEvRiRT_
720:__ZN31SerializeTraitsBaseForBasicTypeIfE8TransferI14SafeBinaryReadEEvRfRT_
721:__ZN14SafeBinaryRead17TransferBasicDataIfEEvRT_
722:__ZN12CachedReader4ReadIfEEvRT_m
723:__Z15SwapEndianBytesRf
724:__ZN14SafeBinaryRead22TransferWithTypeStringIiEEvRT_PKcS4_17TransferMetaFlags
725:__ZN14SafeBinaryRead22TransferWithTypeStringIfEEvRT_PKcS4_17TransferMetaFlags
726:__ZN17AnimationCurveTplIfE8TransferI14SafeBinaryReadEEvRT_
727:__ZN14SafeBinaryRead8TransferI13dynamic_arrayI11KeyframeTplIfELm0EEEEvRT_PKc17TransferMetaFlags
728:__Z32TransferEnumWithNameForceIntSizeI14SafeBinaryRead16InternalWrapModeEvRT_RT0_PKc17TransferMetaFlags
729:__ZN10EnumTraits5ToIntIN4math13RotationOrderEEEiT_
730:__ZN14SafeBinaryRead22TransferWithTypeStringI13dynamic_arrayI11KeyframeTplIfELm0EEEEvRT_PKcS8_17TransferMetaFlags
731:__ZN15SerializeTraitsI13dynamic_arrayI11KeyframeTplIfELm0EEE8TransferI14SafeBinaryReadEEvRS3_RT_
732:__ZN14SafeBinaryRead21TransferSTLStyleArrayI13dynamic_arrayI11KeyframeTplIfELm0EEEEvRT_17TransferMetaFlags
733:__ZN15SerializeTraitsI13dynamic_arrayI11KeyframeTplIfELm0EEE19ResizeSTLStyleArrayERS3_i
734:__ZN15SerializeTraitsI11KeyframeTplIfEE8TransferI14SafeBinaryReadEEvRS1_RT_
735:__ZN14SafeBinaryRead8TransferI11KeyframeTplIfEEEvRT_PKc17TransferMetaFlags
736:__ZN14SafeBinaryRead22TransferWithTypeStringI11KeyframeTplIfEEEvRT_PKcS6_17TransferMetaFlags
737:__ZN11KeyframeTplIfE8TransferI14SafeBinaryReadEEvRT_
738:__ZN13dynamic_arrayI11KeyframeTplIfELm0EE18resize_initializedEm12ResizePolicy
739:__ZN20AutoLabelConstructorI11KeyframeTplIfEE11construct_nEPvm10MemLabelId
740:__ZN19AllocatorTraitsImplI11KeyframeTplIfELb0EE9ConstructIJEEEPS1_Pv10MemLabelIdDpOT_
741:__ZN11KeyframeTplIfEC2Ev
742:__ZN8Vector3fC2Efff
743:__ZNK13dynamic_arrayIhLm0EE3endEv
744:__ZN19AllocatorTraitsImplIhLb0EE9ConstructIJRKhEEEPhPv10MemLabelIdDpOT_
745:__ZN17PackedFloatVector8TransferI14SafeBinaryReadEEvRT_
746:__ZN14SafeBinaryRead8TransferI13dynamic_arrayIhLm0EEEEvRT_PKc17TransferMetaFlags
747:__ZN14SafeBinaryRead22TransferWithTypeStringI13dynamic_arrayIhLm0EEEEvRT_PKcS6_17TransferMetaFlags
748:__ZN15SerializeTraitsI13dynamic_arrayIhLm0EEE8TransferI14SafeBinaryReadEEvRS1_RT_
749:__ZN15PackedIntVector8TransferI14SafeBinaryReadEEvRT_
750:__ZN24GenerateTypeTreeTransfer8TransferIfEEvRT_PKc17TransferMetaFlags
751:__ZN24GenerateTypeTreeTransfer8TransferIiEEvRT_PKc17TransferMetaFlags
752:__ZNK16TypeTreeIterator15GetWritableNodeER8TypeTree
753:__ZNK21TypeTreeShareableData11GetWritableEm
754:__ZNK13dynamic_arrayI12TypeTreeNodeLm0EEixEm
755:__ZN24GenerateTypeTreeTransfer8TransferIjEEvRT_PKc17TransferMetaFlags
756:__ZN24GenerateTypeTreeTransfer8TransferIhEEvRT_PKc17TransferMetaFlags
757:__ZN31SerializeTraitsBaseForBasicTypeIhE8TransferI24GenerateTypeTreeTransferEEvRhRT_
758:__ZN24GenerateTypeTreeTransfer17TransferBasicDataIhEEvRT_
759:__ZN24GenerateTypeTreeTransfer17TransferBasicDataIiEEvRT_
760:__ZN31SerializeTraitsBaseForBasicTypeIjE8TransferI24GenerateTypeTreeTransferEEvRjRT_
761:__ZN24GenerateTypeTreeTransfer11AddMetaFlagE17TransferMetaFlags
762:__ZN24GenerateTypeTreeTransfer8TransferI8Vector3fEEvRT_PKc17TransferMetaFlags
763:__ZN15SerializeTraitsI8Vector3fE8TransferI24GenerateTypeTreeTransferEEvRS0_RT_
764:__ZN8Vector3f8TransferI24GenerateTypeTreeTransferEEvRT_
765:__ZN29SerializeTraitsForStringTypesIN4core12basic_stringIcNS0_20StringStorageDefaultIcEEEEE8TransferI24GenerateTypeTreeTransferEEvRS4_RT_
766:__ZN24GenerateTypeTreeTransfer21TransferSTLStyleArrayIN4core12basic_stringIcNS1_20StringStorageDefaultIcEEEEEEvRT_17TransferMetaFlags
767:__ZN20AutoLabelConstructorIcE9constructEPv10MemLabelId
768:__ZN24GenerateTypeTreeTransfer32TransferSTLStyleArrayWithElementIcEEvRT_17TransferMetaFlags
769:__ZN24GenerateTypeTreeTransfer8TransferIcEEvRT_PKc17TransferMetaFlags
770:__ZN19AllocatorTraitsImplIcLb0EE9ConstructIJEEEPcPv10MemLabelIdDpOT_
771:__ZN17AnimationCurveTplIfE8TransferI24GenerateTypeTreeTransferEEvRT_
772:__ZN24GenerateTypeTreeTransfer8TransferI13dynamic_arrayI11KeyframeTplIfELm0EEEEvRT_PKc17TransferMetaFlags
773:__Z32TransferEnumWithNameForceIntSizeI24GenerateTypeTreeTransfer16InternalWrapModeEvRT_RT0_PKc17TransferMetaFlags
774:__ZN15SerializeTraitsI13dynamic_arrayI11KeyframeTplIfELm0EEE8TransferI24GenerateTypeTreeTransferEEvRS3_RT_
775:__ZN24GenerateTypeTreeTransfer21TransferSTLStyleArrayI13dynamic_arrayI11KeyframeTplIfELm0EEEEvRT_17TransferMetaFlags
776:__ZN20AutoLabelConstructorI11KeyframeTplIfEE9constructEPv10MemLabelId
777:__ZN24GenerateTypeTreeTransfer32TransferSTLStyleArrayWithElementI11KeyframeTplIfEEEvRT_17TransferMetaFlags
778:__ZN24GenerateTypeTreeTransfer8TransferI11KeyframeTplIfEEEvRT_PKc17TransferMetaFlags
779:__ZN15SerializeTraitsI11KeyframeTplIfEE8TransferI24GenerateTypeTreeTransferEEvRS1_RT_
780:__ZN11KeyframeTplIfE8TransferI24GenerateTypeTreeTransferEEvRT_
781:__ZN24GenerateTypeTreeTransfer8TransferI15PackedIntVectorEEvRT_PKc17TransferMetaFlags
782:__ZN17PackedFloatVector8TransferI24GenerateTypeTreeTransferEEvRT_
783:__ZN24GenerateTypeTreeTransfer8TransferI13dynamic_arrayIhLm0EEEEvRT_PKc17TransferMetaFlags
784:__ZN15SerializeTraitsI13dynamic_arrayIhLm0EEE8TransferI24GenerateTypeTreeTransferEEvRS1_RT_
785:__ZN24GenerateTypeTreeTransfer21TransferSTLStyleArrayI13dynamic_arrayIhLm0EEEEvRT_17TransferMetaFlags
786:__ZN24GenerateTypeTreeTransfer32TransferSTLStyleArrayWithElementIhEEvRT_17TransferMetaFlags
787:__ZN15SerializeTraitsI15PackedIntVectorE8TransferI24GenerateTypeTreeTransferEEvRS0_RT_
788:__ZN15PackedIntVector8TransferI24GenerateTypeTreeTransferEEvRT_
789:__ZN18StreamedBinaryRead8TransferIfEEvRT_PKc17TransferMetaFlags
790:__ZN18StreamedBinaryRead8TransferIiEEvRT_PKc17TransferMetaFlags
791:__ZN18StreamedBinaryRead21TransferSTLStyleArrayI13dynamic_arrayI4PPtrI6ObjectELm0EEEEvRT_17TransferMetaFlags
792:__ZN18StreamedBinaryRead8TransferI4PPtrI6ObjectEEEvRT_PKc17TransferMetaFlags
793:__ZN15SerializeTraitsI4PPtrI6ObjectEE8TransferI18StreamedBinaryReadEEvRS2_RT_
794:__ZN4PPtrI6ObjectE8TransferI18StreamedBinaryReadEEvRT_
795:__ZN18StreamedBinaryRead8TransferIhEEvRT_PKc17TransferMetaFlags
796:__ZN31SerializeTraitsBaseForBasicTypeIhE8TransferI18StreamedBinaryReadEEvRhRT_
797:__ZN18StreamedBinaryRead17TransferBasicDataIhEEvRT_
798:__ZN12CachedReader4ReadIhEEvRT_
799:__ZN18StreamedBinaryRead17TransferBasicDataIiEEvRT_
800:__ZN12CachedReader4ReadIiEEvRT_
801:__ZN31SerializeTraitsBaseForBasicTypeIjE8TransferI18StreamedBinaryReadEEvRjRT_
802:__ZN31SerializeTraitsBaseForBasicTypeIfE8TransferI18StreamedBinaryReadEEvRfRT_
803:__ZN18StreamedBinaryRead17TransferBasicDataIfEEvRT_
804:__ZN12CachedReader4ReadIfEEvRT_
805:__ZN17AnimationCurveTplIfE8TransferI18StreamedBinaryReadEEvRT_
806:__ZN18StreamedBinaryRead8TransferI13dynamic_arrayI11KeyframeTplIfELm0EEEEvRT_PKc17TransferMetaFlags
807:__Z32TransferEnumWithNameForceIntSizeI18StreamedBinaryRead16InternalWrapModeEvRT_RT0_PKc17TransferMetaFlags
808:__ZN15SerializeTraitsI13dynamic_arrayI11KeyframeTplIfELm0EEE8TransferI18StreamedBinaryReadEEvRS3_RT_
809:__ZN18StreamedBinaryRead21TransferSTLStyleArrayI13dynamic_arrayI11KeyframeTplIfELm0EEEEvRT_17TransferMetaFlags
810:__ZN17PackedFloatVector8TransferI18StreamedBinaryReadEEvRT_
811:__ZN19StreamedBinaryWrite8TransferIfEEvRT_PKc17TransferMetaFlags
812:__ZN19StreamedBinaryWrite8TransferIiEEvRT_PKc17TransferMetaFlags
813:__ZN19StreamedBinaryWrite8TransferIhEEvRT_PKc17TransferMetaFlags
814:__ZN31SerializeTraitsBaseForBasicTypeIhE8TransferI19StreamedBinaryWriteEEvRhRT_
815:__ZN19StreamedBinaryWrite17TransferBasicDataIhEEvRT_
816:__ZN12CachedWriter5WriteIhEEvRKT_
817:__ZN19StreamedBinaryWrite17TransferBasicDataIiEEvRT_
818:__ZN12CachedWriter5WriteIiEEvRKT_
819:__ZN31SerializeTraitsBaseForBasicTypeIjE8TransferI19StreamedBinaryWriteEEvRjRT_
820:__ZN31SerializeTraitsBaseForBasicTypeIfE8TransferI19StreamedBinaryWriteEEvRfRT_
821:__ZN19StreamedBinaryWrite17TransferBasicDataIfEEvRT_
822:__ZN12CachedWriter5WriteIfEEvRKT_
823:__ZN17AnimationCurveTplIfE8TransferI19StreamedBinaryWriteEEvRT_
824:__ZN19StreamedBinaryWrite8TransferI13dynamic_arrayI11KeyframeTplIfELm0EEEEvRT_PKc17TransferMetaFlags
825:__Z32TransferEnumWithNameForceIntSizeI19StreamedBinaryWrite16InternalWrapModeEvRT_RT0_PKc17TransferMetaFlags
826:__ZN15SerializeTraitsI13dynamic_arrayI11KeyframeTplIfELm0EEE8TransferI19StreamedBinaryWriteEEvRS3_RT_
827:__ZN19StreamedBinaryWrite21TransferSTLStyleArrayI13dynamic_arrayI11KeyframeTplIfELm0EEEEvRT_17TransferMetaFlags
828:__ZN19StreamedBinaryWrite8TransferI11KeyframeTplIfEEEvRT_PKc17TransferMetaFlags
829:__ZN15SerializeTraitsI11KeyframeTplIfEE8TransferI19StreamedBinaryWriteEEvRS1_RT_
830:__ZN11KeyframeTplIfE8TransferI19StreamedBinaryWriteEEvRT_
831:__ZN17PackedFloatVector8TransferI19StreamedBinaryWriteEEvRT_
832:__ZN19StreamedBinaryWrite8TransferI13dynamic_arrayIhLm0EEEEvRT_PKc17TransferMetaFlags
833:__ZN15SerializeTraitsI13dynamic_arrayIhLm0EEE8TransferI19StreamedBinaryWriteEEvRS1_RT_
834:__ZN19StreamedBinaryWrite21TransferSTLStyleArrayI13dynamic_arrayIhLm0EEEEvRT_17TransferMetaFlags
835:__ZN15PackedIntVector8TransferI19StreamedBinaryWriteEEvRT_
836:__ZN13dynamic_arrayI4PPtrI6ObjectELm0EED2Ev
837:__Z10SetLocalTR15TransformAccessRKN4math7_float3ERKNS0_7_float4Ey
838:__ZN13dynamic_arrayI25PlayableNotificationEntryLm0EED2Ev
839:__ZN19StreamedBinaryWrite8TransferI13dynamic_arrayI8Vector3fLm0EEEEvRT_PKc17TransferMetaFlags
840:__ZN8Vector2f8TransferI14SafeBinaryReadEEvRT_
841:__ZNK17IAnimationBinding38SerializedPropertyPathToCurveAttributeER6ObjectPKc
842:__ZNK17IAnimationBinding30CurveAttributeToSerializedPathERKN11UnityEngine9Animation10BoundCurveE
843:__Z35InverseTransformPositionAndRotationRK23TransformAccessReadOnlyRKN4math7_float3ERKNS2_7_float4E
844:__ZNSt3__26vectorIN4core12basic_stringIcNS1_20StringStorageDefaultIcEEEE13stl_allocatorIS5_L18MemLabelIdentifier1ELi16EEE21__push_back_slow_pathIS5_EEvOT_
845:__ZN4coreplERKNS_12basic_stringIcNS_20StringStorageDefaultIcEEEERKNS_16basic_string_refIcEE
846:__ZN4core20StringStorageDefaultIcEaSEOS1_
847:__ZN11Marshalling16StringMarshaller16EnsureMarshalledEv
848:__ZNSt3__26vectorIiNS_9allocatorIiEEE6insertENS_11__wrap_iterIPKiEERS5_
849:__GLOBAL__sub_I_AssetBundleScriptingClasses_cpp
850:__GLOBAL__sub_I_Modules_AssetBundle_Public_0_cpp
851:__ZN13RuntimeStaticI18AssetBundleManagerLb1EE16StaticInitializeEPv
852:__ZN13RuntimeStaticI18AssetBundleManagerLb1EE13StaticDestroyEPv
853:__ZN18AssetBundleManagerD2Ev
854:__ZN24StaticInitializeInternal13ConstructTypeI18AssetBundleManagerLb1EEEPvS2_10MemLabelId
855:__ZN9Scripting11UnityEngineL65__ManagedRegistrationHelperFunction_AssetBundleCreateRequestProxyEPv
856:__ZN9Scripting11UnityEngineL71__ManagedRegistrationHelperFunction_AssetBundleRecompressOperationProxyEPv
857:__ZN9Scripting11UnityEngineL59__ManagedRegistrationHelperFunction_AssetBundleRequestProxyEPv
858:__ZN9Scripting11UnityEngineL57__ManagedRegistrationHelperFunction_BuildCompressionProxyEPv
859:__ZN9Scripting11UnityEngine21BuildCompressionProxy9InitProxyEv
860:__ZN9Scripting11UnityEngine21BuildCompressionProxy12CleanupProxyEv
861:__ZN9Scripting11UnityEngine23AssetBundleRequestProxy9InitProxyEv
862:__ZN9Scripting11UnityEngine23AssetBundleRequestProxy12CleanupProxyEv
863:__ZN9Scripting11UnityEngine35AssetBundleRecompressOperationProxy9InitProxyEv
864:__ZN9Scripting11UnityEngine35AssetBundleRecompressOperationProxy12CleanupProxyEv
865:__ZN9Scripting11UnityEngine29AssetBundleCreateRequestProxy9InitProxyEv
866:__ZN9Scripting11UnityEngine29AssetBundleCreateRequestProxy12CleanupProxyEv
867:__ZN23PreloadManagerOperation11GetPriorityEv
868:__ZN23PreloadManagerOperation14SetFinalTimingEffff
869:__ZN23PreloadManagerOperation19IntegrateTimeSlicedEi
870:__ZN23PreloadManagerOperation12GetDebugNameEv
871:__Z7ToLowerIcEN4core12basic_stringIT_NS0_20StringStorageDefaultIS2_EEEERKNS0_16basic_string_refIS2_EE
872:__ZN14SafeBinaryRead21TransferSTLStyleArrayINSt3__26vectorI14ConstantStringNS1_9allocatorIS3_EEEEEEvRT_17TransferMetaFlags
873:__Z14resize_trimmedINSt3__26vectorI14ConstantStringNS0_9allocatorIS2_EEEEEvRT_j
874:__ZNSt3__26vectorI14ConstantStringNS_9allocatorIS1_EEE6assignINS_11__wrap_iterIPS1_EEEENS_9enable_ifIXaasr21__is_forward_iteratorIT_EE5valuesr16is_constructibleIS1_NS_15iterator_traitsISA_E9referenceEEE5valueEvE4typeESA_SA_
875:__ZNSt3__26vectorI14ConstantStringNS_9allocatorIS1_EEE8__appendEm
876:__ZN15SerializeTraitsINSt3__24pairIN4core12basic_stringIcNS2_20StringStorageDefaultIcEEEE4PPtrI6ObjectEEEE8TransferI14SafeBinaryReadEEvRSA_RT_
877:__ZN18StreamedBinaryRead21TransferSTLStyleArrayINSt3__26vectorI14ConstantStringNS1_9allocatorIS3_EEEEEEvRT_17TransferMetaFlags
878:__ZN18AwakeFromLoadQueueD2Ev
879:__ZN23PreloadManagerOperation11SetPriorityEi
880:__ZN27TimeSliceAwakeFromLoadQueueD2Ev
881:__Z7ToLowerIN4core12basic_stringIcNS0_20StringStorageDefaultIcEEEEET_RKS5_
882:__Z14StartsWithPathIN4core12basic_stringIcNS0_20StringStorageDefaultIcEEEEA8_cEbRKT_RKT0_
883:__ZNSt3__26__sortIRNS_6__lessIN4core12basic_stringIcNS2_20StringStorageDefaultIcEEEES6_EEPS6_EEvT0_SA_T_
884:__ZNSt3__27__sort3IRNS_6__lessIN4core12basic_stringIcNS2_20StringStorageDefaultIcEEEES6_EEPS6_EEjT0_SA_SA_T_
885:__ZNSt3__27__sort4IRNS_6__lessIN4core12basic_stringIcNS2_20StringStorageDefaultIcEEEES6_EEPS6_EEjT0_SA_SA_SA_T_
886:__ZNSt3__27__sort5IRNS_6__lessIN4core12basic_stringIcNS2_20StringStorageDefaultIcEEEES6_EEPS6_EEjT0_SA_SA_SA_SA_T_
887:__ZNSt3__218__insertion_sort_3IRNS_6__lessIN4core12basic_stringIcNS2_20StringStorageDefaultIcEEEES6_EEPS6_EEvT0_SA_T_
888:__ZNSt3__227__insertion_sort_incompleteIRNS_6__lessIN4core12basic_stringIcNS2_20StringStorageDefaultIcEEEES6_EEPS6_EEbT0_SA_T_
889:__ZNSt3__26__treeIiNS_4lessIiEENS_9allocatorIiEEE7destroyEPNS_11__tree_nodeIiPvEE
890:__GLOBAL__sub_I_AudioScriptingClasses_cpp
891:__GLOBAL__sub_I_Runtime_Video_0_cpp
892:__GLOBAL__sub_I_Modules_Audio_Public_0_cpp
893:__GLOBAL__sub_I_Modules_Audio_Public_1_cpp
894:__GLOBAL__sub_I_Modules_Audio_Public_3_cpp
895:__GLOBAL__sub_I_Modules_Audio_Public_ScriptBindings_1_cpp
896:__GLOBAL__sub_I_Modules_Audio_Public_sound_0_cpp
897:__ZN13RuntimeStaticIN13SoundReleaser17SoundReleaserHookELb0EE16StaticInitializeEPv
898:__ZN13RuntimeStaticIN13SoundReleaser17SoundReleaserHookELb0EE13StaticDestroyEPv
899:__ZN13RuntimeStaticINSt3__28multimapIjP12SoundDecoderNS0_4lessIjEE13stl_allocatorINS0_4pairIKjS3_EEL18MemLabelIdentifier31ELi16EEEELb0EE13StaticDestroyEPv
900:__ZNSt3__26__treeINS_12__value_typeIjP12SoundDecoderEENS_19__map_value_compareIjS4_NS_4lessIjEELb1EEE13stl_allocatorIS4_L18MemLabelIdentifier31ELi16EEE7destroyEPNS_11__tree_nodeIS4_PvEE
901:__ZN24StaticInitializeInternal13ConstructTypeIN13SoundReleaser17SoundReleaserHookELb0EEEPvS3_10MemLabelId
902:__ZN13SoundReleaser17SoundReleaserHook11OnCloseFMODEv
903:__ZN13SoundReleaser17SoundReleaserHookD0Ev
904:__ZN13RuntimeStaticINSt3__23mapIjP26AudioSampleProviderChannelNS0_4lessIjEE13stl_allocatorINS0_4pairIKjS3_EEL18MemLabelIdentifier31ELi16EEEELb0EE13StaticDestroyEPv
905:__ZNSt3__26__treeINS_12__value_typeIjP26AudioSampleProviderChannelEENS_19__map_value_compareIjS4_NS_4lessIjEELb1EEE13stl_allocatorIS4_L18MemLabelIdentifier31ELi16EEE7destroyEPNS_11__tree_nodeIS4_PvEE
906:__ZL37StaticInitializeAudioCustomFilterRootPv
907:__ZL34StaticDestroyAudioCustomFilterRootPv
908:__ZN13RuntimeStaticI13dynamic_arrayIPN12AudioManager15ManagerListenerELm0EELb0EE16StaticInitializeEPv
909:__ZN13RuntimeStaticI13dynamic_arrayIPN12AudioManager15ManagerListenerELm0EELb0EE13StaticDestroyEPv
910:__ZN13RuntimeStaticINSt3__23mapIjP19AudioSampleProviderNS0_4lessIjEE13stl_allocatorINS0_4pairIKjS3_EEL18MemLabelIdentifier31ELi16EEEELb0EE13StaticDestroyEPv
911:__ZL37StaticInitializeAudioSourceFilterRootPv
912:__ZL34StaticDestroyAudioSourceFilterRootPv
913:__ZNSt3__26__treeINS_12__value_typeIjP19AudioSampleProviderEENS_19__map_value_compareIjS4_NS_4lessIjEELb1EEE13stl_allocatorIS4_L18MemLabelIdentifier31ELi16EEE7destroyEPNS_11__tree_nodeIS4_PvEE
914:__ZN24StaticInitializeInternal13ConstructTypeI13dynamic_arrayIPN12AudioManager15ManagerListenerELm0EELb0EEEPvS6_10MemLabelId
915:__ZN13RuntimeStaticINSt3__23setIP26AudioSampleProviderChannelNS0_4lessIS3_EE13stl_allocatorIS3_L18MemLabelIdentifier31ELi16EEEELb0EE16StaticInitializeEPv
916:__ZN13RuntimeStaticINSt3__23setIP26AudioSampleProviderChannelNS0_4lessIS3_EE13stl_allocatorIS3_L18MemLabelIdentifier31ELi16EEEELb0EE13StaticDestroyEPv
917:__ZNSt3__26__treeIP26AudioSampleProviderChannelNS_4lessIS2_EE13stl_allocatorIS2_L18MemLabelIdentifier31ELi16EEE7destroyEPNS_11__tree_nodeIS2_PvEE
918:__ZN13RuntimeStaticINSt3__26vectorIP16BaseVideoTexture13stl_allocatorIS3_L18MemLabelIdentifier24ELi16EEEELb0EE16StaticInitializeEPv
919:__ZN13RuntimeStaticINSt3__26vectorIP16BaseVideoTexture13stl_allocatorIS3_L18MemLabelIdentifier24ELi16EEEELb0EE13StaticDestroyEPv
920:__ZN13RuntimeStaticINSt3__26vectorI12WebCamDeviceNS0_9allocatorIS2_EEEELb0EE16StaticInitializeEPv
921:__ZN13RuntimeStaticINSt3__26vectorI12WebCamDeviceNS0_9allocatorIS2_EEEELb0EE13StaticDestroyEPv
922:__ZN24StaticInitializeInternal13ConstructTypeINSt3__26vectorI12WebCamDeviceNS1_9allocatorIS3_EEEELb0EEEPvS7_10MemLabelId
923:__ZN9Scripting11UnityEngine5AudioL58__ManagedRegistrationHelperFunction_AudioClipPlayableProxyEPv
924:__ZN9Scripting11UnityEngine5AudioL59__ManagedRegistrationHelperFunction_AudioMixerPlayableProxyEPv
925:__ZN9Scripting11UnityEngine5AudioL60__ManagedRegistrationHelperFunction_AudioPlayableOutputProxyEPv
926:__ZN9Scripting11UnityEngineL50__ManagedRegistrationHelperFunction_AudioClipProxyEPv
927:__ZN9Scripting11UnityEngineL54__ManagedRegistrationHelperFunction_AudioSettingsProxyEPv
928:__ZN9Scripting11UnityEngine12Experimental5AudioL60__ManagedRegistrationHelperFunction_AudioSampleProviderProxyEPv
929:__ZN9Scripting11UnityEngineL53__ManagedRegistrationHelperFunction_WebCamDeviceProxyEPv
930:__ZN9Scripting11UnityEngine17WebCamDeviceProxy9InitProxyEv
931:__ZN9Scripting11UnityEngine17WebCamDeviceProxy12CleanupProxyEv
932:__ZN9Scripting11UnityEngine12Experimental5Audio24AudioSampleProviderProxy9InitProxyEv
933:__ZN9Scripting11UnityEngine12Experimental5Audio24AudioSampleProviderProxy12CleanupProxyEv
934:__ZN9Scripting11UnityEngine18AudioSettingsProxy9InitProxyEv
935:__ZN9Scripting11UnityEngine18AudioSettingsProxy12CleanupProxyEv
936:__ZN9Scripting11UnityEngine14AudioClipProxy9InitProxyEv
937:__ZN9Scripting11UnityEngine14AudioClipProxy12CleanupProxyEv
938:__ZN9Scripting11UnityEngine5Audio24AudioPlayableOutputProxy9InitProxyEv
939:__ZN9Scripting11UnityEngine5Audio24AudioPlayableOutputProxy12CleanupProxyEv
940:__ZN9Scripting11UnityEngine5Audio23AudioMixerPlayableProxy9InitProxyEv
941:__ZN9Scripting11UnityEngine5Audio23AudioMixerPlayableProxy12CleanupProxyEv
942:__ZN9Scripting11UnityEngine5Audio22AudioClipPlayableProxy9InitProxyEv
943:__ZN9Scripting11UnityEngine5Audio22AudioClipPlayableProxy12CleanupProxyEv
944:__ZNK7Texture20GetUnscaledTextureIDEv
945:__ZNK7Texture11GetGPUWidthEv
946:__ZNK7Texture12GetGPUHeightEv
947:__ZNK7Texture16GetNpotTexelSizeEv
948:__ZNK7Texture9HasMipMapEv
949:__ZNK7Texture14GetMipmapCountEv
950:__ZNK7Texture21GetShadowSamplingModeEv
951:__ZN7Texture34UpdateFileTextureUploadInstructionEP24TextureUploadInstructionj
952:__ZN4FMOD3DSP9setBypassEb
953:__ZN4FMOD6System15createDSPByTypeE13FMOD_DSP_TYPEPPNS_3DSPE
954:__ZN10ObjectPoolIN4FMOD3DSPENS0_4DSPIEE7GetFreeEi
955:__ZN4FMOD3DSP12setParameterEif
956:__ZN4FMOD3DSP7releaseEv
957:__ZN15SerializeTraitsI9UnityGUIDE8TransferI14SafeBinaryReadEEvRS0_RT_
958:__ZN9UnityGUID8TransferI24GenerateTypeTreeTransferEEvRT_
959:__ZN9UnityGUID8TransferI18StreamedBinaryReadEEvRT_
960:__ZN9UnityGUID8TransferI19StreamedBinaryWriteEEvRT_
961:__ZN4FMOD6Reverb9setActiveEb
962:__ZN15AudioReverbZone4InitEv
963:__ZN4FMOD6System12createReverbEPPNS_6ReverbE
964:__ZL16FMOD_ErrorString11FMOD_RESULT
965:__ZN12AudioManager21FixMasterGroupRoutingEv
966:__ZN15AudioReverbZone13SetFMODValuesEv
967:__ZN4FMOD6System6updateEv
968:__ZN4FMOD6Reverb15set3DAttributesEPK11FMOD_VECTORff
969:__ZN4FMOD6Reverb13setPropertiesEPK22FMOD_REVERB_PROPERTIES
970:__ZN4FMOD12ChannelGroup10getDSPHeadEPPNS_3DSPE
971:__ZN4FMOD3DSP9getOutputEiPPS0_PPNS_13DSPConnectionE
972:__ZN4FMOD3DSP8getInputEiPPS0_PPNS_13DSPConnectionE
973:__ZN4FMOD3DSP12getNumInputsEPi
974:__ZN4FMOD3DSP7getInfoEPcPjPiS3_S3_
975:__ZN4FMOD3DSP13disconnectAllEbb
976:__ZN4FMOD3DSP8addInputEPS0_PPNS_13DSPConnectionE
977:__ZN4FMOD6Reverb7releaseEv
978:__ZN12AudioManagerD2Ev
979:__ZN12AudioManagerD0Ev
980:__ZN12AudioManager17MainThreadCleanupEv
981:__ZN12AudioManager13AwakeFromLoadE17AwakeFromLoadMode
982:__ZN12AudioManager16CheckConsistencyEv
983:__ZN12AudioManager5ResetEv
984:__ZNK12AudioManager22GetTypeVirtualInternalEv
985:__ZN12AudioManager23VirtualRedirectTransferER19StreamedBinaryWrite
986:__ZN12AudioManager23VirtualRedirectTransferER18StreamedBinaryRead
987:__ZN12AudioManager23VirtualRedirectTransferER24GenerateTypeTreeTransfer
988:__ZN12AudioManager23VirtualRedirectTransferER14SafeBinaryRead
989:__ZN12AudioManager8TransferI14SafeBinaryReadEEvRT_
990:__ZN12AudioManager8TransferI24GenerateTypeTreeTransferEEvRT_
991:__ZN12AudioManager8TransferI18StreamedBinaryReadEEvRT_
992:__ZN12AudioManager8TransferI19StreamedBinaryWriteEEvRT_
993:__ZN12AudioManager8InitFMODE15FMOD_OUTPUTTYPE
994:__ZN12AudioManager29ShutdownReinitializeAndReloadE15FMOD_OUTPUTTYPEPS0_
995:__ZN4FMOD12ChannelGroup9setVolumeEf
996:__ZN4FMOD6System13set3DSettingsEfff
997:__ZN4FMOD6System9getOutputEP15FMOD_OUTPUTTYPE
998:__ZN12AudioManager9CloseFMODEv
999:__ZN9AudioClip6ReloadEv
1000:__ZN13AudioListener12ApplyFiltersEv
1001:__ZN12AudioManager39HandlePendingAudioConfigurationCallbackEv
1002:__ZL31InitializeAudioScriptingClassesv
1003:__ZL28CleanupAudioScriptingClassesv
1004:__ZN11AudioFilter6GetDSPEv
1005:__ZN4FMOD3DSP6removeEv
1006:__Z15_CheckFMODError11FMOD_RESULTPKciS1_
1007:__ZN4FMOD12ChannelGroup6addDSPEPNS_3DSPEPPNS_13DSPConnectionE
1008:__ZN4FMOD3DSP9getBypassEPb
1009:__ZN11AudioSource7CleanupEv
1010:__ZN13AudioListener7CleanupEv
1011:__ZN15AudioReverbZone7CleanupEv
1012:__ZN10AudioMixer33EnsureMixerGroupSinksAreDestroyedEv
1013:__ZN5audio5mixer23DestroyAudioMixerMemoryEPNS0_16AudioMixerMemoryERKNS0_18AudioMixerConstantEPN4FMOD6SystemER20RuntimeBaseAllocator
1014:__ZN19AudioPlayableOutput21KillFMODResourceGraphEv
1015:__ZN26AudioSampleProviderChannel7CleanupEv
1016:__ZN4FMOD12ChannelGroup7releaseEv
1017:__ZN9AudioClip7CleanupEv
1018:__ZN4FMOD6System5closeEv
1019:__ZN12SoundManagerD2Ev
1020:__ZN12SoundManager20OnExitPlayModeStaticEv
1021:__ZN12SoundManager26OnBeforeDomainUnloadStaticEv
1022:__ZN12SoundManager6UpdateEv
1023:__ZN11SoundHandle8InstanceD2Ev
1024:__ZN20SoundChannelInstance4StopEv
1025:__ZN4FMOD5Sound7releaseEv
1026:__ZN4FMOD6SoundI7releaseEv
1027:__ZN4FMOD8ChannelI11EndCallbackEv
1028:__ZN4FMOD7Channel4stopEv
1029:__ZN4FMOD7Channel11setPositionEjj
1030:__ZN11SoundHandle8Instance15UpdateLoadStateEv
1031:__ZN4FMOD6System9playSoundE17FMOD_CHANNELINDEXPNS_5SoundEbPPNS_7ChannelE
1032:__ZN20SoundChannelInstance14SetFMODChannelEPN4FMOD7ChannelE
1033:__ZN20SoundChannelInstance15ParameterBuffer5ApplyEPN4FMOD7ChannelE
1034:__ZN20SoundChannelInstance12UpdateVolumeEv
1035:__ZN20SoundChannelInstance11UpdatePitchEv
1036:__ZN20SoundChannelInstance16UpdatePauseStateEv
1037:__ZN20SoundChannelInstance15UpdateStereoPanEv
1038:__ZN20SoundChannelInstance16Update3DPanLevelEv
1039:__ZN4FMOD7Channel7getModeEPj
1040:__ZN4FMOD7Channel13set3DPanLevelEf
1041:__ZN4FMOD7Channel6setPanEf
1042:__ZN4FMOD7Channel9setPausedEb
1043:__ZN4FMOD7Channel12setFrequencyEf
1044:__ZN4FMOD7Channel9setVolumeEf
1045:__ZN4FMOD8ChannelI9setVolumeEf
1046:__ZN4FMOD7Channel7setMuteEb
1047:__ZN4FMOD7Channel11setCallbackEPF11FMOD_RESULTP12FMOD_CHANNEL25FMOD_CHANNEL_CALLBACKTYPEPvS5_E
1048:__ZN4FMOD7Channel7setModeEj
1049:__ZN4FMOD7Channel15setChannelGroupEPNS_12ChannelGroupE
1050:__ZN4FMOD7Channel11setPriorityEi
1051:__ZN4FMOD7Channel19setReverbPropertiesEPK29FMOD_REVERB_CHANNELPROPERTIES
1052:__ZN4FMOD7Channel8setDelayE14FMOD_DELAYTYPEjj
1053:__ZN4FMOD7Channel15set3DAttributesEPK11FMOD_VECTORS3_
1054:__ZN4FMOD7Channel20set3DConeOrientationEP11FMOD_VECTOR
1055:__ZN4FMOD7Channel17set3DConeSettingsEfff
1056:__ZN4FMOD7Channel19set3DMinMaxDistanceEff
1057:__ZN4FMOD7Channel11set3DSpreadEf
1058:__ZN4FMOD8ChannelI15set3DAttributesEPK11FMOD_VECTORS3_
1059:__ZN4FMOD8ChannelI18UpdateDopplerPitchEv
1060:__ZN4FMOD8ChannelI8setDelayE14FMOD_DELAYTYPEjj
1061:__ZN4FMOD7Channel6addDSPEPNS_3DSPEPPNS_13DSPConnectionE
1062:__ZN4FMOD7Channel11setUserDataEPv
1063:__ZN20SoundChannelInstance19FMODChannelCallbackEP12FMOD_CHANNEL25FMOD_CHANNEL_CALLBACKTYPEPvS3_
1064:__ZN4FMOD7Channel12getFrequencyEPf
1065:__ZN4FMOD7Channel11getUserDataEPPv
1066:__ZN4FMOD7SystemI9playSoundE17FMOD_CHANNELINDEXPNS_5SoundEbPPNS_7ChannelE
1067:__ZN10ObjectPoolIN4FMOD7ChannelENS0_8ChannelIEE7GetFreeEi
1068:__ZN4FMOD22FakeModChannelCallbackEPv
1069:__ZN4FMOD5Sound12getOpenStateEP14FMOD_OPENSTATEPjPbS4_
1070:__ZN4FMOD5Sound15getNumSubSoundsEPi
1071:__ZN4FMOD5Sound11getSubSoundEiPPS0_
1072:__ZN11SoundHandle8Instance15FinalizeLoadingEv
1073:__ZN4FMOD5Sound11setUserDataEPv
1074:__ZN4FMOD8ChannelI11setPositionEjj
1075:__ZN10SampleClip15UnloadAudioDataEv
1076:__ZN12SoundManager10UnloadClipEP10SampleClip
1077:__ZN12SoundManager20RegisterModifiedClipEP10SampleClip
1078:__ZN11SoundHandle8Instance7DisposeEv
1079:__ZN11SoundHandleD2Ev
1080:__ZN11SoundHandle7ReleaseEv
1081:__ZN11SoundHandleaSERKS_
1082:__ZN26AudioSampleProviderChannel11ReleaseFMODEv
1083:__ZN13AudioPlayable26ReleaseFMODResourceVisitorERK16AudioProcessData
1084:__ZN13AudioPlayable27ReleaseChannelGroupsVisitorERK16AudioProcessData
1085:__ZN22AudioPlayableTraverser8TraverseERK16AudioProcessData
1086:__ZN11AudioFilter7CleanupEv
1087:__ZN17AudioCustomFilter7CleanupEv
1088:__ZN11AudioSource4StopEb
1089:__ZN4FMOD3DSP11getUserDataEPPv
1090:__ZN11AudioSource16CleanAudioSourceEb
1091:__ZN11AudioSource20SetEffectActiveStateEb
1092:__ZN4FMOD3DSP9setActiveEb
1093:__ZN11AudioSource14GetParentGroupEPPN4FMOD12ChannelGroupE
1094:__ZN4FMOD12ChannelGroup12getNumGroupsEPi
1095:__ZN4FMOD12ChannelGroup8getGroupEiPPS0_
1096:__ZN4FMOD12ChannelGroup8addGroupEPS0_
1097:__ZN13dynamic_arrayI12SoundChannelLm0EE13clear_deallocEv
1098:__ZN11AudioSource26MuteActiveProviderChannelsEv
1099:__ZN20SoundChannelInstance7setMuteEb
1100:__ZN10AudioMixer18EnsureValidRuntimeEv
1101:__ZN5audio5mixer16FindChannelGroupERKNS0_18AudioMixerConstantERKNS0_16AudioMixerMemoryERK9UnityGUID
1102:__ZN5audio5mixer22CreateAudioMixerMemoryERKNS0_18AudioMixerConstantEPN4FMOD6SystemER20RuntimeBaseAllocatorib
1103:__ZN10AudioMixer31EnsureMixerGroupSinksAreCreatedEv
1104:__ZN10AudioMixer14UpdateMuteSoloEv
1105:__ZN5audio5mixer12UpdateBypassERNS0_18AudioMixerConstantERNS0_16AudioMixerMemoryE
1106:__ZN5audio5mixer21SetResultingMuteStateERKNS0_18AudioMixerConstantERKNS0_16AudioMixerMemoryEib
1107:__ZN10AudioMixer11SetupGroupsEv
1108:__ZN12AudioManager37RebindAudioSourcesAndSubMixersToMixerEP10AudioMixer
1109:__ZN11AudioSource19ConfigureFMODGroupsEv
1110:__ZN10AudioMixer12RebindOutputEv
1111:__ZN5audio5mixer17AssignOutputGroupERKNS0_18AudioMixerConstantERKNS0_16AudioMixerMemoryEPN4FMOD12ChannelGroupE
1112:__ZN4FMOD12ChannelGroup14getParentGroupEPPS0_
1113:__ZN11AudioSource12ApplyFiltersEv
1114:__ZNK11AudioSource19GetFilterComponentsERNSt3__26vectorIPN4FMOD3DSPENS0_9allocatorIS4_EEEEb
1115:__ZNSt3__26vectorIPN4FMOD3DSPENS_9allocatorIS3_EEE21__push_back_slow_pathIRKS3_EEvOT_
1116:__ZN10AudioMixer14MixerGroupSink15ProcessCallbackEP21UnityAudioEffectStatePfS3_jii
1117:__ZN29AudioEffectInternalDefinition9CreateDSPEPN4FMOD6SystemEPvPfP23UnityAudioAmbisonicDataPP25UnityAudioSpatializerData
1118:__ZN29AudioEffectInternalDefinitionD2Ev
1119:__ZN4FMOD6System9createDSPEP20FMOD_DSP_DESCRIPTIONPPNS_3DSPE
1120:__ZN29AudioEffectInternalDefinitionC2EP26UnityAudioEffectDefinitionb
1121:__ZN30AudioEffectInternalDescriptionC2EP26UnityAudioEffectDefinition
1122:__ZL39UnityAudioEffect_InternalCreateCallbackP14FMOD_DSP_STATE
1123:__ZL40UnityAudioEffect_InternalReleaseCallbackP14FMOD_DSP_STATE
1124:__ZL38UnityAudioEffect_InternalResetCallbackP14FMOD_DSP_STATE
1125:__ZL37UnityAudioEffect_InternalReadCallbackP14FMOD_DSP_STATEPfS1_jii
1126:__ZL44UnityAudioEffect_InternalSetPositionCallbackP14FMOD_DSP_STATEj
1127:__ZL50UnityAudioEffect_InternalSetFloatParameterCallbackP14FMOD_DSP_STATEif
1128:__ZL50UnityAudioEffect_InternalGetFloatParameterCallbackP14FMOD_DSP_STATEiPfPc
1129:__ZN4FMOD3DSP11setUserDataEPv
1130:__ZN4FMOD6System18createChannelGroupEPKcPPNS_12ChannelGroupE
1131:__ZN4FMOD12ChannelGroup7setMuteEb
1132:__ZN4FMOD6System17getSoftwareFormatEPiP17FMOD_SOUND_FORMATS1_S1_P18FMOD_DSP_RESAMPLERS1_
1133:__ZN4FMOD6System16getDSPBufferSizeEPjPi
1134:__Z32AudioMeasurement_GetTimeConstantff
1135:__Z25GetAudioEffectDefinitionsPi
1136:__Z29AudioMixerSendProcessCallbackP21UnityAudioEffectStatePfS1_jii
1137:__Z32AudioMixerReceiveProcessCallbackP21UnityAudioEffectStatePfS1_jii
1138:__Z31AudioMixerDuckingCreateCallbackP21UnityAudioEffectState
1139:__Z32AudioMixerDuckingDestroyCallbackP21UnityAudioEffectState
1140:__Z37AudioMixerDuckingSetParameterCallbackP21UnityAudioEffectStateif
1141:__Z39AudioMixerDuckingGetFloatBufferCallbackP21UnityAudioEffectStatePKcPfi
1142:__Z32AudioMixerDuckingProcessCallbackP21UnityAudioEffectStatePfS1_jii
1143:__Z30AudioMixerFaderProcessCallbackP21UnityAudioEffectStatePfS1_jii
1144:__ZN4FMOD3DSP14disconnectFromEPS0_
1145:__ZN5audio5mixer22UpdateAudioMixerMemoryERKNS0_18AudioMixerConstantERNS0_16AudioMixerMemoryEfPN4FMOD6SystemEf
1146:__ZN4FMOD12ChannelGroup19setAudibilityFactorEf
1147:__ZN4FMOD12ChannelGroup8setPitchEf
1148:__ZN4FMOD13DSPConnection6setMixEf
1149:__ZN5audio5mixerL19IsAnyChannelPlayingEPN4FMOD12ChannelGroupE
1150:__ZN5audio5mixer12SetSuspendedERNS0_16AudioMixerMemoryEb
1151:__ZN4FMOD3DSP9getActiveEPb
1152:__ZN4FMOD3DSP15getSystemObjectEPPNS_6SystemE
1153:__ZN4FMOD12ChannelGroup14getNumChannelsEPi
1154:__ZN4FMOD12ChannelGroup10getChannelEiPPNS_7ChannelE
1155:__ZN4FMOD7Channel9isPlayingEPb
1156:__ZN12AudioManager33GetAudioEffectInternalDefinitionsEv
1157:__ZN10ObjectPoolIN4FMOD12ChannelGroupENS0_13ChannelGroupIEE7GetFreeEi
1158:_FMOD_Memory_Initialize
1159:_FMOD_System_Create
1160:__ZNK12AudioManager18ValidateFMODResultE11FMOD_RESULTiPKcS2_
1161:__Z14FMOD_FILE_OpenPKciPjPPvS3_
1162:__Z15FMOD_FILE_ClosePvS_
1163:__Z14FMOD_FILE_ReadPvS_jPjS_
1164:__Z14FMOD_FILE_SeekPvjS_
1165:__ZN4FMOD6System13setFileSystemEPF11FMOD_RESULTPKciPjPPvS6_EPFS1_S5_S5_EPFS1_S5_S5_jS4_S5_EPFS1_S5_jS5_EPFS1_P18FMOD_ASYNCREADINFOS5_ESA_i
1166:__ZN4FMOD6System10getVersionEPj
1167:__ZN4FMOD6System19setStreamBufferSizeEjj
1168:__ZN12AudioManager14systemCallbackEP11FMOD_SYSTEM24FMOD_SYSTEM_CALLBACKTYPEPvS3_
1169:__ZN4FMOD6System11setCallbackEPF11FMOD_RESULTP11FMOD_SYSTEM24FMOD_SYSTEM_CALLBACKTYPEPvS5_E
1170:__ZN11AudioSource15rolloffCallbackEP12FMOD_CHANNELf
1171:__ZN4FMOD6System20set3DRolloffCallbackEPFfP12FMOD_CHANNELfE
1172:__ZN12AudioManager10InitNormalEb15FMOD_OUTPUTTYPE
1173:__ZN4FMOD6System7releaseEv
1174:__ZN4FMOD6System21getMasterChannelGroupEPPNS_12ChannelGroupE
1175:__ZN4FMOD6System11getDSPClockEPjS1_
1176:__Z29AudioMasterDSPProcessCallbackP21UnityAudioEffectStatePfS1_jii
1177:__ZN12SoundManagerC2Ev
1178:__ZN4FMOD6System9setOutputE15FMOD_OUTPUTTYPE
1179:__ZN4FMOD6System13getNumDriversEPi
1180:__ZN4FMOD6System9getDriverEPi
1181:__ZN4FMOD6System13getDriverCapsEiPjPiP16FMOD_SPEAKERMODE
1182:__ZN4FMOD6System14setSpeakerModeE16FMOD_SPEAKERMODE
1183:__ZN4FMOD6System16setDSPBufferSizeEji
1184:__ZN4FMOD6System17setSoftwareFormatEi17FMOD_SOUND_FORMATii18FMOD_DSP_RESAMPLER
1185:__ZN4FMOD6System19setSoftwareChannelsEi
1186:__ZN4FMOD6System19setAdvancedSettingsEP21FMOD_ADVANCEDSETTINGS
1187:__ZN4FMOD6System4initEijPv
1188:__ZN10ObjectPoolIN4FMOD7ChannelENS0_8ChannelIEE7SetSizeEi
1189:__ZN12AudioManager27SetActiveOutputDriverCommonEP9FMOD_GUIDRKN4core12basic_stringIcNS2_20StringStorageDefaultIcEEEEb
1190:__ZN4FMOD6System9setDriverEi
1191:__ZN4FMOD6System13getDriverInfoEiPciP9FMOD_GUID
1192:__ZN4FMOD7SystemIC2Ei
1193:__ZN10ObjectPoolIN4FMOD12ChannelGroupENS0_13ChannelGroupIEE7SetSizeEi
1194:__ZN10ObjectPoolIN4FMOD5SoundENS0_6SoundIEE7SetSizeEi
1195:__ZN10ObjectPoolIN4FMOD3DSPENS0_4DSPIEE7SetSizeEi
1196:__ZN12AudioManager27InitialCompleteDomainReloadEv
1197:__ZN24AudioScriptBufferManager4InitEv
1198:__ZN24AudioScriptBufferManagerC2Ev
1199:__ZN10AudioMixer6UpdateEf
1200:__ZN13dynamic_arrayIS_IfLm0EELm0EED2Ev
1201:__ZN10SampleClip13LoadBaseSoundEv
1202:__ZNK10SampleClip17CalculateFMODModeEv
1203:__ZN12SoundManager9GetHandleERK16StreamedResourceijjP10SampleClipb
1204:__Z13LoadFMODSoundPPN11SoundHandle8InstanceEPKcjP10SampleClipjN3VFS8FileSizeEP22FMOD_CREATESOUNDEXINFO
1205:__ZN12SoundManager18IntegrateFMODSoundEPN11SoundHandle8InstanceERK16StreamedResourcejiN17SoundHandleShared9LoadStateE
1206:__ZN4FMOD5Sound13setLoopPointsEjjjj
1207:__ZN11SoundHandle8InstanceC2Ev
1208:__ZN4FMOD6System11createSoundEPKcjP22FMOD_CREATESOUNDEXINFOPPNS_5SoundE
1209:__ZN4FMOD7SystemI11createSoundEPKcjP22FMOD_CREATESOUNDEXINFOPPNS_5SoundE
1210:__ZN10ObjectPoolIN4FMOD5SoundENS0_6SoundIEE7GetFreeEi
1211:__ZNK7WeakPtrIN11SoundHandle8InstanceEE10SharedData9GetRawPtrEv
1212:__ZN11AudioSource16UpdatePauseStateEv
1213:__ZN11SoundHandleC2ERKS_
1214:__ZN20SoundChannelInstance8setDelayE14FMOD_DELAYTYPEjj
1215:__ZN11AudioSource32CorrectScheduledTimeAfterUnpauseEyy
1216:__ZN20SoundChannelInstance8getDelayE14FMOD_DELAYTYPEPjS1_
1217:__ZN10SampleClipD2Ev
1218:__ZN10SampleClipD0Ev
1219:__ZN10SampleClip17MainThreadCleanupEv
1220:__ZNK10SampleClip22GetTypeVirtualInternalEv
1221:__ZN10SampleClip23VirtualRedirectTransferER19StreamedBinaryWrite
1222:__ZN10SampleClip23VirtualRedirectTransferER18StreamedBinaryRead
1223:__ZN10SampleClip23VirtualRedirectTransferER24GenerateTypeTreeTransfer
1224:__ZN10SampleClip23VirtualRedirectTransferER14SafeBinaryRead
1225:__ZNK10SampleClip12GetLoadStateEv
1226:__ZN9AudioClipD2Ev
1227:__ZN9AudioClipD0Ev
1228:__ZN9AudioClip17MainThreadCleanupEv
1229:__ZN9AudioClip13AwakeFromLoadE17AwakeFromLoadMode
1230:__ZN9AudioClip21AwakeFromLoadThreadedEv
1231:__ZNK9AudioClip22GetTypeVirtualInternalEv
1232:__ZN9AudioClip23VirtualRedirectTransferER19StreamedBinaryWrite
1233:__ZN9AudioClip23VirtualRedirectTransferER18StreamedBinaryRead
1234:__ZN9AudioClip23VirtualRedirectTransferER24GenerateTypeTreeTransfer
1235:__ZN9AudioClip23VirtualRedirectTransferER14SafeBinaryRead
1236:__ZN9AudioClip8TransferI14SafeBinaryReadEEvRT_
1237:__ZN9AudioClip8TransferI24GenerateTypeTreeTransferEEvRT_
1238:__ZN9AudioClip8TransferI18StreamedBinaryReadEEvRT_
1239:__ZN9AudioClip8TransferI19StreamedBinaryWriteEEvRT_
1240:__ZN9AudioClip9LoadSoundEv
1241:__ZN9AudioClip11CreateSoundEv
1242:__ZN12AudioManager22CreateFMODSoundFromWWWEP10IWWWStream15FMOD_SOUND_TYPE17FMOD_SOUND_FORMATjjbbP10SampleClip
1243:__ZN12SoundManager22GetHandleFromFMODSoundEPN11SoundHandle8InstanceEjP10SampleClip
1244:__ZN9AudioClip21ScriptPCMReadCallbackEP10FMOD_SOUNDPvj
1245:__ZN9AudioClip28ScriptPCMSetPositionCallbackEP10FMOD_SOUNDijj
1246:__ZN12SoundManager19CreateSoundInternalEPKcjP22FMOD_CREATESOUNDEXINFOR11SoundHandlejP10SampleClip
1247:__ZN4FMOD5Sound11getUserDataEPPv
1248:__ZN12AudioManager22GetScriptBufferManagerEv
1249:__ZN9AudioClip7WWWOpenEPKciPjPPvS4_
1250:__ZN9AudioClip8WWWCloseEPvS0_
1251:__ZN9AudioClip7WWWReadEPvS0_jPjS0_
1252:__ZN9AudioClip7WWWSeekEPvjS0_
1253:__ZN10IWWWStream25FromTextualRepresentationEPKc
1254:__ZN13AudioListenerD2Ev
1255:__ZN13AudioListenerD0Ev
1256:__ZN13AudioListener13AwakeFromLoadE17AwakeFromLoadMode
1257:__ZNK13AudioListener22GetTypeVirtualInternalEv
1258:__ZN13AudioListener23VirtualRedirectTransferER19StreamedBinaryWrite
1259:__ZN13AudioListener23VirtualRedirectTransferER18StreamedBinaryRead
1260:__ZN13AudioListener23VirtualRedirectTransferER17RemapPPtrTransfer
1261:__ZN13AudioListener23VirtualRedirectTransferER24GenerateTypeTreeTransfer
1262:__ZN13AudioListener23VirtualRedirectTransferER14SafeBinaryRead
1263:__ZN13AudioListener6UpdateEv
1264:__ZN13AudioListener11FixedUpdateEv
1265:__ZN13AudioListener12AddToManagerEv
1266:__ZN13AudioListener17RemoveFromManagerEv
1267:__ZN12AudioManager19RemoveAudioListenerEP13AudioListener
1268:__ZN12AudioManager16AddAudioListenerEP13AudioListener
1269:__ZN13AudioListener8DoUpdateEv
1270:__ZN12AudioManager14UpdateListenerERK8Vector3fS2_S2_S2_
1271:__ZNK18AudioLowPassFilter18GetCutoffFrequencyEv
1272:__ZN4FMOD6System23set3DListenerAttributesEiPK11FMOD_VECTORS3_S3_S3_
1273:__ZN12AudioManager22GetAutomaticUpdateModeEP10GameObject
1274:__ZN14AudioBehaviourD2Ev
1275:__ZN14AudioBehaviourD0Ev
1276:__ZNK14AudioBehaviour22GetTypeVirtualInternalEv
1277:__ZN17AudioCustomFilterD2Ev
1278:__ZN17AudioCustomFilterD0Ev
1279:__Z26RegisterModuleICalls_Audiov
1280:__Z18RegisterUnityClassI9AudioClipEvPKc
1281:__Z18RegisterUnityClassI14AudioBehaviourEvPKc
1282:__Z18RegisterUnityClassI13AudioListenerEvPKc
1283:__ZN13ProduceHelperI13AudioListenerLb0EE7ProduceE10MemLabelId18ObjectCreationMode
1284:__ZN13AudioListener15InitializeClassEv
1285:__ZZN13AudioListener15InitializeClassEvEN31FunctorImpl_197kDidAddComponent4CallEPviR11MessageData
1286:__ZN14AudioBehaviourC2E10MemLabelId18ObjectCreationMode
1287:__ZN13ProduceHelperI14AudioBehaviourLb1EE7ProduceE10MemLabelId18ObjectCreationMode
1288:__ZN13ProduceHelperI9AudioClipLb0EE7ProduceE10MemLabelId18ObjectCreationMode
1289:__ZN10SampleClipC2E10MemLabelId18ObjectCreationMode
1290:__ZN16BaseVideoTexture19UpdateVideoTexturesEv
1291:__ZN16BaseVideoTexture18PauseVideoTexturesEv
1292:__ZN16BaseVideoTexture17StopVideoTexturesEv
1293:__ZN16BaseVideoTexture20SuspendVideoTexturesEv
1294:__ZN16BaseVideoTexture19ResumeVideoTexturesEv
1295:__ZNK17BaseWebCamTexture9GetPixelsE13TextureFormatPvm
1296:__ZZL31InitializeAudioManagerCallbacksvEN38FixedUpdateAudioFixedUpdateRegistrator7ForwardEv
1297:__ZZL31InitializeAudioManagerCallbacksvEN36PostLateUpdateUpdateAudioRegistrator7ForwardEv
1298:__ZZL31InitializeAudioManagerCallbacksvEN44PostLateUpdateUpdateVideoTexturesRegistrator7ForwardEv
1299:__ZN11AudioModule16SetListenerPauseEb
1300:__ZN11AudioModule19SetApplicationPauseEb
1301:__ZN11AudioModule11FixedUpdateEv
1302:__ZN11AudioModule6UpdateEv
1303:__ZN11AudioModule11GetDSPClockEv
1304:__ZN11AudioModule16GetDSPSampleRateEv
1305:__ZN11AudioModule15GetDSPBlockSizeEv
1306:__ZN11AudioModule17StopVideoTexturesEv
1307:__ZN11AudioModule19UpdateVideoTexturesEv
1308:__ZN11AudioModule18PauseVideoTexturesEv
1309:__ZN11AudioModule20SuspendVideoTexturesEv
1310:__ZN11AudioModule19ResumeVideoTexturesEv
1311:__ZN11AudioModule22CreateAudioClipFromWWWEP10IWWWStreamPKcbbi
1312:__ZN11AudioModule27IsFormatSupportedByPlatformEPKc
1313:__ZN11AudioModule30GetOrCreateDSPFromCustomFilterEP17AudioCustomFilter
1314:__ZN11AudioModule23CreateAudioCustomFilterEP13MonoBehaviour
1315:__ZN11AudioModule23DeleteAudioCustomFilterEP17AudioCustomFilter
1316:__ZN11AudioModule27GetDSPFromAudioCustomFilterEP17AudioCustomFilter
1317:__ZN11AudioModule14SetBypassOnDSPEPN4FMOD3DSPEb
1318:__ZN11AudioModule12CaptureFrameER13dynamic_arrayI22AudioProfilerGroupInfoLm0EERS0_I20AudioProfilerDSPInfoLm0EERS0_I21AudioProfilerClipInfoLm0EERS0_IcLm0EE
1319:__ZN11AudioModule25AudioManagerAwakeFromLoadE17AwakeFromLoadMode
1320:__ZN11AudioModule21SetActiveOutputDriverEPv
1321:__ZN11AudioModule26SetDefaultMicrophoneDriverEPv
1322:__ZN11AudioModule26AcquireAudioSampleProviderEiRN19AudioSampleProvider6HandleE
1323:__ZN11AudioModule28DoesAudioSampleProviderExistEi
1324:__ZN11AudioModule11EnableInputEP19AudioSampleProviderb
1325:__ZN11AudioModule19ConsumeSampleFramesEP19AudioSampleProviderR13dynamic_arrayIfLm0EE
1326:__ZN11AudioModule34GetAudioSampleProviderChannelCountEP19AudioSampleProvider
1327:__ZN11AudioModule32GetAudioSampleProviderSampleRateEP19AudioSampleProvider
1328:__ZN11AudioModule13IsMixerThreadEv
1329:__ZN11AudioModule13GetNumDevicesEv
1330:__ZN11AudioModule15IsAudioDisabledEv
1331:__ZNK12AudioManager13GetNumDevicesEv
1332:__ZN19AudioSampleProvider19ConsumeSampleFramesER13dynamic_arrayIfLm0EE
1333:__ZN19AudioSampleProvider23ExecuteSkipSampleFramesER13dynamic_arrayIfLm0EEm
1334:__ZN19AudioSampleProvider33ConsumeSampleFramesFromRingbufferEPfm
1335:__ZN20DiscontinuityHandler11ApplyFadeInER13dynamic_arrayIfLm0EE
1336:__ZN19AudioSampleProvider12ApplyFadeOutER13dynamic_arrayIfLm0EEmb
1337:__ZN20DiscontinuityHandler12ApplyFadeOutERK13dynamic_arrayIfLm0EEPf
1338:__ZL14GetFadeInCurvev
1339:__ZN13StreamHistory5ResetEv
1340:__ZZN19AudioSampleProvider33ConsumeSampleFramesFromRingbufferEPfmEN5Local12AddToHistoryER13StreamHistoryR22tuple_fixed_ringbufferIfEmZNS_33ConsumeSampleFramesFromRingbufferES0_mENS1_19HistoryAddBehaviourE
1341:__ZN13StreamHistory4CopyEPfmmm
1342:__ZNK13StreamHistory21OldestSampleChunkSizeEv
1343:__ZN13StreamHistory20PopOldestSampleChunkEv
1344:__ZN13StreamHistory18AcquireSampleChunkER13dynamic_arrayIfLm0EE
1345:__ZN13dynamic_arrayIS_IfLm0EELm0EE21resize_buffer_nocheckEm12ResizePolicy
1346:__ZN19AudioSampleProvider6ExistsEj
1347:__ZN19AudioSampleProvider7AcquireEjRNS_6HandleE
1348:__ZN12AudioManager26SetDefaultMicrophoneDriverEP9FMOD_GUID
1349:__ZN12AudioManager21SetActiveOutputDriverEP9FMOD_GUID
1350:__ZN17AudioCustomFilterC2EP13MonoBehaviour
1351:__ZN17AudioCustomFilter4InitEv
1352:__ZL22FMODDSPReleaseCallbackP14FMOD_DSP_STATE
1353:__ZL20SharedDataDeleterJobP21UnownedResourceHandleI17AudioCustomFilterE
1354:__ZN9AudioClip27IsFormatSupportedByPlatformERKN4core12basic_stringIcNS0_20StringStorageDefaultIcEEEE
1355:__ZN9AudioClip22GetFormatFromExtensionEN4core16basic_string_refIcEE
1356:__ZN9AudioClip16EnableLegacyModeEv
1357:__ZN9AudioClip10InitStreamEP10IWWWStreamPKcPvbb15FMOD_SOUND_TYPE
1358:__ZN9AudioClipC2E10MemLabelId18ObjectCreationMode
1359:__ZNK12AudioManager15GetDSPBlockSizeEv
1360:__ZNK12AudioManager16GetDSPSampleRateEv
1361:__ZNK12AudioManager11GetDSPClockEv
1362:__ZN12AudioManager6UpdateEv
1363:__ZN12AudioManager23ProcessScheduledSourcesEv
1364:__ZN12AudioManager11FixedUpdateEv
1365:__ZN12AudioManager19SetApplicationPauseEb
1366:__ZN12AudioManager16SetListenerPauseEb
1367:__Z18RegisterUnityClassI12AudioManagerEvPKc
1368:__Z18RegisterUnityClassI10SampleClipEvPKc
1369:__ZN13ProduceHelperI10SampleClipLb0EE7ProduceE10MemLabelId18ObjectCreationMode
1370:__ZN13ProduceHelperI12AudioManagerLb0EE7ProduceE10MemLabelId18ObjectCreationMode
1371:__ZN12AudioManagerC2E10MemLabelId18ObjectCreationMode
1372:_RegisterModule_Audio
1373:__Z22InitializeModule_Audiov
1374:__ZL19CleanupModule_Audiov
1375:__ZN4core20StringStorageDefaultIcE7replaceEmmPKcm
1376:__ZN13dynamic_arrayIfLm0EEC2Em10MemLabelId
1377:__ZN19AudioSampleProvider6RemoveEj
1378:__GLOBAL__sub_I_ClothScriptingClasses_cpp
1379:__GLOBAL__sub_I_Modules_Cloth_0_cpp
1380:___cxx_global_var_init_18
1381:__GLOBAL__sub_I_nvcloth_src_0_cpp
1382:__GLOBAL__sub_I_nvcloth_src_1_cpp
1383:__GLOBAL__sub_I_SwInterCollision_cpp
1384:__GLOBAL__sub_I_SwSolverKernel_cpp
1385:__ZN13RuntimeStaticI12ClothStaticsLb0EE16StaticInitializeEPv
1386:__ZN13RuntimeStaticI12ClothStaticsLb0EE13StaticDestroyEPv
1387:__ZN24StaticInitializeInternal13ConstructTypeI12ClothStaticsLb0EEEPvS2_10MemLabelId
1388:__ZN18ClothAssertHandlerclEPKcS1_iRb
1389:__ZN16ClothErrorStream11reportErrorEN5physx11PxErrorCode4EnumEPKcS4_i
1390:__ZN14ClothAllocator8allocateEmPKcS1_i
1391:__ZN14ClothAllocator10deallocateEPv
1392:__ZN9Scripting11UnityEngineL65__ManagedRegistrationHelperFunction_ClothSkinningCoefficientProxyEPv
1393:__ZN9Scripting11UnityEngineL64__ManagedRegistrationHelperFunction_ClothSphereColliderPairProxyEPv
1394:__ZN9Scripting11UnityEngine28ClothSphereColliderPairProxy9InitProxyEv
1395:__ZN9Scripting11UnityEngine28ClothSphereColliderPairProxy12CleanupProxyEv
1396:__ZN9Scripting11UnityEngine29ClothSkinningCoefficientProxy9InitProxyEv
1397:__ZN9Scripting11UnityEngine29ClothSkinningCoefficientProxy12CleanupProxyEv
1398:__ZN13dynamic_arrayI8Vector4fLm0EE4growEv
1399:__ZN5physx9PxBounds313transformFastERKNS_11PxTransformERKS0_
1400:__GLOBAL__sub_I_artifacts_WebGL_codegenerator_0_cpp
1401:__GLOBAL__sub_I_Runtime_GfxDevice_opengles_0_cpp
1402:__GLOBAL__sub_I_Runtime_VirtualFileSystem_0_cpp
1403:__GLOBAL__sub_I_Runtime_Input_0_cpp
1404:__GLOBAL__sub_I_GfxDeviceNull_cpp
1405:__GLOBAL__sub_I_External_ProphecySDK_BlitOperations_1_cpp
1406:__GLOBAL__sub_I_Runtime_2D_Renderer_0_cpp
1407:__GLOBAL__sub_I_Runtime_2D_Sorting_0_cpp
1408:__GLOBAL__sub_I_Runtime_2D_SpriteAtlas_0_cpp
1409:__GLOBAL__sub_I_Runtime_Allocator_2_cpp
1410:__GLOBAL__sub_I_Runtime_Application_0_cpp
1411:__GLOBAL__sub_I_Runtime_BaseClasses_0_cpp
1412:__GLOBAL__sub_I_Runtime_BaseClasses_1_cpp
1413:__GLOBAL__sub_I_Runtime_BaseClasses_2_cpp
1414:__GLOBAL__sub_I_Runtime_BaseClasses_3_cpp
1415:__GLOBAL__sub_I_Runtime_Burst_0_cpp
1416:__GLOBAL__sub_I_Runtime_Camera_0_cpp
1417:__GLOBAL__sub_I_Runtime_Camera_1_cpp
1418:__GLOBAL__sub_I_Runtime_Camera_2_cpp
1419:__GLOBAL__sub_I_Runtime_Camera_6_cpp
1420:__GLOBAL__sub_I_Runtime_Camera_7_cpp
1421:__GLOBAL__sub_I_Runtime_Camera_8_cpp
1422:__GLOBAL__sub_I_Shadows_cpp
1423:__GLOBAL__sub_I_Runtime_Camera_Culling_0_cpp
1424:__GLOBAL__sub_I_GUITexture_cpp
1425:__GLOBAL__sub_I_Runtime_Camera_RenderLoops_0_cpp
1426:__GLOBAL__sub_I_Runtime_Camera_RenderLoops_2_cpp
1427:__GLOBAL__sub_I_Runtime_Containers_0_cpp
1428:__GLOBAL__sub_I_Runtime_Core_Callbacks_0_cpp
1429:__GLOBAL__sub_I_Runtime_File_0_cpp
1430:__GLOBAL__sub_I_Runtime_Geometry_2_cpp
1431:__GLOBAL__sub_I_Runtime_Graphics_0_cpp
1432:___cxx_global_var_init_104
1433:__GLOBAL__sub_I_Runtime_Graphics_1_cpp
1434:__GLOBAL__sub_I_Runtime_Graphics_2_cpp
1435:__GLOBAL__sub_I_Runtime_Graphics_4_cpp
1436:__GLOBAL__sub_I_Runtime_Graphics_5_cpp
1437:__GLOBAL__sub_I_Runtime_Graphics_6_cpp
1438:__GLOBAL__sub_I_Runtime_Graphics_8_cpp
1439:__GLOBAL__sub_I_Runtime_Graphics_10_cpp
1440:__GLOBAL__sub_I_Runtime_Graphics_11_cpp
1441:__GLOBAL__sub_I_Runtime_Graphics_Billboard_0_cpp
1442:__GLOBAL__sub_I_Runtime_Graphics_CommandBuffer_0_cpp
1443:__GLOBAL__sub_I_Runtime_Graphics_LOD_0_cpp
1444:__GLOBAL__sub_I_Runtime_Graphics_Mesh_0_cpp
1445:__GLOBAL__sub_I_Runtime_Graphics_Mesh_1_cpp
1446:__GLOBAL__sub_I_Runtime_Graphics_Mesh_2_cpp
1447:__GLOBAL__sub_I_Runtime_Graphics_Mesh_4_cpp
1448:__GLOBAL__sub_I_Runtime_Graphics_Mesh_5_cpp
1449:__GLOBAL__sub_I_Runtime_Graphics_ScriptableRenderLoop_0_cpp
1450:__GLOBAL__sub_I_Runtime_Interfaces_0_cpp
1451:__GLOBAL__sub_I_Runtime_Interfaces_1_cpp
1452:__GLOBAL__sub_I_Runtime_Interfaces_2_cpp
1453:__GLOBAL__sub_I_Runtime_Jobs_0_cpp
1454:__GLOBAL__sub_I_Runtime_Jobs_1_cpp
1455:__GLOBAL__sub_I_Runtime_Jobs_Internal_1_cpp
1456:__GLOBAL__sub_I_Runtime_Jobs_ScriptBindings_0_cpp
1457:__GLOBAL__sub_I_Runtime_Math_2_cpp
1458:__GLOBAL__sub_I_Runtime_Math_Random_0_cpp
1459:__GLOBAL__sub_I_Runtime_Misc_0_cpp
1460:__GLOBAL__sub_I_Runtime_Misc_2_cpp
1461:___cxx_global_var_init_131
1462:__GLOBAL__sub_I_Runtime_Misc_4_cpp
1463:__GLOBAL__sub_I_Runtime_Misc_5_cpp
1464:__GLOBAL__sub_I_Runtime_PreloadManager_0_cpp
1465:__GLOBAL__sub_I_Runtime_Profiler_0_cpp
1466:__GLOBAL__sub_I_Runtime_Profiler_2_cpp
1467:__GLOBAL__sub_I_Runtime_Profiler_ExternalGPUProfiler_0_cpp
1468:__GLOBAL__sub_I_Runtime_Profiler_ScriptBindings_0_cpp
1469:__GLOBAL__sub_I_Runtime_SceneManager_0_cpp
1470:___cxx_global_var_init_7752
1471:__GLOBAL__sub_I_Runtime_Shaders_1_cpp
1472:__GLOBAL__sub_I_Runtime_Shaders_3_cpp
1473:__GLOBAL__sub_I_Runtime_Shaders_GpuPrograms_0_cpp
1474:___cxx_global_var_init_9
1475:__GLOBAL__sub_I_Runtime_Shaders_ShaderImpl_2_cpp
1476:___cxx_global_var_init_8909
1477:__GLOBAL__sub_I_Runtime_Transform_0_cpp
1478:__GLOBAL__sub_I_Runtime_Transform_1_cpp
1479:__GLOBAL__sub_I_Runtime_Utilities_2_cpp
1480:___cxx_global_var_init_9305
1481:__GLOBAL__sub_I_Runtime_Utilities_5_cpp
1482:__GLOBAL__sub_I_Runtime_Utilities_6_cpp
1483:__GLOBAL__sub_I_Runtime_Utilities_7_cpp
1484:__GLOBAL__sub_I_Runtime_Utilities_9_cpp
1485:__GLOBAL__sub_I_AssetBundleFileSystem_cpp
1486:__GLOBAL__sub_I_Runtime_Modules_0_cpp
1487:___cxx_global_var_init_18_1180
1488:___cxx_global_var_init_19
1489:___cxx_global_var_init_20
1490:__GLOBAL__sub_I_Modules_Profiler_Public_1_cpp
1491:__GLOBAL__sub_I_Modules_Profiler_Runtime_1_cpp
1492:__GLOBAL__sub_I_Runtime_Export_Unsafe_0_cpp
1493:__GLOBAL__sub_I_Runtime_GfxDevice_1_cpp
1494:__GLOBAL__sub_I_Runtime_GfxDevice_2_cpp
1495:__GLOBAL__sub_I_Runtime_GfxDevice_3_cpp
1496:__GLOBAL__sub_I_Runtime_GfxDevice_4_cpp
1497:__GLOBAL__sub_I_Runtime_GfxDevice_5_cpp
1498:__GLOBAL__sub_I_Runtime_PluginInterface_0_cpp
1499:__GLOBAL__sub_I_Runtime_Director_Core_1_cpp
1500:__GLOBAL__sub_I_Runtime_ScriptingBackend_Il2Cpp_0_cpp
1501:__GLOBAL__sub_I_Runtime_Scripting_0_cpp
1502:__GLOBAL__sub_I_Runtime_Scripting_2_cpp
1503:__GLOBAL__sub_I_Runtime_Scripting_3_cpp
1504:__GLOBAL__sub_I_Runtime_Mono_SerializationBackend_DirectMemoryAccess_0_cpp
1505:__GLOBAL__sub_I_Runtime_Mono_SerializationBackend_DirectMemoryAccess_1_cpp
1506:__GLOBAL__sub_I_TemplateInstantiations_cpp
1507:__GLOBAL__sub_I_Runtime_Scripting_APIUpdating_0_cpp
1508:__GLOBAL__sub_I_Runtime_Serialize_1_cpp
1509:__GLOBAL__sub_I_Runtime_Serialize_2_cpp
1510:__GLOBAL__sub_I_Runtime_Serialize_TransferFunctions_0_cpp
1511:__GLOBAL__sub_I_Runtime_Serialize_TransferFunctions_1_cpp
1512:__GLOBAL__sub_I_PlatformDependent_WebGL_Source_0_cpp
1513:__GLOBAL__sub_I_PlatformDependent_WebGL_Source_2_cpp
1514:__GLOBAL__sub_I_Mesh_cpp
1515:__GLOBAL__sub_I_LogAssert_cpp
1516:__GLOBAL__sub_I_Shader_cpp
1517:__GLOBAL__sub_I_PlatformDependent_WebGL_External_baselib_builds_Source_0_cpp
1518:__ZN9ShaderLab16FastPropertyName4InitEPKc
1519:__ZL19StaticDestroyShaderPv
1520:__ZN35RegisterRuntimeInitializeAndCleanupC2EPFvPvES2_iS0_
1521:__Z19free_alloc_internalPv10MemLabelIdPKci
1522:__ZN13MemoryManager16InitializeMemoryEv
1523:__ZN13MemoryManager10DeallocateEPv10MemLabelIdPKci
1524:__ZN13MemoryManager25GetAllocatorContainingPtrEPKv
1525:__ZN12TLSAllocator13TryDeallocateEPv
1526:__ZN14StackAllocator13TryDeallocateEPv
1527:__ZN13MemoryManagerC2Ev
1528:__ZN20DynamicHeapAllocatorC2EjbP15BucketAllocatorP24LowLevelVirtualAllocatorPKcb
1529:__ZN13MemoryManager17RegisterAllocatorEP13BaseAllocator
1530:__ZN13MemoryManager16LowLevelAllocateEmm
1531:_tlsf_create
1532:__ZN20DynamicHeapAllocatorD2Ev
1533:__ZN20DynamicHeapAllocatorD0Ev
1534:__ZN20DynamicHeapAllocator8AllocateEmi
1535:__ZN20DynamicHeapAllocator10ReallocateEPvmi
1536:__ZN20DynamicHeapAllocator10DeallocateEPv
1537:__ZN20DynamicHeapAllocator13TryDeallocateEPv
1538:__ZNK20DynamicHeapAllocator8ContainsEPKv
1539:__ZNK20DynamicHeapAllocator10GetPtrSizeEPKv
1540:__ZNK13BaseAllocator22GetAllocatedMemorySizeEv
1541:__ZNK13BaseAllocator21GetReservedMemorySizeEv
1542:__ZNK13BaseAllocator26GetPeakAllocatedMemorySizeEv
1543:__ZNK13BaseAllocator24GetBookKeepingMemorySizeEv
1544:__ZNK13BaseAllocator22GetNumberOfAllocationsEv
1545:__ZNK13BaseAllocator20GetFragmentationInfoEPii
1546:_tlsf_free
1547:__ZN20DynamicHeapAllocator10RemovePoolEPv
1548:_tlsf_remove_pool
1549:_tlsf_realloc_align_inplace
1550:__Z6FormatPKcz
1551:__Z17DebugStringToFileRK21DebugStringToFileData
1552:__Z40DebugStringToFilePostprocessedStacktraceRK21DebugStringToFileData
1553:__Z13GetStacktracei
1554:_printf_console
1555:__Z19WebGLPrintfConsolev7LogTypePKcPi
1556:__ZN14CallbackArray3IRK21DebugStringToFileData7LogTypebE6InvokeES2_S3_b
1557:__ZL20InternalErrorConsolePKcz
1558:__ZL21InternalAssertConsolePKcz
1559:__ZL22InternalWarningConsolePKcz
1560:__ZL18InternalLogConsolePKcz
1561:_tlsf_memalign
1562:_block_trim_used
1563:_block_locate_free
1564:_block_prepare_used
1565:__ZN20DynamicHeapAllocator14CreateTLSFPoolERm
1566:_tlsf_add_pool
1567:__ZdlPv
1568:__ZN13MemoryManager16VirtualAllocator17RegisterAllocatorEP13BaseAllocator
1569:__ZN13BaseAllocatorD2Ev
1570:__ZN13MemoryManager16VirtualAllocator18ReserveMemoryBlockEmN24LowLevelVirtualAllocator9BlockInfoE
1571:__ZN13MemoryManager16VirtualAllocator18ReleaseMemoryBlockEPvm
1572:__ZN13MemoryManager16VirtualAllocator12CommitMemoryEPvm
1573:__ZN13MemoryManager16VirtualAllocator14DecommitMemoryEPvm
1574:__ZN13MemoryManager16VirtualAllocator25GetMemoryBlockFromPointerEPKv
1575:__ZN13MemoryManager16VirtualAllocator23GetBlockInfoFromPointerEPKv
1576:__ZN12UnityClassic27Baselib_Memory_SetPageStateEPvyyNS_24Baselib_Memory_PageStateEPNS_18Baselib_ErrorStateE
1577:__ZL37Baselib_ErrorState_Validate_PageRangeyyyRKN12UnityClassic27Baselib_Memory_PageSizeInfoEPNS_18Baselib_ErrorStateE
1578:__ZN12UnityClassic27Baselib_Memory_ReleasePagesENS_29Baselib_Memory_PageAllocationEPNS_18Baselib_ErrorStateE
1579:__ZN12UnityClassic28Baselib_Memory_AllocatePagesEyyyNS_24Baselib_Memory_PageStateEPNS_18Baselib_ErrorStateE
1580:__ZN8PosixApiL28Baselib_Memory_AllocatePagesEyyyN12UnityClassic24Baselib_Memory_PageStateEPNS0_18Baselib_ErrorStateE
1581:__ZNK4core8hash_setINS_4pairIKPKciLb0EEENS_9hash_pairIN9ShaderLab23ConstCharPtrHashFunctorES4_iEENS_10equal_pairINS7_19ConstCharPtrEqualToES4_iEEE6lookupIS3_SC_EEPNSD_4nodeERKT_RKT0_
1582:__Z20IsVectorBuiltinParamPKcPi
1583:__Z20IsMatrixBuiltinParamPKcPi
1584:__Z20IsTexEnvBuiltinParamPKcPi
1585:__Z15malloc_internalmm10MemLabelId15AllocateOptionsPKci
1586:__ZN4core8hash_mapIPKciN9ShaderLab23ConstCharPtrHashFunctorENS3_19ConstCharPtrEqualToEE15insert_internalIS2_RKiEENS_4pairINS_8hash_setINSA_IKS2_iLb0EEENS_9hash_pairIS4_SC_iEENS_10equal_pairIS5_SC_iEEE13node_iteratorISD_EEbLb0EEEOT_OT0_
1587:__ZN20dynamic_array_detail18dynamic_array_data4growEmm
1588:__Z16realloc_internalPvmm10MemLabelId15AllocateOptionsPKci
1589:__ZN13MemoryManager10ReallocateEPvmm10MemLabelId15AllocateOptionsPKci
1590:__ZN13MemoryManager8AllocateEmm10MemLabelId15AllocateOptionsPKci
1591:__ZN13MemoryManager20WarnAdditionOverflowE15AllocateOptions
1592:__ZN13MemoryManager38ReallocateFallbackToAllocateDeallocateEPvmm10MemLabelId15AllocateOptionsPKci
1593:__ZN12TLSAllocator10ReallocateEPvmi
1594:__ZN14StackAllocator10ReallocateEPvmi
1595:__ZN12TLSAllocator8AllocateEmi
1596:__ZN13MemoryManager16OutOfMemoryErrorEmm10MemLabelIdPKci
1597:__Z12FormatBufferPciPKcz
1598:__ZN14StackAllocator8AllocateEmi
1599:__ZN12UnityClassic17Baselib_TLS_AllocEv
1600:__ZN19ThreadSpecificValueIiE15ReinitializeTLSEPv
1601:__ZN13RuntimeStaticI17UniqueIDGeneratorLb0EE16StaticInitializeEPv
1602:__ZN17RuntimeStaticBase5SetupEPKcS1_i
1603:__Z15strcpy_truncatePcPKcmm
1604:__ZN24StaticInitializeInternal13ConstructTypeI17UniqueIDGeneratorLb0EEEPvS2_10MemLabelId
1605:__ZN17RuntimeStaticBase14InitializeImplEmPFPvS0_10MemLabelIdE
1606:__ZN17UniqueIDGeneratorC2E10MemLabelId
1607:__ZN17MessageIdentifierC2EPKcNS_7OptionsEPKN5Unity4TypeES1_
1608:__ZL17InitializeMessagePv
1609:__ZN13dynamic_arrayIN5webgl23EmscriptenGamepadDeviceELm0EEC2Em10MemLabelId
1610:__ZN12_GLOBAL__N_116StaticInitializeEPv
1611:__ZN12_GLOBAL__N_113StaticDestroyEPv
1612:__ZN21SystemInfoStringCache16StaticInitializeEPv
1613:__ZN21SystemInfoStringCache13StaticDestroyEPv
1614:__Znwm10MemLabelIdmPKci
1615:__ZNSt3__26__treeINS_12__value_typeIN4core12basic_stringIcNS2_20StringStorageDefaultIcEEEE9PrefValueEENS_19__map_value_compareIS6_S8_NS_4lessIS6_EELb1EEENS_9allocatorIS8_EEE7destroyEPNS_11__tree_nodeIS8_PvEE
1616:__Znwm
1617:__ZL30InitializeGlobalNameConversionPv
1618:__ZL27CleanupGlobalNameConversionPv
1619:__ZNSt3__26__treeINS_12__value_typeINS_4pairIPcS3_EENS_3setIS3_15compare_tstringIPKcE13stl_allocatorIS3_L18MemLabelIdentifier43ELi16EEEEEENS_19__map_value_compareIS4_SE_20smaller_tstring_pairIS8_ELb1EEESA_ISE_LSB_43ELi16EEE7destroyEPNS_11__tree_nodeISE_PvEE
1620:__ZNSt3__26__treeIPc15compare_tstringIPKcE13stl_allocatorIS1_L18MemLabelIdentifier43ELi16EEE7destroyEPNS_11__tree_nodeIS1_PvEE
1621:__ZN13RuntimeStaticINSt3__23mapINS0_4pairIPcS3_EEPFbPvR14SafeBinaryReadE20smaller_tstring_pairIPKcE13stl_allocatorINS2_IKS4_S9_EEL18MemLabelIdentifier43ELi16EEEELb0EE16StaticInitializeES5_
1622:__ZN13RuntimeStaticINSt3__23mapINS0_4pairIPcS3_EEPFbPvR14SafeBinaryReadE20smaller_tstring_pairIPKcE13stl_allocatorINS2_IKS4_S9_EEL18MemLabelIdentifier43ELi16EEEELb0EE13StaticDestroyES5_
1623:__ZNSt3__26__treeINS_12__value_typeINS_4pairIPcS3_EEPFbPvR14SafeBinaryReadEEENS_19__map_value_compareIS4_SA_20smaller_tstring_pairIPKcELb1EEE13stl_allocatorISA_L18MemLabelIdentifier43ELi16EEE7destroyEPNS_11__tree_nodeISA_S5_EE
1624:__ZN13string_traitsIA20_cE8get_sizeERA20_Kc
1625:__ZN13string_traitsIA26_cE8get_sizeERA26_Kc
1626:__ZN13string_traitsIA21_cE8get_sizeERA21_Kc
1627:__ZN13string_traitsIA22_cE8get_sizeERA22_Kc
1628:__ZN13TypeTreeCacheL20OnRuntimeInitializedEPv
1629:__ZN13TypeTreeCacheL22OnRuntimeUninitializedEPv
1630:__ZN15TypeTreeQueriesL20OnRuntimeInitializedEPv
1631:__ZN15TypeTreeQueriesL22OnRuntimeUninitializedEPv
1632:__ZN15TypeTreeQueries5ResetEv
1633:__ZN14GfxDoubleCacheImy14GfxGenericHashImENSt3__28equal_toImEEN31GfxDoubleCacheConcurrencyPolicy11LocklessGetE42GfxDoubleCacheDefaultEmptyDeletedGeneratorImEL18MemLabelIdentifier83EE5ClearEv
1634:__ZN14GfxDoubleCacheImy14GfxGenericHashImENSt3__28equal_toImEEN31GfxDoubleCacheConcurrencyPolicy11LocklessGetE42GfxDoubleCacheDefaultEmptyDeletedGeneratorImEL18MemLabelIdentifier83EE4InitEv
1635:__ZN15dense_hashtableINSt3__24pairIKmyEEm14GfxGenericHashImEN14GfxDoubleCacheImyS5_NS0_8equal_toImEEN31GfxDoubleCacheConcurrencyPolicy11LocklessGetE42GfxDoubleCacheDefaultEmptyDeletedGeneratorImEL18MemLabelIdentifier83EE9SelectKeyES8_13stl_allocatorIS3_LSD_83ELi16EEE14squash_deletedEv
1636:__ZN15dense_hashtableINSt3__24pairIKmyEEm14GfxGenericHashImEN14GfxDoubleCacheImyS5_NS0_8equal_toImEEN31GfxDoubleCacheConcurrencyPolicy11LocklessGetE42GfxDoubleCacheDefaultEmptyDeletedGeneratorImEL18MemLabelIdentifier83EE9SelectKeyES8_13stl_allocatorIS3_LSD_83ELi16EEE9copy_fromERKSI_m
1637:_XXH32
1638:_XXH32_finalize
1639:__ZN13TypeTreeCache5ResetEv
1640:__ZN13TypeTreeCache18CachedTypeTreeData7ReleaseERS0_
1641:__ZN14GfxDoubleCacheIyN13TypeTreeCache18CachedTypeTreeDataENS0_13HashGeneratorENSt3__28equal_toIyEEN31GfxDoubleCacheConcurrencyPolicy11LocklessGetE42GfxDoubleCacheDefaultEmptyDeletedGeneratorIyEL18MemLabelIdentifier83EE7CleanupIPFvRS1_EEEvT_
1642:__ZN14GfxDoubleCacheIyN13TypeTreeCache18CachedTypeTreeDataENS0_13HashGeneratorENSt3__28equal_toIyEEN31GfxDoubleCacheConcurrencyPolicy11LocklessGetE42GfxDoubleCacheDefaultEmptyDeletedGeneratorIyEL18MemLabelIdentifier83EE4InitEv
1643:__ZN15dense_hashtableINSt3__24pairIKyN13TypeTreeCache18CachedTypeTreeDataEEEyNS3_13HashGeneratorEN14GfxDoubleCacheIyS4_S6_NS0_8equal_toIyEEN31GfxDoubleCacheConcurrencyPolicy11LocklessGetE42GfxDoubleCacheDefaultEmptyDeletedGeneratorIyEL18MemLabelIdentifier83EE9SelectKeyES9_13stl_allocatorIS5_LSE_83ELi16EEE14squash_deletedEv
1644:__ZN15dense_hashtableINSt3__24pairIKyN13TypeTreeCache18CachedTypeTreeDataEEEyNS3_13HashGeneratorEN14GfxDoubleCacheIyS4_S6_NS0_8equal_toIyEEN31GfxDoubleCacheConcurrencyPolicy11LocklessGetE42GfxDoubleCacheDefaultEmptyDeletedGeneratorIyEL18MemLabelIdentifier83EE9SelectKeyES9_13stl_allocatorIS5_LSE_83ELi16EEE9copy_fromERKSJ_m
1645:__ZN12UnityVersionC2EPKc
1646:__ZN11APIUpdating7CachingL20OnRuntimeInitializedEPv
1647:__ZN11APIUpdating7CachingL22OnRuntimeUninitializedEPv
1648:__ZN11APIUpdating7Caching5ResetEv
1649:__ZN15dense_hashtableINSt3__24pairIKN11APIUpdating7Caching6FQNKeyE17ScriptingClassPtrEES4_NS4_13HashGeneratorEN14GfxDoubleCacheIS4_S6_S8_NS0_8equal_toIS4_EEN31GfxDoubleCacheConcurrencyPolicy11LocklessGetENS4_12KeyGeneratorEL18MemLabelIdentifier116EE9SelectKeyESB_13stl_allocatorIS7_LSF_116ELi16EEE5clearEv
1650:__ZN15dense_hashtableINSt3__24pairIKN11APIUpdating7Caching6FQNKeyE17ScriptingClassPtrEES4_NS4_13HashGeneratorEN14GfxDoubleCacheIS4_S6_S8_NS0_8equal_toIS4_EEN31GfxDoubleCacheConcurrencyPolicy11LocklessGetENS4_12KeyGeneratorEL18MemLabelIdentifier116EE9SelectKeyESB_13stl_allocatorIS7_LSF_116ELi16EEED2Ev
1651:__ZN14GfxDoubleCacheI17ScriptingClassPtrS0_N11APIUpdating7Caching7TypeKey13HashGeneratorENS3_8EqualityEN31GfxDoubleCacheConcurrencyPolicy11LocklessGetENS3_12KeyGeneratorEL18MemLabelIdentifier116EE5ClearEv
1652:__ZN14GfxDoubleCacheIN11APIUpdating7Caching6FQNKeyE17ScriptingClassPtrNS2_13HashGeneratorENSt3__28equal_toIS2_EEN31GfxDoubleCacheConcurrencyPolicy11LocklessGetENS2_12KeyGeneratorEL18MemLabelIdentifier116EE4InitEv
1653:__ZN14GfxDoubleCacheI17ScriptingClassPtrS0_N11APIUpdating7Caching7TypeKey13HashGeneratorENS3_8EqualityEN31GfxDoubleCacheConcurrencyPolicy11LocklessGetENS3_12KeyGeneratorEL18MemLabelIdentifier116EE4InitEv
1654:__ZN15dense_hashtableINSt3__24pairIK17ScriptingClassPtrS2_EES2_N11APIUpdating7Caching7TypeKey13HashGeneratorEN14GfxDoubleCacheIS2_S2_S8_NS7_8EqualityEN31GfxDoubleCacheConcurrencyPolicy11LocklessGetENS7_12KeyGeneratorEL18MemLabelIdentifier116EE9SelectKeyESA_13stl_allocatorIS4_LSE_116ELi16EEE14squash_deletedEv
1655:__ZN15dense_hashtableINSt3__24pairIK17ScriptingClassPtrS2_EES2_N11APIUpdating7Caching7TypeKey13HashGeneratorEN14GfxDoubleCacheIS2_S2_S8_NS7_8EqualityEN31GfxDoubleCacheConcurrencyPolicy11LocklessGetENS7_12KeyGeneratorEL18MemLabelIdentifier116EE9SelectKeyESA_13stl_allocatorIS4_LSE_116ELi16EEE9copy_fromERKSJ_m
1656:__Z10CityHash64PKcm
1657:__ZL12HashLen0to16PKcm
1658:__ZN11APIUpdating7Caching6FQNKeyC2EPKcS3_S3_
1659:__ZN15dense_hashtableINSt3__24pairIKN11APIUpdating7Caching6FQNKeyE17ScriptingClassPtrEES4_NS4_13HashGeneratorEN14GfxDoubleCacheIS4_S6_S8_NS0_8equal_toIS4_EEN31GfxDoubleCacheConcurrencyPolicy11LocklessGetENS4_12KeyGeneratorEL18MemLabelIdentifier116EE9SelectKeyESB_13stl_allocatorIS7_LSF_116ELi16EEE13set_empty_keyERKS7_
1660:__ZN15dense_hashtableINSt3__24pairIKN11APIUpdating7Caching6FQNKeyE17ScriptingClassPtrEES4_NS4_13HashGeneratorEN14GfxDoubleCacheIS4_S6_S8_NS0_8equal_toIS4_EEN31GfxDoubleCacheConcurrencyPolicy11LocklessGetENS4_12KeyGeneratorEL18MemLabelIdentifier116EE9SelectKeyESB_13stl_allocatorIS7_LSF_116ELi16EEEC2ERKSK_m
1661:__ZN15dense_hashtableINSt3__24pairIKN11APIUpdating7Caching6FQNKeyE17ScriptingClassPtrEES4_NS4_13HashGeneratorEN14GfxDoubleCacheIS4_S6_S8_NS0_8equal_toIS4_EEN31GfxDoubleCacheConcurrencyPolicy11LocklessGetENS4_12KeyGeneratorEL18MemLabelIdentifier116EE9SelectKeyESB_13stl_allocatorIS7_LSF_116ELi16EEE4swapERSK_
1662:__ZN15dense_hashtableINSt3__24pairIKN11APIUpdating7Caching6FQNKeyE17ScriptingClassPtrEES4_NS4_13HashGeneratorEN14GfxDoubleCacheIS4_S6_S8_NS0_8equal_toIS4_EEN31GfxDoubleCacheConcurrencyPolicy11LocklessGetENS4_12KeyGeneratorEL18MemLabelIdentifier116EE9SelectKeyESB_13stl_allocatorIS7_LSF_116ELi16EEE9copy_fromERKSK_m
1663:__ZN15dense_hashtableINSt3__24pairIKN11APIUpdating7Caching6FQNKeyE17ScriptingClassPtrEES4_NS4_13HashGeneratorEN14GfxDoubleCacheIS4_S6_S8_NS0_8equal_toIS4_EEN31GfxDoubleCacheConcurrencyPolicy11LocklessGetENS4_12KeyGeneratorEL18MemLabelIdentifier116EE9SelectKeyESB_13stl_allocatorIS7_LSF_116ELi16EEE12expand_arrayEmN21dense_hash_map_traits17integral_constantIbLb0EEE
1664:__ZNK15dense_hashtableINSt3__24pairIKN11APIUpdating7Caching6FQNKeyE17ScriptingClassPtrEES4_NS4_13HashGeneratorEN14GfxDoubleCacheIS4_S6_S8_NS0_8equal_toIS4_EEN31GfxDoubleCacheConcurrencyPolicy11LocklessGetENS4_12KeyGeneratorEL18MemLabelIdentifier116EE9SelectKeyESB_13stl_allocatorIS7_LSF_116ELi16EEE12test_deletedERK30dense_hashtable_const_iteratorIS7_S4_S8_SH_SB_SJ_E
1665:__Z18CityHash64WithSeedPKcmy
1666:__ZNK15dense_hashtableINSt3__24pairIKN11APIUpdating7Caching6FQNKeyE17ScriptingClassPtrEES4_NS4_13HashGeneratorEN14GfxDoubleCacheIS4_S6_S8_NS0_8equal_toIS4_EEN31GfxDoubleCacheConcurrencyPolicy11LocklessGetENS4_12KeyGeneratorEL18MemLabelIdentifier116EE9SelectKeyESB_13stl_allocatorIS7_LSF_116ELi16EEE10test_emptyEm
1667:__Z50CreateTransferFunctionScriptingTraitsCacheInternalPv
1668:__Z49ClearTransferFunctionScriptingTraitsCacheInternalPv
1669:__Z41ClearTransferFunctionScriptingTraitsCachev
1670:__ZN13RuntimeStaticINSt3__23setIPFv17ScriptingClassPtrRN18SerializationCache4DataERbENS0_4lessIS8_EE13stl_allocatorIS8_L18MemLabelIdentifier43ELi16EEEELb0EE16StaticInitializeEPv
1671:__ZN13RuntimeStaticINSt3__23setIPFv17ScriptingClassPtrRN18SerializationCache4DataERbENS0_4lessIS8_EE13stl_allocatorIS8_L18MemLabelIdentifier43ELi16EEEELb0EE13StaticDestroyEPv
1672:__ZN18SerializationCacheL20OnRuntimeInitializedEPv
1673:__ZN18SerializationCacheL22OnRuntimeUninitializedEPv
1674:__ZN18SerializationCache5ResetEv
1675:__ZN18SerializationCache29DeleteCachedSerializationDataERNS_10CacheEntryE
1676:__ZN14GfxDoubleCacheIPvN18SerializationCache10CacheEntryENS1_21CommandsHashMapHasherENSt3__28equal_toIS0_EEN31GfxDoubleCacheConcurrencyPolicy11LocklessGetE42GfxDoubleCacheDefaultEmptyDeletedGeneratorIS0_EL18MemLabelIdentifier115EE7CleanupIPFvRS2_EEEvT_
1677:__ZN14GfxDoubleCacheIPvN18SerializationCache10CacheEntryENS1_21CommandsHashMapHasherENSt3__28equal_toIS0_EEN31GfxDoubleCacheConcurrencyPolicy11LocklessGetE42GfxDoubleCacheDefaultEmptyDeletedGeneratorIS0_EL18MemLabelIdentifier115EE4InitEv
1678:__ZN15dense_hashtableINSt3__24pairIKPvN18SerializationCache10CacheEntryEEES2_NS4_21CommandsHashMapHasherEN14GfxDoubleCacheIS2_S5_S7_NS0_8equal_toIS2_EEN31GfxDoubleCacheConcurrencyPolicy11LocklessGetE42GfxDoubleCacheDefaultEmptyDeletedGeneratorIS2_EL18MemLabelIdentifier115EE9SelectKeyESA_13stl_allocatorIS6_LSF_115ELi16EEE14squash_deletedEv
1679:__ZN15dense_hashtableINSt3__24pairIKPvN18SerializationCache10CacheEntryEEES2_NS4_21CommandsHashMapHasherEN14GfxDoubleCacheIS2_S5_S7_NS0_8equal_toIS2_EEN31GfxDoubleCacheConcurrencyPolicy11LocklessGetE42GfxDoubleCacheDefaultEmptyDeletedGeneratorIS2_EL18MemLabelIdentifier115EE9SelectKeyESA_13stl_allocatorIS6_LSF_115ELi16EEE9copy_fromERKSK_m
1680:__ZNSt3__26__treeIPFv17ScriptingClassPtrRN18SerializationCache4DataERbENS_4lessIS7_EE13stl_allocatorIS7_L18MemLabelIdentifier43ELi16EEE7destroyEPNS_11__tree_nodeIS7_PvEE
1681:__ZL45StaticInitScriptingManagedObjectProxyRegistryPv
1682:__ZL48StaticDestroyScriptingManagedObjectProxyRegistryPv
1683:__ZN20dynamic_array_detail18dynamic_array_data7reserveEmmm
1684:__ZL26StaticInitializeGCRecorderPv
1685:__ZL23StaticDestroyGCRecorderPv
1686:__ZN9profiling15ProfilerManager15DisposeRecorderEPNS_8RecorderE
1687:__ZN9profiling15ProfilerManager14CreateRecorderEPNS_6MarkerEb
1688:__ZN9profiling8Recorder10SetEnabledEb
1689:__ZN9profiling8Recorder14SampleCallbackEPK23UnityProfilerMarkerDescttPK23UnityProfilerMarkerDataPv
1690:__ZN13RuntimeStaticINSt3__23mapIN4core12basic_stringIcNS2_20StringStorageDefaultIcEEEEPvNS0_4lessIS6_EENS0_9allocatorINS0_4pairIKS6_S7_EEEEEELb0EE16StaticInitializeES7_
1691:__ZN13RuntimeStaticINSt3__23mapIN4core12basic_stringIcNS2_20StringStorageDefaultIcEEEEPvNS0_4lessIS6_EENS0_9allocatorINS0_4pairIKS6_S7_EEEEEELb0EE13StaticDestroyES7_
1692:__ZN13RuntimeStaticIN4core8hash_mapI17ScriptingClassPtr13dynamic_arrayIS2_Lm0EENS0_4hashIS2_EENSt3__28equal_toIS2_EEEELb1EE16StaticInitializeEPv
1693:__ZN13RuntimeStaticIN4core8hash_mapI17ScriptingClassPtr13dynamic_arrayIS2_Lm0EENS0_4hashIS2_EENSt3__28equal_toIS2_EEEELb1EE13StaticDestroyEPv
1694:__ZN13RuntimeStaticIN4core8hash_mapI17ScriptingClassPtrS2_NS0_4hashIS2_EENSt3__28equal_toIS2_EEEELb1EE16StaticInitializeEPv
1695:__ZN13RuntimeStaticIN4core8hash_mapI17ScriptingClassPtrS2_NS0_4hashIS2_EENSt3__28equal_toIS2_EEEELb1EE13StaticDestroyEPv
1696:__ZN13RuntimeStaticIN4core8hash_mapI17ScriptingClassPtriNS0_4hashIS2_EENSt3__28equal_toIS2_EEEELb1EE16StaticInitializeEPv
1697:__ZN13RuntimeStaticI19ScriptingAssembliesLb0EE16StaticInitializeEPv
1698:__ZN13RuntimeStaticI19ScriptingAssembliesLb0EE13StaticDestroyEPv
1699:__ZN9profiling6MarkerC2EtPKcNS0_5FlagsE
1700:__ZN9profiling15ProfilerManager14RegisterMarkerEPNS_6MarkerEb
1701:__ZN4core8hash_mapIN9profiling15ProfilerManager14MarkerFullNameEPNS1_6MarkerENS2_18MarkerFullNameHashENSt3__28equal_toIS3_EEE15insert_internalIS3_RKS5_EENS_4pairINS_8hash_setINSE_IKS3_S5_Lb0EEENS_9hash_pairIS6_SG_S5_EENS_10equal_pairIS9_SG_S5_EEE13node_iteratorISH_EEbLb0EEEOT_OT0_
1702:__ZN19dynamic_block_arrayIPN9profiling6MarkerELm1024EE4growEm
1703:__ZN4core8hash_setINS_4pairIKN9profiling15ProfilerManager14MarkerFullNameEPNS2_6MarkerELb0EEENS_9hash_pairINS3_18MarkerFullNameHashES5_S7_EENS_10equal_pairINSt3__28equal_toIS4_EES5_S7_EEE6resizeEi
1704:__ZN24StaticInitializeInternal13ConstructTypeI19ScriptingAssembliesLb0EEEPvS2_10MemLabelId
1705:__ZN24StaticInitializeInternal13ConstructTypeIN4core8hash_mapI17ScriptingClassPtriNS1_4hashIS3_EENSt3__28equal_toIS3_EEEELb1EEEPvSA_10MemLabelId
1706:__ZNSt3__26__treeINS_12__value_typeIN4core12basic_stringIcNS2_20StringStorageDefaultIcEEEEPvEENS_19__map_value_compareIS6_S8_NS_4lessIS6_EELb1EEENS_9allocatorIS8_EEE7destroyEPNS_11__tree_nodeIS8_S7_EE
1707:__ZL24ClearRegisteredCallbacksPv
1708:__ZN13RuntimeStaticI15DirectorManagerLb0EE16StaticInitializeEPv
1709:__ZN13RuntimeStaticI15DirectorManagerLb0EE13StaticDestroyEPv
1710:__ZN15DirectorManagerD2Ev
1711:__ZN15DirectorManager12CleanupClassEv
1712:__ZN15DirectorManager14ConnectionPool8DestructEv
1713:__ZNSt3__26__treeINS_12__value_typeIPvsEENS_19__map_value_compareIS2_S3_NS_4lessIS2_EELb1EEE13stl_allocatorIS3_L18MemLabelIdentifier93ELi16EEE7destroyEPNS_11__tree_nodeIS3_S2_EE
1714:__ZN15DirectorManager14ConnectionPool11ClearUnsafeEv
1715:__Z23DestroyMutexLockedStackP16MutexLockedStack
1716:__ZN24StaticInitializeInternal13ConstructTypeI15DirectorManagerLb0EEEPvS2_10MemLabelId
1717:__ZN15DirectorManagerC2Ev
1718:__ZN15DirectorManager15InitializeClassEv
1719:__ZZN15DirectorManager15InitializeClassEvEN43InitializationDirectorSampleTimeRegistrator7ForwardEv
1720:__ZZN15DirectorManager15InitializeClassEvEN45FixedUpdateDirectorFixedSampleTimeRegistrator7ForwardEv
1721:__ZZN15DirectorManager15InitializeClassEvEN41FixedUpdateDirectorFixedUpdateRegistrator7ForwardEv
1722:__ZZN15DirectorManager15InitializeClassEvEN52FixedUpdateDirectorFixedUpdatePostPhysicsRegistrator7ForwardEv
1723:__ZZN15DirectorManager15InitializeClassEvEN31UpdateDirectorUpdateRegistrator7ForwardEv
1724:__ZZN15DirectorManager15InitializeClassEvEN48PreLateUpdateDirectorDeferredEvaluateRegistrator7ForwardEv
1725:__ZZN15DirectorManager15InitializeClassEvEN43PostLateUpdateDirectorLateUpdateRegistrator7ForwardEv
1726:__ZZN15DirectorManager15InitializeClassEvEN44PostLateUpdateDirectorRenderImageRegistrator7ForwardEv
1727:__ZZN15DirectorManager15InitializeClassEvEN52PreLateUpdateDirectorUpdateAnimationBeginRegistrator7ForwardEv
1728:__ZZN15DirectorManager15InitializeClassEvEN50PreLateUpdateDirectorUpdateAnimationEndRegistrator7ForwardEv
1729:__ZZN15DirectorManager15InitializeClassEvEN42shutdownBeforeCleanupAllObjectsRegistrator7ForwardEv
1730:__ZZN15DirectorManager15InitializeClassEvEN32enterPlayModePreStartRegistrator7ForwardEv
1731:__ZN15DirectorManager14ConnectionPool14InitializePoolEmf
1732:__Z22CreateMutexLockedStackv
1733:__ZN17DirectorFrameTime14ResetDSPValuesEv
1734:__ZN15DirectorManager23ProcessPlayStateChangesEv
1735:__ZL18FlushGraphCommandsR13dynamic_arrayI16GraphCommandPairLm0EER16MutexLockedStack
1736:__ZN13PlayableGraph12PrepareFrameE16PrepareFrameTypedfyj21DirectorThreadContext
1737:__ZN13PlayableGraph27DispatchOutputNotificationsEv
1738:__ZN13PlayableGraph7DestroyEv
1739:__ZN17ScriptingGCHandle15ReleaseAndClearEv
1740:__ZN13PlayableGraph23DestroyPendingPlayablesEv
1741:__ZN13PlayableGraph8EvaluateEdyj
1742:__ZN19GraphCycleValidator5CheckERK13PlayableGraph
1743:__ZN14PlayableOutput25FireConnectionHashChangedEv
1744:__ZNK14PlayableOutput17GetSourcePlayableEv
1745:__ZN19GraphCycleValidator8TraverseERK8PlayableiRN4core8hash_setINSt3__24pairIPS1_iEENS_30PlayableOutputPortPairHashFuncENS5_8equal_toIS8_EEEE
1746:__ZN4core8hash_setINSt3__24pairIPK8PlayableiEEN19GraphCycleValidator30PlayableOutputPortPairHashFuncENS1_8equal_toIS6_EEE6insertIS6_EENS_4pairINSB_13node_iteratorIS6_EEbLb0EEEOT_
1747:__ZN20dynamic_array_detail18dynamic_array_data13resize_bufferEm12ResizePolicymm
1748:__ZN13PlayableGraph14DestroyOutputsEv
1749:__ZN8Playable6HandleEv
1750:__ZN8Playable16DisconnectInputsEPS_
1751:__ZN8Playable21DisconnectFromOutputsEPS_
1752:__ZN8Playable10DisconnectEPS_i
1753:__ZN8Playable20ClearInputConnectionEi
1754:__ZN15DirectorManager11AcquireNodeEv
1755:__ZN14PlayableOutput7DestroyEv
1756:__ZN15DirectorManager14FreeOutputNodeEP19HPlayableOutputNode
1757:__ZN13dynamic_arrayI25PlayableNotificationEntryLm0EE18resize_initializedEm12ResizePolicy
1758:__ZN13dynamic_arrayI25PlayableNotificationEntryLm0EE21resize_buffer_nocheckEm12ResizePolicy
1759:__ZN17ScriptingGCHandle7AcquireE18ScriptingObjectPtr25ScriptingGCHandleWeakness
1760:__ZN14PlayableOutput6HandleEv
1761:__ZN14PlayableOutput21DispatchNotificationsE15HPlayableOutput
1762:__ZN25PlayableNotificationEntryC2ERKS_
1763:__Z23GetCoreScriptingClassesv
1764:__Z30scripting_class_is_subclass_of17ScriptingClassPtrS_
1765:__ZNK10GameObject8IsActiveEv
1766:__ZN18ScriptingArguments9AddStructEPKv
1767:__ZN18ScriptingArguments9AddObjectE18ScriptingObjectPtr
1768:__ZN19ScriptingInvocation6InvokeEP21ScriptingExceptionPtrb
1769:__ZN14PlayableOutput22RemoveDeletedReceiversEv
1770:__Z23scripting_method_invoke18ScriptingMethodPtr18ScriptingObjectPtrR18ScriptingArgumentsP21ScriptingExceptionPtrb
1771:__ZN9Scripting32GetScriptingWrapperForInstanceIDEi
1772:__ZN9Scripting11UnityEngine10DebugProxy25CallOverridenDebugHandlerE18ScriptingObjectPtrNS0_11ObjectProxyEP21ScriptingExceptionPtr
1773:__ZN9Scripting11UnityEngine10DebugProxy16IsLoggingEnabledEP21ScriptingExceptionPtr
1774:__ZN9Scripting23LogExceptionFromManagedE21ScriptingExceptionPtriPKcb
1775:__Z30scripting_stack_trace_info_for21ScriptingExceptionPtrR14StackTraceInfo
1776:__ZN18ScriptingArguments12AddOutObjectEP18ScriptingObjectPtr
1777:__Z24scripting_cpp_string_for18ScriptingStringPtr
1778:__Z21PostprocessStacktracePKcRN4core12basic_stringIcNS1_20StringStorageDefaultIcEEEE
1779:__ZN4core5SplitENS_16basic_string_refIcEEcR13dynamic_arrayIS1_Lm0EEm
1780:__ZNK10FileSystem16CurrentDirectoryEv
1781:__Z14replace_stringRN4core12basic_stringIcNS_20StringStorageDefaultIcEEEENS_16basic_string_refIcEES6_m
1782:__ZN4core4TrimENS_16basic_string_refIcEEPKc
1783:__ZN13string_traitsIA28_cE8get_sizeERA28_Kc
1784:__ZN13string_traitsIA30_cE8get_sizeERA30_Kc
1785:__ZN4core13StringBuilder14UpdateWritePtrERPcb
1786:__Z9SplitImplIN4core16basic_string_refIcEEEvS2_cR13dynamic_arrayIT_Lm0EEm
1787:__Z18ConvertUTF16toUTF8PKtmPhRm
1788:__ZL30InitializeCoreScriptingClassesv
1789:__ZL27CleanupCoreScriptingClassesv
1790:__Z27SetupModuleScriptingClassesPFvvES0_
1791:__ZN19ScriptingInvocation6InvokeIbEET_P21ScriptingExceptionPtrb
1792:__Z12OptionalTypePKcS0_S0_
1793:__Z11RequireTypePKcS0_S0_
1794:__Z13RequireMethodPKcS0_S0_S0_
1795:__Z14OptionalMethodPKcS0_S0_S0_
1796:__ZN9Scripting9GetMethodE17ScriptingClassPtrPKc
1797:__Z36scripting_class_get_method_from_name17ScriptingClassPtrPKci
1798:__Z43scripting_class_get_method_from_name_filter17ScriptingClassPtrPKciN24ScriptingMethodFiltering18MethodSearchFilterEPK16ScriptingTypePtr
1799:__ZN24ScriptingMethodFiltering36MethodDescriptionMatchesSearchFilterENS_18MethodSearchFilterEbi
1800:__Z29scripting_class_from_fullnamePKcS0_S0_
1801:__Z32scripting_class_get_nested_types17ScriptingClassPtrRNSt3__26vectorIS_13stl_allocatorIS_L18MemLabelIdentifier1ELi16EEEE
1802:__ZNSt3__26vectorI17ScriptingClassPtr13stl_allocatorIS1_L18MemLabelIdentifier1ELi16EEE21__push_back_slow_pathIRKS1_EEvOT_
1803:__ZN11MonoManager17GetScriptingClassEPKcS1_S1_
1804:__ZNK4core8hash_setINS_4pairIKNS_12basic_stringIcNS_20StringStorageDefaultIcEEEEiLb1EEENS_9hash_pairINS_4hashIS5_EES6_iEENS_10equal_pairINSt3__28equal_toIS5_EES6_iEEE6lookupIS5_SG_EEPNSH_4nodeERKT_RKT0_
1805:__ZN9Scripting34ScriptingWrapperClassForNativeTypeEPKN5Unity4TypeE
1806:__Z33scripting_unity_engine_object_new17ScriptingClassPtrP6Object
1807:__ZN9Scripting31ConnectScriptingWrapperToObjectE18ScriptingObjectPtrP6Object
1808:__ZN19ScriptingInvocationC2E18ScriptingMethodPtr
1809:__ZN18ScriptingArgumentsC2Ev
1810:__ZN17ScriptingGCHandle13AcquireStrongE18ScriptingObjectPtr
1811:__ZN15DirectorManager17AcquireOutputNodeEv
1812:__ZN14PlayableOutput15PrepareTraverseERK9FrameDatai
1813:__ZN8Playable19PrepareFrameVisitorER19DirectorVisitorInfo
1814:__ZN25PreOrderPlayableTraverser8TraverseER19DirectorVisitorInfo
1815:__ZN13PlayableGraph18DisableMultithreadEv
1816:__ZN13PlayableGraph6HandleEv
1817:__ZN8Playable16ProcessPlayStateERK19DirectorVisitorInfo
1818:__ZN8Playable11PrepareDataERK19DirectorVisitorInfo
1819:__ZN15DirectorManager29CacheScriptingMethodsForClassE17ScriptingClassPtr
1820:__ZNK15DirectorManager16GetScriptMethodsEs
1821:__ZNK15PlayableMethods17InvokePrepareDataERK18ScriptingObjectPtrRK9HPlayableP18ScriptingFrameData
1822:__ZN9Scripting29GetFirstNonGenericParentClassE17ScriptingClassPtrS0_
1823:__ZN9Scripting21GetOverrideMethodOnlyEPKc17ScriptingClassPtrS2_
1824:__ZN8Playable16CallOnGraphStartEv
1825:__ZNK15PlayableMethods20InvokeBehaviourDelayERK18ScriptingObjectPtrRK9HPlayableP18ScriptingFrameData
1826:__ZNK15PlayableMethods19InvokeBehaviourPlayERK18ScriptingObjectPtrRK9HPlayableP18ScriptingFrameData
1827:__ZNK15PlayableMethods20InvokeBehaviourPauseERK18ScriptingObjectPtrRK9HPlayableP18ScriptingFrameData
1828:__ZN8Playable15CallOnGraphStopEv
1829:__ZNK15PlayableMethods17InvokeOnGraphStopERK18ScriptingObjectPtrRK9HPlayable
1830:__ZNK15PlayableMethods18InvokeOnGraphStartERK18ScriptingObjectPtrRK9HPlayable
1831:__ZN13dynamic_arrayI16GraphCommandPairLm0EE13clear_deallocEv
1832:__ZN13dynamic_arrayI16GraphCommandPairLm0EE9push_backERKS0_
1833:__ZN15DirectorManager20ExecutePrepareFramesE13DirectorStage
1834:__ZN15DirectorManager18RebuildProcessJobsEv
1835:__ZN15DirectorManager19RegisterProcessJobsEP13PlayableGraph
1836:__ZNSt3__26vectorI20ProcessCallbackGroupNS_9allocatorIS1_EEE21__push_back_slow_pathIRKS1_EEvOT_
1837:__ZN15DirectorManager23RebuildPrepareFrameJobsEv
1838:__ZL19PrepareFrameJobFuncP15PrepareFrameJobj
1839:__Z26ScheduleJobForEachInternalR8JobFencePFvPvjES1_iPFvS1_E11JobPriority
1840:__ZN13dynamic_arrayI15PrepareFrameJobLm0EE4growEv
1841:__ZN15DirectorManager22EvaluateDeferredGraphsEv
1842:__ZN15DirectorManager17OnSampleFixedTimeEv
1843:__ZN17DirectorFrameTime10SampleTimeEfffb
1844:__ZN17DirectorFrameTime21CalculateDSPDeltaTimeEv
1845:__ZN15DirectorManager12OnSampleTimeEv
1846:__ZN15DirectorManager14ConnectionPool16GrowEmptyBucketsEv
1847:__ZN15DirectorManager14ConnectionPool10CreateItemEi
1848:__ZL32StaticInitializeIUnityInterfacesPv
1849:__ZL29StaticCleanupIUnityInterfacesPv
1850:__ZL30StaticInitializeIUnityGraphicsPv
1851:__ZL30StaticInitializeIUnityProfilerPv
1852:__ZL39StaticInitializeIUnityProfilerCallbacksPv
1853:__ZL36StaticCleanupIUnityProfilerCallbacksPv
1854:__ZN13RuntimeStaticI13dynamic_arrayI22RenderingExtPluginDescLm0EELb0EE16StaticInitializeEPv
1855:__ZN13RuntimeStaticI13dynamic_arrayI19ShaderExtPluginDescLm0EELb0EE16StaticInitializeEPv
1856:__ZN13RuntimeStaticI37UnityShaderCompilerExtPluginConfigureLb0EE16StaticInitializeEPv
1857:__ZN24StaticInitializeInternal13ConstructTypeI37UnityShaderCompilerExtPluginConfigureLb0EEEPvS2_10MemLabelId
1858:__ZN37UnityShaderCompilerExtPluginConfigure14ReserveKeywordEPKc
1859:__ZN37UnityShaderCompilerExtPluginConfigure25SetGPUProgramCompilerMaskEj
1860:__ZN37UnityShaderCompilerExtPluginConfigure20SetShaderProgramMaskEj
1861:__ZN24ProfilerCallbacksHandlerD2Ev
1862:__ZN24ProfilerCallbacksHandler22CreateCategoryCallbackEtPv
1863:__ZN9profiling15ProfilerManager29UnregisterNewCategoryCallbackEPFvtPvES1_
1864:__ZN24ProfilerCallbacksHandler19CreateEventCallbackEPN9profiling6MarkerEPv
1865:__ZN9profiling15ProfilerManager27UnregisterNewMarkerCallbackEPFvPNS_6MarkerEPvES3_
1866:__ZN9profiling15ProfilerManager24UnregisterMarkerCallbackEPNS_6Marker8CallbackEPS1_
1867:__ZN24ProfilerCallbacksHandlerC2E10MemLabelId
1868:__Z34RegisterCreateCategoryCallbackImplPFvPK25UnityProfilerCategoryDescPvES2_
1869:__Z36UnregisterCreateCategoryCallbackImplPFvPK25UnityProfilerCategoryDescPvES2_
1870:__Z31RegisterCreateEventCallbackImplPFvPK23UnityProfilerMarkerDescPvES2_
1871:__Z33UnregisterCreateEventCallbackImplPFvPK23UnityProfilerMarkerDescPvES2_
1872:__Z25RegisterEventCallbackImplPK23UnityProfilerMarkerDescPFvS1_ttPK23UnityProfilerMarkerDataPvES5_
1873:__Z27UnregisterEventCallbackImplPK23UnityProfilerMarkerDescPFvS1_ttPK23UnityProfilerMarkerDataPvES5_
1874:__Z25RegisterFrameCallbackImplPFvPvES_
1875:__Z27UnregisterFrameCallbackImplPFvPvES_
1876:__Z32RegisterCreateThreadCallbackImplPFvPK23UnityProfilerThreadDescPvES2_
1877:__ZN9profiling15ProfilerManager26UnregisterNewFrameCallbackEPFvPvES1_
1878:__ZN9profiling15ProfilerManager24RegisterNewFrameCallbackEPFvPvES1_
1879:__ZN24ProfilerCallbacksHandler23UnregisterEventCallbackEPK23UnityProfilerMarkerDescPFvS2_ttPK23UnityProfilerMarkerDataPvES6_
1880:__ZN24ProfilerCallbacksHandler28RemoveCallbackFromAllMarkersEPFvPK23UnityProfilerMarkerDescttPK23UnityProfilerMarkerDataPvES6_R13dynamic_arrayINS_17EventCallbackDataELm0EE
1881:__ZN9profiling15ProfilerManager25RegisterNewMarkerCallbackEPFvPNS_6MarkerEPvES3_
1882:__ZN9profiling15ProfilerManager27RegisterNewCategoryCallbackEPFvtPvES1_
1883:__ZN24ProfilerCallbacksHandler13FrameCallbackEPv
1884:__Z13EmitEventImplPK23UnityProfilerMarkerDescttPK23UnityProfilerMarkerData
1885:__Z13IsEnabledImplv
1886:__Z16CreateMarkerImplPPK23UnityProfilerMarkerDescPKctti
1887:__Z25SetMarkerMetadataNameImplPK23UnityProfilerMarkerDesciPKchh
1888:__Z18RegisterThreadImplPyPKcS1_
1889:__Z20UnregisterThreadImply
1890:__ZN9profiling15ProfilerManager22SetMarkerMetadataParamEPNS_6MarkerEmRKN4core12basic_stringIcNS3_20StringStorageDefaultIcEEEEhh
1891:__ZN9profiling6Marker26AllocateMarkerMetadataDescER5MutexR22ForwardLinearAllocatorRKN4core12basic_stringIcNS5_20StringStorageDefaultIcEEEEhh
1892:__ZN22ForwardLinearAllocator8allocateEmm
1893:__Z22profiler_create_markerPKctN9profiling6Marker5FlagsE
1894:__ZN9profiling15ProfilerManager17GetOrCreateMarkerEtRKN4core12basic_stringIcNS1_20StringStorageDefaultIcEEEENS_6Marker5FlagsE
1895:__ZNK9profiling15ProfilerManager9GetMarkerEtN4core16basic_string_refIcEE
1896:__ZN9profiling6Marker14AllocateMarkerER5MutexR22ForwardLinearAllocatorjtN4core16basic_string_refIcEENS0_5FlagsE
1897:__ZNK4core8hash_setINS_4pairIKN9profiling15ProfilerManager14MarkerFullNameEPNS2_6MarkerELb0EEENS_9hash_pairINS3_18MarkerFullNameHashES5_S7_EENS_10equal_pairINSt3__28equal_toIS4_EES5_S7_EEE6lookupIS4_SG_EEPNSH_4nodeERKT_RKT0_
1898:__Z13profiler_emitPN9profiling6MarkerEtiPK18ProfilerMarkerData
1899:__ZL15GetRendererImplv
1900:__Z31RegisterDeviceEventCallbackImplPFv23UnityGfxDeviceEventTypeE
1901:__Z33UnregisterDeviceEventCallbackImplPFv23UnityGfxDeviceEventTypeE
1902:__ZL23ReserveEventIDRangeImpli
1903:__ZNSt3__26__treeINS_12__value_typeI18UnityInterfaceGUIDP15IUnityInterfaceEENS_19__map_value_compareIS2_S5_NS_4lessIS2_EELb1EEE13stl_allocatorIS5_L18MemLabelIdentifier10ELi16EEE7destroyEPNS_11__tree_nodeIS5_PvEE
1904:__ZL16GetInterfaceImpl18UnityInterfaceGUID
1905:__ZL21GetInterfaceSplitImplyy
1906:__ZL21RegisterInterfaceImpl18UnityInterfaceGUIDP15IUnityInterface
1907:__ZL26RegisterInterfaceSplitImplyyP15IUnityInterface
1908:__ZNSt3__26__treeINS_12__value_typeI18UnityInterfaceGUIDP15IUnityInterfaceEENS_19__map_value_compareIS2_S5_NS_4lessIS2_EELb1EEE13stl_allocatorIS5_L18MemLabelIdentifier10ELi16EEE25__emplace_unique_key_argsIS2_JNS_4pairIS2_S4_EEEEENSF_INS_15__tree_iteratorIS5_PNS_11__tree_nodeIS5_PvEElEEbEERKT_DpOT0_
1909:__ZN33InstancedMeshIntermediateRenderer16StaticInitializeEPv
1910:__ZN33InstancedMeshIntermediateRenderer13StaticDestroyEPv
1911:__ZN32IndirectMeshIntermediateRenderer16StaticInitializeEPv
1912:__ZN32IndirectMeshIntermediateRenderer13StaticDestroyEPv
1913:__ZN43InstancedProceduralMeshIntermediateRenderer16StaticInitializeEPv
1914:__ZN43InstancedProceduralMeshIntermediateRenderer13StaticDestroyEPv
1915:__ZN10MemoryPoolD2Ev
1916:__ZN10MemoryPoolC2E10MemLabelIdbPKciii
1917:__ZN13RuntimeStaticI17GfxVersionManagerLb0EE16StaticInitializeEPv
1918:__ZN13RuntimeStaticI17GfxVersionManagerLb0EE13StaticDestroyEPv
1919:__ZN13RuntimeStaticI21ScalableBufferManagerLb0EE13StaticDestroyEPv
1920:__ZN17GfxVersionManagerD2Ev
1921:__ZN17GfxVersionManager14GarbageCollectEy
1922:__Z23DestroyMutexLockedQueueP16MutexLockedQueue10MemLabelId
1923:__ZN14GfxVersionList4Impl14GarbageCollectEy
1924:__ZN14GfxVersionList4ImplD2Ev
1925:__ZN24StaticInitializeInternal13ConstructTypeI17GfxVersionManagerLb0EEEPvS2_10MemLabelId
1926:__Z22CreateMutexLockedQueue10MemLabelId
1927:__ZN13RuntimeStaticI16GeometryJobTasksLb1EE16StaticInitializeEPv
1928:__ZN13RuntimeStaticI16GeometryJobTasksLb1EE13StaticDestroyEPv
1929:__ZL25CleanupTextureIDGeneratorPv
1930:__ZN13HandleManager12ClearHandlesEv
1931:__ZN13HandleManagerC2Ev
1932:__ZN24StaticInitializeInternal13ConstructTypeI16GeometryJobTasksLb1EEEPvS2_10MemLabelId
1933:__ZN16GeometryJobTasksC2E10MemLabelId
1934:__Z19CleanupTextureIdMapPv
1935:__ZN21VersionedTextureIdMap7CleanupEv
1936:__ZN10InstancingL16RegisterCallbackEPv
1937:__ZN10InstancingL18UnregisterCallbackEPv
1938:__ZN10InstancingL21OnGraphicsCapsChangedEv
1939:__ZN13RuntimeStaticI19LinearAllocatorPoolLb0EE16StaticInitializeEPv
1940:__ZN13RuntimeStaticI19LinearAllocatorPoolLb0EE13StaticDestroyEPv
1941:__ZN19LinearAllocatorPoolD2Ev
1942:__ZN28BlockDoublingLinearAllocator6RewindEv
1943:__ZN28BlockDoublingLinearAllocatorD2Ev
1944:__ZN24StaticInitializeInternal13ConstructTypeI19LinearAllocatorPoolLb0EEEPvS2_10MemLabelId
1945:__ZN13string_traitsIA33_cE8get_sizeERA33_Kc
1946:__Z12StringToGUIDN4core16basic_string_refIcEE
1947:__ZN26FormatArgMapTypeHelperBaseImLb1EE18FormatArgFormatterERN4core12basic_stringIcNS1_20StringStorageDefaultIcEEEENS1_16basic_string_refIcEEPKPKv
1948:__ZN4core13FormatValueToERNS_12basic_stringIcNS_20StringStorageDefaultIcEEEERKmNS_16basic_string_refIcEE
1949:__Z14ParsePrecisionN4core16basic_string_refIcEEi
1950:__ZL18FormatIntAsDecimalImEvRN4core12basic_stringIcNS0_20StringStorageDefaultIcEEEEiT_
1951:__ZL16FormatIntAsFixedImEvRN4core12basic_stringIcNS0_20StringStorageDefaultIcEEEEiT_
1952:__ZL21FormatIntAsScientificImEvRN4core12basic_stringIcNS0_20StringStorageDefaultIcEEEEiibT_
1953:__ZL14FormatIntAsHexImEvRN4core12basic_stringIcNS0_20StringStorageDefaultIcEEEEibT_
1954:__ZL18FormatIntAsDecimalIiEvRN4core12basic_stringIcNS0_20StringStorageDefaultIcEEEEiT_
1955:__Z11StringToIntN4core16basic_string_refIcEE
1956:__ZN26FormatArgMapTypeHelperBaseIyLb0EE18FormatArgFormatterERN4core12basic_stringIcNS1_20StringStorageDefaultIcEEEENS1_16basic_string_refIcEEPKPKv
1957:__ZN4core13FormatValueToERNS_12basic_stringIcNS_20StringStorageDefaultIcEEEERKyNS_16basic_string_refIcEE
1958:__ZL18FormatIntAsDecimalIyEvRN4core12basic_stringIcNS0_20StringStorageDefaultIcEEEEiT_
1959:__ZL16FormatIntAsFixedIyEvRN4core12basic_stringIcNS0_20StringStorageDefaultIcEEEEiT_
1960:__ZL21FormatIntAsScientificIyEvRN4core12basic_stringIcNS0_20StringStorageDefaultIcEEEEiibT_
1961:__ZL14FormatIntAsHexIyEvRN4core12basic_stringIcNS0_20StringStorageDefaultIcEEEEibT_
1962:__ZN26FormatArgMapTypeHelperBaseIN4core12basic_stringIcNS0_20StringStorageDefaultIcEEEELb0EE18FormatArgFormatterERS4_NS0_16basic_string_refIcEEPKPKv
1963:__ZN13RuntimeStaticIN4core8hash_mapINS0_12basic_stringIcNS0_20StringStorageDefaultIcEEEEPvNS0_4hashIS5_EENSt3__28equal_toIS5_EEEELb0EE16StaticInitializeES6_
1964:__ZN13RuntimeStaticIN4core8hash_mapINS0_12basic_stringIcNS0_20StringStorageDefaultIcEEEEPvNS0_4hashIS5_EENSt3__28equal_toIS5_EEEELb0EE13StaticDestroyES6_
1965:__ZN13RuntimeStaticI13ModuleManagerLb0EE13StaticDestroyEPv
1966:__ZN24StaticInitializeInternal13ConstructTypeIN4core8hash_mapINS1_12basic_stringIcNS1_20StringStorageDefaultIcEEEEPvNS1_4hashIS6_EENSt3__28equal_toIS6_EEEELb0EEES7_S7_10MemLabelId
1967:__ZN12_GLOBAL__N_138ArchiveRedirectFileSystemStaticDestroyEPv
1968:__ZN10MemoryPool16StaticInitializeEPv
1969:__ZN10MemoryPool13StaticDestroyEPv
1970:__ZN13RuntimeStaticI14CallbackArray1IbELb0EE16StaticInitializeEPv
1971:__ZN23DefaultMeshVertexFormatC2E17ShaderChannelMask
1972:__ZN24StaticInitializeInternal13ConstructTypeI14CallbackArray1IbELb0EEEPvS3_10MemLabelId
1973:__ZN13RuntimeStaticI13dynamic_arrayIN4core12basic_stringIcNS1_20StringStorageDefaultIcEEEELm0EELb0EE16StaticInitializeEPv
1974:__ZN13RuntimeStaticI13dynamic_arrayIN4core12basic_stringIcNS1_20StringStorageDefaultIcEEEELm0EELb0EE13StaticDestroyEPv
1975:__Z15InitializeCRC32Pv
1976:__ZN5crc3215InitializeTableEv
1977:__ZN26FormatArgMapTypeHelperBaseIN4core16basic_string_refIcEELb0EE18FormatArgFormatterERNS0_12basic_stringIcNS0_20StringStorageDefaultIcEEEES2_PKPKv
1978:__ZN13RuntimeStaticINSt3__23setI19RepeatingLogMessageNS0_4lessIS2_EE13stl_allocatorIS2_L18MemLabelIdentifier79ELi16EEEELb0EE16StaticInitializeEPv
1979:__ZN13RuntimeStaticINSt3__23setI19RepeatingLogMessageNS0_4lessIS2_EE13stl_allocatorIS2_L18MemLabelIdentifier79ELi16EEEELb0EE13StaticDestroyEPv
1980:__ZNSt3__26__treeI19RepeatingLogMessageNS_4lessIS1_EE13stl_allocatorIS1_L18MemLabelIdentifier79ELi16EEE7destroyEPNS_11__tree_nodeIS1_PvEE
1981:__ZN13RuntimeStaticINSt3__28multimapIi25TransformAccessArrayEntryNS0_4lessIiEENS0_9allocatorINS0_4pairIKiS2_EEEEEELb0EE16StaticInitializeEPv
1982:__ZN13RuntimeStaticINSt3__28multimapIi25TransformAccessArrayEntryNS0_4lessIiEENS0_9allocatorINS0_4pairIKiS2_EEEEEELb0EE13StaticDestroyEPv
1983:__ZL36TransformAccessArray_InitializeClassPv
1984:__ZL33TransformAccessArray_CleanupClassPv
1985:__ZN32TransformHierarchyChangeDispatch15InitializeClassEPv
1986:__ZN32TransformHierarchyChangeDispatch12CleanupClassEPv
1987:__ZN32TransformHierarchyChangeDispatchD2Ev
1988:__ZN32TransformHierarchyChangeDispatchC2Ev
1989:__ZN32TransformHierarchyChangeDispatch16UnregisterSystemER36TransformHierarchyChangeSystemHandle
1990:__ZL29TransformAccessChangeCallbackPK15TransformAccessj
1991:__ZN32TransformHierarchyChangeDispatch14RegisterSystemEPKcNS_12InterestTypeEPFvPK15TransformAccessjE
1992:__ZL30TransformAccessDestroyCallbackPK15TransformAccessj
1993:__ZL28TransformAccessClearCallbackPK15TransformAccessj
1994:__ZL20PatchTransformAccessiRK15TransformAccessbb
1995:__ZN4core8hash_setIiNS_4hashIiEENSt3__28equal_toIiEEE6insertIRiEENS_4pairINS6_13node_iteratorIiEEbLb0EEEOT_
1996:__ZNSt3__26__treeINS_12__value_typeIi25TransformAccessArrayEntryEENS_19__map_value_compareIiS3_NS_4lessIiEELb1EEENS_9allocatorIS3_EEE7destroyEPNS_11__tree_nodeIS3_PvEE
1997:__ZN23TransformChangeDispatch15InitializeClassEPv
1998:__ZN23TransformChangeDispatch12CleanupClassEPv
1999:__ZN23TransformChangeDispatchD2Ev
2000:__ZN23TransformChangeDispatchC2Ev
2001:__ZN9ShaderLab19CommonPropertyNames16StaticInitializeEPv
2002:__ZN9ShaderLab19CommonPropertyNames13StaticCleanupEPv
2003:__ZN13RuntimeStaticIN4core12basic_stringIcNS0_20StringStorageDefaultIcEEEELb0EE16StaticInitializeEPv
2004:__ZN13RuntimeStaticIN4core12basic_stringIcNS0_20StringStorageDefaultIcEEEELb0EE13StaticDestroyEPv
2005:__ZN9ShaderLabL25StaticInitializeShaderLabEPv
2006:__ZN9ShaderLabL22StaticDestroyShaderLabEPv
2007:__ZNSt3__212__deque_baseIPN9ShaderLab21SerializedShaderStateE13stl_allocatorIS3_L18MemLabelIdentifier25ELi16EEE5clearEv
2008:__ZN8keywords7CleanupEv
2009:__ZN9shadertag7CleanupEv
2010:__ZNSt3__26__treeINS_12__value_typeIPKc11ShaderTagIDEENS_19__map_value_compareIS3_S5_27compare_tstring_insensitiveIS3_ELb1EEE13stl_allocatorIS5_L18MemLabelIdentifier25ELi16EEE7destroyEPNS_11__tree_nodeIS5_PvEE
2011:__ZN16ShaderKeywordMapD2Ev
2012:__ZN16ShaderKeywordMap6CreateEN4core16basic_string_refIcEE17ShaderKeywordType
2013:__ZNK16ShaderKeywordMap4FindEN4core16basic_string_refIcEE
2014:__ZNK16ShaderKeywordMap7GetNameEi
2015:__ZNK16ShaderKeywordMap14GetKeywordTypeEi
2016:__ZN16ShaderKeywordMap11SetCapacityEj
2017:__ZNK4core8hash_setINS_4pairIKNS_12basic_stringIcNS_20StringStorageDefaultIcEEEEN16ShaderKeywordMap18ShaderKeywordEntryELb1EEENS_9hash_pairINS_4hashIS5_EES6_S8_EENS_10equal_pairINSt3__28equal_toIS5_EES6_S8_EEE6lookupIS5_SI_EEPNSJ_4nodeERKT_RKT0_
2018:__ZN4core8hash_mapINS_12basic_stringIcNS_20StringStorageDefaultIcEEEEN16ShaderKeywordMap18ShaderKeywordEntryENS_4hashIS4_EENSt3__28equal_toIS4_EEE15insert_internalIS4_RKS6_EENS_4pairINS_8hash_setINSG_IKS4_S6_Lb1EEENS_9hash_pairIS8_SI_S6_EENS_10equal_pairISB_SI_S6_EEE13node_iteratorISJ_EEbLb0EEEOT_OT0_
2019:__ZN4core8hash_setINS_4pairIKNS_12basic_stringIcNS_20StringStorageDefaultIcEEEEN16ShaderKeywordMap18ShaderKeywordEntryELb1EEENS_9hash_pairINS_4hashIS5_EES6_S8_EENS_10equal_pairINSt3__28equal_toIS5_EES6_S8_EEE6resizeEi
2020:__ZN8keywords10InitializeEv
2021:__ZN9shadertag10InitializeEv
2022:__ZN9shadertag14GetShaderTagIDEPKci
2023:__Z7StrICmpPKcS0_
2024:__ZNSt3__26__treeINS_12__value_typeIPKc11ShaderTagIDEENS_19__map_value_compareIS3_S5_27compare_tstring_insensitiveIS3_ELb1EEE13stl_allocatorIS5_L18MemLabelIdentifier25ELi16EEE21__emplace_unique_implIJNS_4pairIPcS4_EEEEENSF_INS_15__tree_iteratorIS5_PNS_11__tree_nodeIS5_PvEElEEbEEDpOT_
2025:__ZN16ShaderKeywordMapC2Ejj
2026:__ZN21ShaderLocalKeywordMap6CreateEN4core16basic_string_refIcEE17ShaderKeywordType
2027:__ZN4core6detail14FormatInternalENS_16basic_string_refIcEERK10FormatArgs
2028:__Z27LogRepeatingStringWithFlagsRKN4core12basic_stringIcNS_20StringStorageDefaultIcEEEE15LogMessageFlagsi
2029:__ZNSt3__26__treeI19RepeatingLogMessageNS_4lessIS1_EE13stl_allocatorIS1_L18MemLabelIdentifier79ELi16EEE4findIS1_EENS_15__tree_iteratorIS1_PNS_11__tree_nodeIS1_PvEElEERKT_
2030:__ZNSt3__26__treeI19RepeatingLogMessageNS_4lessIS1_EE13stl_allocatorIS1_L18MemLabelIdentifier79ELi16EEE25__emplace_unique_key_argsIS1_JRKS1_EEENS_4pairINS_15__tree_iteratorIS1_PNS_11__tree_nodeIS1_PvEElEEbEERKT_DpOT0_
2031:__ZNSt3__26__treeI19RepeatingLogMessageNS_4lessIS1_EE13stl_allocatorIS1_L18MemLabelIdentifier79ELi16EEE12__find_equalIS1_EERPNS_16__tree_node_baseIPvEERPNS_15__tree_end_nodeISC_EERKT_
2032:__ZN4core6detail16FormatToInternalERNS_12basic_stringIcNS_20StringStorageDefaultIcEEEENS_16basic_string_refIcEERK10FormatArgs
2033:__ZN22ShaderGlobalKeywordMap6CreateEN4core16basic_string_refIcEE17ShaderKeywordType
2034:__ZNK22ShaderGlobalKeywordMap4FindEN4core16basic_string_refIcEE
2035:__ZNK22ShaderGlobalKeywordMap7GetNameEi
2036:__ZNK22ShaderGlobalKeywordMap14GetKeywordTypeEi
2037:__ZN22ShaderGlobalKeywordMap11SetCapacityEj
2038:__ZN24StaticInitializeInternal13ConstructTypeIN4core12basic_stringIcNS1_20StringStorageDefaultIcEEEELb0EEEPvS6_10MemLabelId
2039:__Z30CleanupBuiltinShaderParamNamesv
2040:__Z33InitializeBuiltinShaderParamNamesv
2041:__ZN13dynamic_arrayIN12_GLOBAL__N_114ParamNameIndexELm0EE21resize_buffer_nocheckEm12ResizePolicy
2042:__ZNSt3__26__sortIRNS_6__lessIN12_GLOBAL__N_114ParamNameIndexES3_EEPS3_EEvT0_S7_T_
2043:__ZNSt3__27__sort3IRNS_6__lessIN12_GLOBAL__N_114ParamNameIndexES3_EEPS3_EEjT0_S7_S7_T_
2044:__ZNSt3__27__sort4IRNS_6__lessIN12_GLOBAL__N_114ParamNameIndexES3_EEPS3_EEjT0_S7_S7_S7_T_
2045:__ZNSt3__27__sort5IRNS_6__lessIN12_GLOBAL__N_114ParamNameIndexES3_EEPS3_EEjT0_S7_S7_S7_S7_T_
2046:__ZNSt3__227__insertion_sort_incompleteIRNS_6__lessIN12_GLOBAL__N_114ParamNameIndexES3_EEPS3_EEbT0_S7_T_
2047:__ZN26FormatArgMapTypeHelperBaseIPKcLb1EE18FormatArgFormatterERN4core12basic_stringIcNS3_20StringStorageDefaultIcEEEENS3_16basic_string_refIcEEPKPKv
2048:__ZL22InitializeGlobalCBKeysPv
2049:__ZN13RuntimeStaticI12GraphicsCapsLb0EE16StaticInitializeEPv
2050:__ZN13RuntimeStaticI12GraphicsCapsLb0EE13StaticDestroyEPv
2051:__ZN13RuntimeStaticI12GraphicsCapsLb0EE7DestroyEv
2052:__ZN24StaticInitializeInternal13ConstructTypeI12GraphicsCapsLb0EEEPvS2_10MemLabelId
2053:__ZN12GraphicsCapsC2Ev
2054:__ZN13string_traitsIA43_cE8get_sizeERA43_Kc
2055:__Z7HasARGVN4core16basic_string_refIcEE
2056:__ZN4coreplIcEENS_12basic_stringIT_NS_20StringStorageDefaultIS2_EEEEPKS2_RKNS_16basic_string_refIS2_EE
2057:__ZN13string_traitsIA19_cE8get_sizeERA19_Kc
2058:__Z15StringToHash128N4core16basic_string_refIcEE
2059:__ZL35StaticInitializeRuntimeSceneManagerPv
2060:__ZL32StaticDestroyRuntimeSceneManagerPv
2061:__ZN19RuntimeSceneManagerC2E10MemLabelId
2062:__ZN10UnityScene14SetPathAndGUIDEN4core16basic_string_refIcEERK9UnityGUID
2063:__ZL32MarkLevelGameManagerDependenciesR27GarbageCollectorThreadState
2064:__ZL16SceneWasUnloadedi
2065:__ZL18ActiveSceneChangedP10UnitySceneS0_
2066:__Z20MarkInstanceIDAsRootiR27GarbageCollectorThreadState
2067:__Z24GetLastPathNameComponentN4core16basic_string_refIcEE
2068:__Z23DeletePathNameExtensionN4core16basic_string_refIcEE
2069:__ZN19RuntimeSceneManagerD2Ev
2070:__ZN19RuntimeSceneManagerD0Ev
2071:__ZN19RuntimeSceneManager8GetSceneEi
2072:__ZN19RuntimeSceneManager11MergeScenesER10UnitySceneS1_
2073:__ZN19RuntimeSceneManager11UnloadSceneEP10UnityScene18UnloadSceneOptions
2074:__ZN10UnityScene24OnGameObjectChangedSceneER10GameObjectPS_S2_
2075:__ZN10GameObject10DeactivateE19DeactivateOperation
2076:__ZN10GameObject8ActivateEv
2077:__ZN10GameObject32ActivateAwakeRecursivelyInternalE19DeactivateOperationR18AwakeFromLoadQueue
2078:__ZN18AwakeFromLoadQueue13AwakeFromLoadE17AwakeFromLoadModeb
2079:__ZL53SortBehaviourItemByExecutionOrderAndReverseInstanceIDRKN18AwakeFromLoadQueue4ItemES2_
2080:__ZNSt3__26__sortIRPFbRKN18AwakeFromLoadQueue4ItemES4_EPS2_EEvT0_S9_T_
2081:__ZNSt3__27__sort4IRPFbRKN18AwakeFromLoadQueue4ItemES4_EPS2_EEjT0_S9_S9_S9_T_
2082:__ZNSt3__218__insertion_sort_3IRPFbRKN18AwakeFromLoadQueue4ItemES4_EPS2_EEvT0_S9_T_
2083:__ZNSt3__227__insertion_sort_incompleteIRPFbRKN18AwakeFromLoadQueue4ItemES4_EPS2_EEbT0_S9_T_
2084:__ZNK21ExecutionOrderManager23GetScriptExecutionOrderEiPKN5Unity4TypeE
2085:__ZN18AwakeFromLoadQueue3AddER6ObjectPK8TypeTreeb17AwakeFromLoadMode
2086:__ZN10GameObject18UpdateActiveGONodeEv
2087:__ZN18AwakeFromLoadQueueC2E10MemLabelId
2088:__ZN19RuntimeSceneManager14CanUnloadSceneEP10UnityScene
2089:__ZN19RuntimeSceneManager19UnloadSceneInternalEP10UnityScene18UnloadSceneOptions
2090:__ZN10UnitySceneD2Ev
2091:__ZN19RuntimeSceneManager17SwitchActiveSceneEv
2092:__Z22DestroyObjectHighLevelP6Objectb
2093:__Z19DestroySingleObjectP6Object
2094:__Z31ReadObjectFromPersistentManageri
2095:__ZN17PersistentManager10ReadObjectEi17AwakeFromLoadMode
2096:__ZN17PersistentManager37RegisterPartiallyLoadedObjectInternalEi
2097:__ZN18AwakeFromLoadQueue34PersistentManagerAwakeSingleObjectER6Object17AwakeFromLoadMode
2098:__ZN17PersistentManager18ReadObjectThreadedEiNS_9LockFlagsE
2099:__ZN17PersistentManager38LoadAndIntegrateAllPreallocatedObjectsENS_9LockFlagsE
2100:__ZN17PersistentManager32LoadRemainingPreallocatedObjectsENS_9LockFlagsE
2101:__ZN17PersistentManager25ExtractAwakeFromLoadQueueER18AwakeFromLoadQueue
2102:__ZN18AwakeFromLoadQueue25RegisterObjectInstanceIDsEv
2103:__ZN18AwakeFromLoadQueue30PersistentManagerAwakeFromLoadEv
2104:__ZL20SortItemByInstanceIDRKN18AwakeFromLoadQueue4ItemES2_
2105:__ZN18AwakeFromLoadQueue28InvokePersistentManagerAwakeEPNS_4ItemEj17AwakeFromLoadModeb
2106:__ZN6Object24RegisterInstanceIDNoLockEPS_
2107:__ZN4core8hash_setINS_4pairIKiP6ObjectLb0EEENS_9hash_pairINS_4hashIiEES2_S4_EENS_10equal_pairINSt3__28equal_toIiEES2_S4_EEE6insertINS1_IiS4_Lb0EEEEENS1_INSF_13node_iteratorIS5_EEbLb0EEEOT_
2108:__ZN18AwakeFromLoadQueue7ReserveEj
2109:__ZN8Remapper38InstanceIDToSerializedObjectIdentifierEiR26SerializedObjectIdentifier
2110:__ZNSt3__26__sortIRNS_6__lessI14ObjectLoadDataS2_EEPS2_EEvT0_S6_T_
2111:__ZN17PersistentManager29ReadAndActivateObjectThreadedEiRK26SerializedObjectIdentifierP14SerializedFilebbNS_9LockFlagsE
2112:__ZN17PersistentManager26GetStreamNameSpaceInternalEi
2113:__ZNK14SerializedFile11IsAvailableEx
2114:__ZN17PersistentManager32CreateThreadActivationQueueEntryER14SerializedFile26SerializedObjectIdentifieribNS_9LockFlagsE
2115:__ZN14SerializedFile10ReadObjectEx18ObjectCreationModebPPK8TypeTreePbR6Object
2116:__ZN17PersistentManager23PostReadActivationQueueEiPK8TypeTreebNS_9LockFlagsE
2117:__ZN14SerializedFile14SerializedType21CompareAgainstNewTypeER6ObjectR13dynamic_arrayIS0_Lm0EE24TransferInstructionFlags
2118:__ZN14SerializedFile26BuildRefTypePoolIfRelevantEv
2119:__ZN13dynamic_arrayINSt3__24pairIy8TypeTreeEELm0EED2Ev
2120:__ZN14SafeBinaryRead4InitERK16TypeTreeIteratorN3VFS8FileSizeEx24TransferInstructionFlagsPv
2121:__ZN12CachedReader8InitReadER15CacheReaderBasemm
2122:__ZN12CachedReader3EndEv
2123:__ZL23OutOfBoundsReadingErrorPKN5Unity4TypeEmmR6Object
2124:__ZN8TypeTreeD2Ev
2125:__ZNK10MonoScript22GetScriptFullClassNameEv
2126:__ZN12CachedReader16OutOfBoundsErrorEmm
2127:__ZN8TypeTreeC2ERKS_
2128:__ZN14SafeBinaryReadC2Ev
2129:__ZN15TypeTreeQueries25GenerateTypeTreeSignatureERKN4core12basic_stringIcNS0_20StringStorageDefaultIcEEEES6_S6_
2130:__ZN13TypeTreeCache11GetTypeTreeEPK6Object24TransferInstructionFlagsR8TypeTree
2131:__ZN15TypeTreeQueries26IsStreamedBinaryCompatibleERK16TypeTreeIteratorS2_
2132:__ZN13TypeTreeCache11GetTypeTreeERKN4core12basic_stringIcNS0_20StringStorageDefaultIcEEEES6_S4_24TransferInstructionFlagsR8TypeTree
2133:__ZN11APIUpdating7Queries19ResolveTypeFromNameEPKcS2_S2_
2134:__ZN13TypeTreeCache11GetTypeTreeE17ScriptingClassPtr24TransferInstructionFlagsR8TypeTree
2135:__ZN8TypeTreeaSERKS_
2136:__ZN15TypeTreeQueries25GenerateTypeTreeSignatureERK17ScriptingClassPtr
2137:__ZN14GfxDoubleCacheIyN13TypeTreeCache18CachedTypeTreeDataENS0_13HashGeneratorENSt3__28equal_toIyEEN31GfxDoubleCacheConcurrencyPolicy11LocklessGetE42GfxDoubleCacheDefaultEmptyDeletedGeneratorIyEL18MemLabelIdentifier83EE4FindERKyRKS1_
2138:__Z20scripting_object_new17ScriptingClassPtr
2139:__ZN24GenerateTypeTreeTransfer13BeginTransferEPKcS1_Pc17TransferMetaFlags
2140:__Z23TransferScriptingObjectI24GenerateTypeTreeTransferEvRT_18ScriptingObjectPtr17ScriptingClassPtrPK15MonoScriptCache
2141:__ZN24GenerateTypeTreeTransfer11EndTransferEv
2142:__ZN14GfxDoubleCacheIyN13TypeTreeCache18CachedTypeTreeDataENS0_13HashGeneratorENSt3__28equal_toIyEEN31GfxDoubleCacheConcurrencyPolicy11LocklessGetE42GfxDoubleCacheDefaultEmptyDeletedGeneratorIyEL18MemLabelIdentifier83EE3SetERKyRKS1_
2143:__ZN15dense_hashtableINSt3__24pairIKyN13TypeTreeCache18CachedTypeTreeDataEEEyNS3_13HashGeneratorEN14GfxDoubleCacheIyS4_S6_NS0_8equal_toIyEEN31GfxDoubleCacheConcurrencyPolicy11LocklessGetE42GfxDoubleCacheDefaultEmptyDeletedGeneratorIyEL18MemLabelIdentifier83EE9SelectKeyES9_13stl_allocatorIS5_LSE_83ELi16EEE23find_or_insert_noresizeERKS5_
2144:__ZN19EndOfFrameCallbacks7EnqueueEP18EndOfFrameCallbackb
2145:__ZN15dense_hashtableINSt3__24pairIKyN13TypeTreeCache18CachedTypeTreeDataEEEyNS3_13HashGeneratorEN14GfxDoubleCacheIyS4_S6_NS0_8equal_toIyEEN31GfxDoubleCacheConcurrencyPolicy11LocklessGetE42GfxDoubleCacheDefaultEmptyDeletedGeneratorIyEL18MemLabelIdentifier83EE9SelectKeyES9_13stl_allocatorIS5_LSE_83ELi16EEE12resize_deltaEmm
2146:__ZN15dense_hashtableINSt3__24pairIKyN13TypeTreeCache18CachedTypeTreeDataEEEyNS3_13HashGeneratorEN14GfxDoubleCacheIyS4_S6_NS0_8equal_toIyEEN31GfxDoubleCacheConcurrencyPolicy11LocklessGetE42GfxDoubleCacheDefaultEmptyDeletedGeneratorIyEL18MemLabelIdentifier83EE9SelectKeyES9_13stl_allocatorIS5_LSE_83ELi16EEE15insert_noresizeERKS5_
2147:__ZN15dense_hashtableINSt3__24pairIKyN13TypeTreeCache18CachedTypeTreeDataEEEyNS3_13HashGeneratorEN14GfxDoubleCacheIyS4_S6_NS0_8equal_toIyEEN31GfxDoubleCacheConcurrencyPolicy11LocklessGetE42GfxDoubleCacheDefaultEmptyDeletedGeneratorIyEL18MemLabelIdentifier83EE9SelectKeyES9_13stl_allocatorIS5_LSE_83ELi16EEE12maybe_shrinkEv
2148:__ZN14DelayedDeletorI15dense_hashtableINSt3__24pairIKyN13TypeTreeCache18CachedTypeTreeDataEEEyNS4_13HashGeneratorEN14GfxDoubleCacheIyS5_S7_NS1_8equal_toIyEEN31GfxDoubleCacheConcurrencyPolicy11LocklessGetE42GfxDoubleCacheDefaultEmptyDeletedGeneratorIyEL18MemLabelIdentifier83EE9SelectKeyESA_13stl_allocatorIS6_LSF_83ELi16EEEEclEv
2149:__ZNK16TypeTreeIterator6FatherEv
2150:__Z23TransferScriptingObjectI24GenerateTypeTreeTransferLb0EEvRT_18ScriptingObjectPtr17ScriptingClassPtrRPN18SerializationCache4DataEP25ManagedReferencesRegistry
2151:__ZN18SerializationCache9FetchDataE17ScriptingClassPtr
2152:__ZN18SerializationCache13FetchCommandsEPNS_4DataERK24TransferRequestSignature
2153:__Z33BuildSerializationCommandQueueForRK34BuildSerializationCommandQueueArgsR32SerializationCommandQueueBuilderRP20AllowNameConversionsbPK18TransferField_Info
2154:__ZN15SerializeTraitsI25ManagedReferencesRegistryE8TransferI24GenerateTypeTreeTransferEEvRS0_RT_
2155:__ZN25ManagedReferencesRegistry39PerformDeferredDeserializationCallbacksE18ScriptingObjectPtr
2156:__ZN25ManagedReferencesRegistryD2Ev
2157:__ZNSt3__26__treeINS_12__value_typeIPviEENS_19__map_value_compareIS2_S3_NS_4lessIS2_EELb1EEENS_9allocatorIS3_EEE7destroyEPNS_11__tree_nodeIS3_S2_EE
2158:__ZN15SerializeTraitsI26RegisteredReferencedObjectILN24ReferencedObjectInstance12TransferHintE1EEE8TransferI24GenerateTypeTreeTransferEEvRS3_RT_
2159:__ZN15SerializeTraitsI21ReferencedManagedTypeE8TransferI24GenerateTypeTreeTransferEEvRS0_RT_
2160:__ZN15SerializeTraitsI20ReferencedObjectDataILN24ReferencedObjectInstance12TransferHintE1EEE8TransferI24GenerateTypeTreeTransferEEvRS3_RT_
2161:__ZN23ScriptingClassConverter8ToNativeE17ScriptingClassPtr
2162:__ZN24GenerateTypeTreeTransfer18BeginArrayTransferEPKcS1_Ri17TransferMetaFlags
2163:__ZN24GenerateTypeTreeTransfer16EndArrayTransferEv
2164:__ZN24GenerateTypeTreeTransfer5AlignEv
2165:__ZNK23ScriptingClassConverter9ToManagedEv
2166:__ZNK16TypeTreeIterator8ChildrenEv
2167:__ZNK16TypeTreeIterator4LastEv
2168:__ZN23ScriptingClassConverter9ToFullFQNE17ScriptingClassPtrRN4core12basic_stringIcNS1_20StringStorageDefaultIcEEEES6_S6_
2169:__ZL42EmitInvokeInterfaceMethodCommandIfRequired18ScriptingMethodPtr17ScriptingClassPtrS0_R32SerializationCommandQueueBuilderRK31TransferFunctionScriptingTraitsbb24SerializationCommandType
2170:__ZN9Scripting36IsSystemCollectionsGenericDictionaryE17ScriptingClassPtr
2171:__Z26scripting_class_get_fields17ScriptingClassPtrRNSt3__26vectorI17ScriptingFieldPtr13stl_allocatorIS2_L18MemLabelIdentifier1ELi16EEEE
2172:__Z25scripting_class_from_type16ScriptingTypePtr
2173:__Z19ShouldTransferFieldR32SerializationCommandQueueBuilder17ScriptingClassPtriR18TransferField_InfoRK20CoreScriptingClasses
2174:__Z33EmitSerializationCommandsForFieldRK34BuildSerializationCommandQueueArgsRK18TransferField_InfoR32SerializationCommandQueueBuilderRP20AllowNameConversions
2175:__ZN9Scripting30IsSystemCollectionsGenericListE17ScriptingClassPtr
2176:__ZL28SerializationCommandGroupForRK31TransferFunctionScriptingTraits17ScriptingClassPtr17ScriptingFieldPtrRK20CoreScriptingClasses
2177:__Z29scripting_field_has_attribute17ScriptingFieldPtr17ScriptingClassPtr
2178:__ZL29CanTransferTypeAsNestedObject17ScriptingClassPtr38ETransferTypeAsNestedObjectConstraints
2179:__ZN13dynamic_arrayI20SerializationCommandLm0EE4growEv
2180:__Z35scripting_class_get_field_from_name17ScriptingClassPtrPKc
2181:__Z6StrCmpPKcS0_
2182:__Z28scripting_class_is_interface17ScriptingClassPtr
2183:__ZN11MonoManager25GetAssemblyIndexFromImageE17ScriptingImagePtr
2184:__ZN9Scripting35ErrorMessageForUnsupportedEnumFieldE17ScriptingFieldPtr
2185:__ZN21LinearCollectionFieldC2ER17GeneralMonoObject17ScriptingFieldPtr
2186:__ZN9Scripting27BackingArrayFieldForListOfTE17ScriptingClassPtr
2187:__ZN9Scripting29RuntimeObjectInitLogExceptionE18ScriptingObjectPtr
2188:__Z41scripting_type_get_class_or_element_class16ScriptingTypePtr
2189:__ZN9Scripting12LogExceptionE21ScriptingExceptionPtriPKcb
2190:__Z25IsFieldSerializedInEditorRK17ScriptingFieldPtrRK16ScriptingTypePtrRK17ScriptingClassPtriiPKcRK20CoreScriptingClassesRb
2191:__ZN17MonoScriptManager17FindRuntimeScriptE17ScriptingClassPtr
2192:__Z35scripting_object_get_virtual_method18ScriptingObjectPtr18ScriptingMethodPtr
2193:__ZNK15dense_hashtableINSt3__24pairIKPvN18SerializationCache10CacheEntryEEES2_NS4_21CommandsHashMapHasherEN14GfxDoubleCacheIS2_S5_S7_NS0_8equal_toIS2_EEN31GfxDoubleCacheConcurrencyPolicy11LocklessGetE42GfxDoubleCacheDefaultEmptyDeletedGeneratorIS2_EL18MemLabelIdentifier115EE9SelectKeyESA_13stl_allocatorIS6_LSF_115ELi16EEE13find_positionERS3_
2194:__ZN18SerializationCache26BuildSerializationCacheForE17ScriptingClassPtr
2195:__ZN14GfxDoubleCacheIPvN18SerializationCache10CacheEntryENS1_21CommandsHashMapHasherENSt3__28equal_toIS0_EEN31GfxDoubleCacheConcurrencyPolicy11LocklessGetE42GfxDoubleCacheDefaultEmptyDeletedGeneratorIS0_EL18MemLabelIdentifier115EE6InsertERKS0_RKS2_
2196:__ZN15dense_hashtableINSt3__24pairIKPvN18SerializationCache10CacheEntryEEES2_NS4_21CommandsHashMapHasherEN14GfxDoubleCacheIS2_S5_S7_NS0_8equal_toIS2_EEN31GfxDoubleCacheConcurrencyPolicy11LocklessGetE42GfxDoubleCacheDefaultEmptyDeletedGeneratorIS2_EL18MemLabelIdentifier115EE9SelectKeyESA_13stl_allocatorIS6_LSF_115ELi16EEE23find_or_insert_noresizeERKS6_
2197:__ZN15dense_hashtableINSt3__24pairIKPvN18SerializationCache10CacheEntryEEES2_NS4_21CommandsHashMapHasherEN14GfxDoubleCacheIS2_S5_S7_NS0_8equal_toIS2_EEN31GfxDoubleCacheConcurrencyPolicy11LocklessGetE42GfxDoubleCacheDefaultEmptyDeletedGeneratorIS2_EL18MemLabelIdentifier115EE9SelectKeyESA_13stl_allocatorIS6_LSF_115ELi16EEE12resize_deltaEmm
2198:__ZN15dense_hashtableINSt3__24pairIKPvN18SerializationCache10CacheEntryEEES2_NS4_21CommandsHashMapHasherEN14GfxDoubleCacheIS2_S5_S7_NS0_8equal_toIS2_EEN31GfxDoubleCacheConcurrencyPolicy11LocklessGetE42GfxDoubleCacheDefaultEmptyDeletedGeneratorIS2_EL18MemLabelIdentifier115EE9SelectKeyESA_13stl_allocatorIS6_LSF_115ELi16EEE12maybe_shrinkEv
2199:__ZN14DelayedDeletorI15dense_hashtableINSt3__24pairIKPvN18SerializationCache10CacheEntryEEES3_NS5_21CommandsHashMapHasherEN14GfxDoubleCacheIS3_S6_S8_NS1_8equal_toIS3_EEN31GfxDoubleCacheConcurrencyPolicy11LocklessGetE42GfxDoubleCacheDefaultEmptyDeletedGeneratorIS3_EL18MemLabelIdentifier115EE9SelectKeyESB_13stl_allocatorIS7_LSG_115ELi16EEEEclEv
2200:__ZN18SerializationCache39WriteQueueForTransferSignatureIntoCacheERK31TransferFunctionScriptingTraitsRK24TransferRequestSignature17ScriptingClassPtrRNS_4DataERb
2201:__ZN13dynamic_arrayI12TypeTreeNodeLm0EE4growEv
2202:__ZN8TypeTree16AssignByteOffsetERK16TypeTreeIteratorj
2203:__ZN21TypeTreeShareableData12CreateStringERjPKc
2204:__ZNK17CommonStringTable16FindCommonStringEPKcm
2205:__ZN24GenerateTypeTreeTransferC2ER8TypeTree24TransferInstructionFlagsPvi
2206:__ZN8TypeTreeC2EP21TypeTreeShareableData10MemLabelId
2207:__ZNK15dense_hashtableINSt3__24pairIKmyEEm14GfxGenericHashImEN14GfxDoubleCacheImyS5_NS0_8equal_toImEEN31GfxDoubleCacheConcurrencyPolicy11LocklessGetE42GfxDoubleCacheDefaultEmptyDeletedGeneratorImEL18MemLabelIdentifier83EE9SelectKeyES8_13stl_allocatorIS3_LSD_83ELi16EEE13find_positionERS2_
2208:__ZN14GfxDoubleCacheImy14GfxGenericHashImENSt3__28equal_toImEEN31GfxDoubleCacheConcurrencyPolicy11LocklessGetE42GfxDoubleCacheDefaultEmptyDeletedGeneratorImEL18MemLabelIdentifier83EE3SetERKmRKy
2209:__ZN15dense_hashtableINSt3__24pairIKmyEEm14GfxGenericHashImEN14GfxDoubleCacheImyS5_NS0_8equal_toImEEN31GfxDoubleCacheConcurrencyPolicy11LocklessGetE42GfxDoubleCacheDefaultEmptyDeletedGeneratorImEL18MemLabelIdentifier83EE9SelectKeyES8_13stl_allocatorIS3_LSD_83ELi16EEE23find_or_insert_noresizeERKS3_
2210:__ZN15dense_hashtableINSt3__24pairIKmyEEm14GfxGenericHashImEN14GfxDoubleCacheImyS5_NS0_8equal_toImEEN31GfxDoubleCacheConcurrencyPolicy11LocklessGetE42GfxDoubleCacheDefaultEmptyDeletedGeneratorImEL18MemLabelIdentifier83EE9SelectKeyES8_13stl_allocatorIS3_LSD_83ELi16EEE12resize_deltaEmm
2211:__ZN15dense_hashtableINSt3__24pairIKmyEEm14GfxGenericHashImEN14GfxDoubleCacheImyS5_NS0_8equal_toImEEN31GfxDoubleCacheConcurrencyPolicy11LocklessGetE42GfxDoubleCacheDefaultEmptyDeletedGeneratorImEL18MemLabelIdentifier83EE9SelectKeyES8_13stl_allocatorIS3_LSD_83ELi16EEE12maybe_shrinkEv
2212:__ZN14DelayedDeletorI15dense_hashtableINSt3__24pairIKmyEEm14GfxGenericHashImEN14GfxDoubleCacheImyS6_NS1_8equal_toImEEN31GfxDoubleCacheConcurrencyPolicy11LocklessGetE42GfxDoubleCacheDefaultEmptyDeletedGeneratorImEL18MemLabelIdentifier83EE9SelectKeyES9_13stl_allocatorIS4_LSE_83ELi16EEEEclEv
2213:__ZN11APIUpdating7Caching15RefreshFQNCacheEv
2214:__ZN14GfxDoubleCacheIN11APIUpdating7Caching6FQNKeyE17ScriptingClassPtrNS2_13HashGeneratorENSt3__28equal_toIS2_EEN31GfxDoubleCacheConcurrencyPolicy11LocklessGetENS2_12KeyGeneratorEL18MemLabelIdentifier116EE4FindERKS2_RKS3_
2215:__ZN11APIUpdating7Queries38ResolvePotentialyRelocatedTypeInternalE17ScriptingClassPtrRN4core8hash_setIPvNS2_4hashIS4_EENSt3__28equal_toIS4_EEEE
2216:__ZNK15dense_hashtableINSt3__24pairIK17ScriptingClassPtrS2_EES2_N11APIUpdating7Caching7TypeKey13HashGeneratorEN14GfxDoubleCacheIS2_S2_S8_NS7_8EqualityEN31GfxDoubleCacheConcurrencyPolicy11LocklessGetENS7_12KeyGeneratorEL18MemLabelIdentifier116EE9SelectKeyESA_13stl_allocatorIS4_LSE_116ELi16EEE13find_positionERS3_
2217:__Z29scripting_class_has_attribute17ScriptingClassPtrS_
2218:__ZN11APIUpdating7Caching40GetClassRedirectionFromObsoleteAttributeE17ScriptingClassPtr
2219:__ZN14GfxDoubleCacheI17ScriptingClassPtrS0_N11APIUpdating7Caching7TypeKey13HashGeneratorENS3_8EqualityEN31GfxDoubleCacheConcurrencyPolicy11LocklessGetENS3_12KeyGeneratorEL18MemLabelIdentifier116EE3SetERKS0_SC_
2220:__ZN15dense_hashtableINSt3__24pairIK17ScriptingClassPtrS2_EES2_N11APIUpdating7Caching7TypeKey13HashGeneratorEN14GfxDoubleCacheIS2_S2_S8_NS7_8EqualityEN31GfxDoubleCacheConcurrencyPolicy11LocklessGetENS7_12KeyGeneratorEL18MemLabelIdentifier116EE9SelectKeyESA_13stl_allocatorIS4_LSE_116ELi16EEE23find_or_insert_noresizeERKS4_
2221:__ZN15dense_hashtableINSt3__24pairIK17ScriptingClassPtrS2_EES2_N11APIUpdating7Caching7TypeKey13HashGeneratorEN14GfxDoubleCacheIS2_S2_S8_NS7_8EqualityEN31GfxDoubleCacheConcurrencyPolicy11LocklessGetENS7_12KeyGeneratorEL18MemLabelIdentifier116EE9SelectKeyESA_13stl_allocatorIS4_LSE_116ELi16EEE12resize_deltaEmm
2222:__ZN15dense_hashtableINSt3__24pairIK17ScriptingClassPtrS2_EES2_N11APIUpdating7Caching7TypeKey13HashGeneratorEN14GfxDoubleCacheIS2_S2_S8_NS7_8EqualityEN31GfxDoubleCacheConcurrencyPolicy11LocklessGetENS7_12KeyGeneratorEL18MemLabelIdentifier116EE9SelectKeyESA_13stl_allocatorIS4_LSE_116ELi16EEE12maybe_shrinkEv
2223:__ZN14DelayedDeletorI15dense_hashtableINSt3__24pairIK17ScriptingClassPtrS3_EES3_N11APIUpdating7Caching7TypeKey13HashGeneratorEN14GfxDoubleCacheIS3_S3_S9_NS8_8EqualityEN31GfxDoubleCacheConcurrencyPolicy11LocklessGetENS8_12KeyGeneratorEL18MemLabelIdentifier116EE9SelectKeyESB_13stl_allocatorIS5_LSF_116ELi16EEEEclEv
2224:__Z38scripting_class_get_system_type_object17ScriptingClassPtr
2225:__ZN9Scripting11UnityEngine10_Scripting11APIUpdating29APIUpdaterRuntimeHelpersProxy26GetObsoleteTypeRedirectionE18ScriptingObjectPtrPS4_S5_S5_P21ScriptingExceptionPtr
2226:__ZNK15dense_hashtableINSt3__24pairIKN11APIUpdating7Caching6FQNKeyE17ScriptingClassPtrEES4_NS4_13HashGeneratorEN14GfxDoubleCacheIS4_S6_S8_NS0_8equal_toIS4_EEN31GfxDoubleCacheConcurrencyPolicy11LocklessGetENS4_12KeyGeneratorEL18MemLabelIdentifier116EE9SelectKeyESB_13stl_allocatorIS7_LSF_116ELi16EEE23find_position_with_hashERS5_m
2227:__ZNK15dense_hashtableINSt3__24pairIKN11APIUpdating7Caching6FQNKeyE17ScriptingClassPtrEES4_NS4_13HashGeneratorEN14GfxDoubleCacheIS4_S6_S8_NS0_8equal_toIS4_EEN31GfxDoubleCacheConcurrencyPolicy11LocklessGetENS4_12KeyGeneratorEL18MemLabelIdentifier116EE9SelectKeyESB_13stl_allocatorIS7_LSF_116ELi16EEE12test_deletedEm
2228:__Z25scripting_image_get_class17ScriptingImagePtri
2229:__ZN14GfxDoubleCacheIN11APIUpdating7Caching6FQNKeyE17ScriptingClassPtrNS2_13HashGeneratorENSt3__28equal_toIS2_EEN31GfxDoubleCacheConcurrencyPolicy11LocklessGetENS2_12KeyGeneratorEL18MemLabelIdentifier116EE3SetERKS2_RKS3_
2230:__ZN15dense_hashtableINSt3__24pairIKN11APIUpdating7Caching6FQNKeyE17ScriptingClassPtrEES4_NS4_13HashGeneratorEN14GfxDoubleCacheIS4_S6_S8_NS0_8equal_toIS4_EEN31GfxDoubleCacheConcurrencyPolicy11LocklessGetENS4_12KeyGeneratorEL18MemLabelIdentifier116EE9SelectKeyESB_13stl_allocatorIS7_LSF_116ELi16EEE23find_or_insert_noresizeERKS7_
2231:__ZN15dense_hashtableINSt3__24pairIKN11APIUpdating7Caching6FQNKeyE17ScriptingClassPtrEES4_NS4_13HashGeneratorEN14GfxDoubleCacheIS4_S6_S8_NS0_8equal_toIS4_EEN31GfxDoubleCacheConcurrencyPolicy11LocklessGetENS4_12KeyGeneratorEL18MemLabelIdentifier116EE9SelectKeyESB_13stl_allocatorIS7_LSF_116ELi16EEE12resize_deltaEmm
2232:__ZN15dense_hashtableINSt3__24pairIKN11APIUpdating7Caching6FQNKeyE17ScriptingClassPtrEES4_NS4_13HashGeneratorEN14GfxDoubleCacheIS4_S6_S8_NS0_8equal_toIS4_EEN31GfxDoubleCacheConcurrencyPolicy11LocklessGetENS4_12KeyGeneratorEL18MemLabelIdentifier116EE9SelectKeyESB_13stl_allocatorIS7_LSF_116ELi16EEE15insert_noresizeERKS7_
2233:__ZN14DelayedDeletorI15dense_hashtableINSt3__24pairIKN11APIUpdating7Caching6FQNKeyE17ScriptingClassPtrEES5_NS5_13HashGeneratorEN14GfxDoubleCacheIS5_S7_S9_NS1_8equal_toIS5_EEN31GfxDoubleCacheConcurrencyPolicy11LocklessGetENS5_12KeyGeneratorEL18MemLabelIdentifier116EE9SelectKeyESC_13stl_allocatorIS8_LSG_116ELi16EEEEclEv
2234:__ZNK16TypeTreeIterator4NameEv
2235:__ZNK16TypeTreeIterator4TypeEv
2236:__ZNK16TypeTreeIterator4NextEv
2237:__ZN15TypeTreeQueries25GenerateTypeTreeSignatureE24TransferInstructionFlagsRK6Object
2238:__ZN8TypeTreeC2E10MemLabelId
2239:__ZN13dynamic_arrayI12TypeTreeNodeLm0EEC2Em10MemLabelId
2240:__ZN17PersistentManager13ProduceObjectER14SerializedFile26SerializedObjectIdentifieri18ObjectCreationModeNS_9LockFlagsE
2241:__ZN4core8hash_mapIi17ThreadedAwakeDataNS_4hashIiEENSt3__28equal_toIiEEE15insert_internalIRKiRKS1_EENS_4pairINS_8hash_setINSD_IS9_S1_Lb0EEENS_9hash_pairIS3_S9_S1_EENS_10equal_pairIS6_S9_S1_EEE13node_iteratorISF_EEbLb0EEEOT_OT0_
2242:__ZN4core8hash_setINS_4pairIKi17ThreadedAwakeDataLb0EEENS_9hash_pairINS_4hashIiEES2_S3_EENS_10equal_pairINSt3__28equal_toIiEES2_S3_EEE6resizeEi
2243:__ZN14SerializedFile14GetProduceDataExRPKN5Unity4TypeER31LocalSerializedObjectIdentifierR10MemLabelId
2244:__ZN6Object7ProduceEPKN5Unity4TypeES3_i10MemLabelId18ObjectCreationMode
2245:__ZN17PersistentManager43LocalSerializedObjectIdentifierToInstanceIDEiRK31LocalSerializedObjectIdentifierRiNS_9LockFlagsE
2246:__ZN17PersistentManager22GetFromActivationQueueEiNS_9LockFlagsE
2247:__ZN22SerializableManagedRef19RebuildMonoInstanceEP6Object17ScriptingClassPtr18ScriptingObjectPtrP10MonoScript
2248:__ZN22SerializableManagedRef19SetupScriptingCacheEP6Object17ScriptingClassPtrP10MonoScript
2249:__Z64scripting_unity_engine_object_new_and_invoke_default_constructor17ScriptingClassPtrP6ObjectP21ScriptingExceptionPtr
2250:__ZNK22SerializableManagedRef22GetScriptFullClassNameEv
2251:__ZN9Scripting12LogExceptionE21ScriptingExceptionPtrP6ObjectPKcb
2252:__Z27FindOrCreateMonoScriptCache17ScriptingClassPtr22InitScriptingCacheTypeP6Objecti
2253:__ZN16ScriptingManager18GetMonoScriptCacheEl
2254:__Z18BuildScriptClassId17ScriptingClassPtr
2255:__Z21CreateMonoScriptCacheRKN4core12basic_stringIcNS_20StringStorageDefaultIcEEEE17ScriptingClassPtr22InitScriptingCacheTypeP6Objecti
2256:__ZN18IManagedObjectHost52IsScriptingClassDerivatingFromAManagedComponentClassE17ScriptingClassPtr
2257:__Z27scripting_class_get_methods17ScriptingClassPtrRNSt3__26vectorI18ScriptingMethodPtr13stl_allocatorIS2_L18MemLabelIdentifier1ELi16EEEE
2258:__ZN4core8hash_setINS_4pairIKNS_16basic_string_refIcEE18ScriptingMethodPtrLb0EEENS_9hash_pairINS_4hashIS3_EES4_S5_EENS_10equal_pairINSt3__28equal_toIS3_EES4_S5_EEE6resizeEi
2259:__ZN4core8hash_mapINS_16basic_string_refIcEE18ScriptingMethodPtrNS_4hashIS2_EENSt3__28equal_toIS2_EEEixERKS2_
2260:__ZNK4core8hash_setINS_4pairIKNS_16basic_string_refIcEE18ScriptingMethodPtrLb0EEENS_9hash_pairINS_4hashIS3_EES4_S5_EENS_10equal_pairINSt3__28equal_toIS3_EES4_S5_EEE6lookupIS3_SF_EEPNSG_4nodeERKT_RKT0_
2261:__ZN16ScriptingManager27NativeTypeForScriptingClassE17ScriptingClassPtr
2262:__ZN9Scripting25GetTypeFromScriptingClassE17ScriptingClassPtr
2263:__ZN23ManagedAttributeManager24GetDefaultExecutionOrderE17ScriptingClassPtr
2264:__ZN21AttributeScannerQuery24UpdateAttributeUsageInfoEj
2265:__ZN16AttributeScannerC2E17ScriptingClassPtrRK21AttributeScannerQuery10MemLabelId
2266:__ZN16AttributeScanner4NextEv
2267:__ZN23AttributeCollectionInfo28AllocAttributesArrayIfNeededEv
2268:__ZN23AttributeCollectionInfo20GetAttributeObjectAtEi
2269:__ZN16AttributeScannerD2Ev
2270:__ZN9Scripting34GetScriptingArrayObjectElementImplE17ScriptingArrayPtri
2271:__Z26scripting_class_has_parent17ScriptingClassPtrS_
2272:__Z33scripting_custom_attrs_from_class17ScriptingClassPtr
2273:__Z31scripting_custom_attrs_has_attrP20Il2CppCustomAttrInfo17ScriptingClassPtr
2274:__ZN5Unity4Type14FindTypeByNameEPKcNS0_22CaseSensitivityOptionsE
2275:__ZNK11TypeManager15ClassNameToRTTIEPKcb
2276:__Z33RenderImageFilterValidateCallback18ScriptingMethodPtr17ScriptingClassPtrP6Object
2277:__Z31AudioFilterReadValidateCallback18ScriptingMethodPtr17ScriptingClassPtrP6Object
2278:__Z21CheckMethodParameters18ScriptingMethodPtr17ScriptingClassPtrPS0_jP6ObjectR11MonoManager
2279:__ZL23InitializeAncestorCachev
2280:__ZL20CleanupAncestorCachev
2281:__ZN18IManagedObjectHost39FindOldestAncestorExtendingANativeClassE17ScriptingClassPtr
2282:__ZN4core8hash_mapIPv17ScriptingClassPtrNS_4hashIS1_EENSt3__28equal_toIS1_EEE15insert_internalIRKS1_RKS2_EENS_4pairINS_8hash_setINSE_ISA_S2_Lb0EEENS_9hash_pairIS4_SA_S2_EENS_10equal_pairIS7_SA_S2_EEE13node_iteratorISG_EEbLb0EEEOT_OT0_
2283:__ZL18ClearAncestorCachev
2284:__Z26GetScriptClassIdComponents17ScriptingClassPtrRN4core17string_with_labelILi1EcEES3_S3_
2285:__ZL21AppendNestedClassName17ScriptingClassPtrRN4core17string_with_labelILi1EcEE
2286:__ZN8Remapper23GetOrGenerateInstanceIDERK26SerializedObjectIdentifier
2287:__ZN17PersistentManager25PreallocateObjectThreadedEiNS_9LockFlagsE
2288:__ZN25DiagnosticsUtils_Bindings10ForceCrashENS_19ForcedCrashCategoryEP21ScriptingExceptionPtr
2289:__ZN4core8hash_mapIi26SerializedObjectIdentifierNS_4hashIiEENSt3__28equal_toIiEEE15insert_internalIRKiRKS1_EENS_4pairINS_8hash_setINSD_IS9_S1_Lb0EEENS_9hash_pairIS3_S9_S1_EENS_10equal_pairIS6_S9_S1_EEE13node_iteratorISF_EEbLb0EEEOT_OT0_
2290:__ZN4core8hash_setINS_4pairIKi26SerializedObjectIdentifierLb0EEENS_9hash_pairINS_4hashIiEES2_S3_EENS_10equal_pairINSt3__28equal_toIiEES2_S3_EEE6resizeEi
2291:__ZN9Scripting23CreateArgumentExceptionEPKcz
2292:__ZL34CreateManagedExceptionCommonValistPKcS0_S0_Pi
2293:__ZN17PersistentManager19RemapToAbsolutePathERKN4core12basic_stringIcNS0_20StringStorageDefaultIcEEEE
2294:__Z13IsFileCreatedN4core16basic_string_refIcEE
2295:__ZN14SerializedFile14InitializeReadERKN4core12basic_stringIcNS0_20StringStorageDefaultIcEEEER18ResourceImageGroupmb24TransferInstructionFlagsN3VFS8FileSizeESB_
2296:__ZN14SerializedFile7ReleaseEv
2297:__ZN17PersistentManager31PostLoadStreamNameSpaceInternalER15StreamNameSpacei
2298:__ZNSt3__26vectorINS_4pairIiiEE13stl_allocatorIS2_L18MemLabelIdentifier43ELi16EEE6insertENS_11__wrap_iterIPKS2_EEOS2_
2299:__ZNSt3__214__split_bufferINS_4pairIiiEER13stl_allocatorIS2_L18MemLabelIdentifier43ELi16EEE9push_backEOS2_
2300:__ZN14SerializedFileD2Ev
2301:__ZN18ResourceImageGroup7CleanupEv
2302:__ZN19dynamic_block_arrayI14FileIdentifierLm64EE13clear_deallocEv
2303:__ZN13dynamic_arrayIN14SerializedFile14SerializedTypeELm0EED2Ev
2304:__ZN13dynamic_arrayI14FileIdentifierLm0EED2Ev
2305:__ZN13ResourceImageD2Ev
2306:__ZN14SerializedFile10ReadHeaderEv
2307:__Z28PrintSerializedFileLoadErrorRKN4core12basic_stringIcNS_20StringStorageDefaultIcEEEEm23SerializedFileLoadError
2308:__Z11FormatBytesx
2309:__Z12FormatStringPKcz
2310:__Z12FormatBufferPciPKcPi
2311:__Z13ReadFileCacheR15CacheReaderBasePvN3VFS8FileSizeEm
2312:__ZN14SerializedFile12ReadMetadataILb0EEEb27SerializedFileFormatVersionN3VFS8FileSizeEPKhmS3_
2313:__ZN14SerializedFile12ReadMetadataILb1EEEb27SerializedFileFormatVersionN3VFS8FileSizeEPKhmS3_
2314:__ZN14SerializedFile27PatchRemapDeprecatedClassesEv
2315:__ZN5Unity4Type26FindTypeByPersistentTypeIDEi
2316:__ZN5Unity4Type41GetDeserializationStubForPersistentTypeIDEi
2317:__ZL38FindOrCreateSerializedTypeForUnityTypeR13dynamic_arrayIN14SerializedFile14SerializedTypeELm0EEPKN5Unity4TypeEbsi
2318:__ZN14SerializedFile14SerializedTypeC2ERKS0_
2319:__ZN11TypeManager45GetDeserializationRTTIStubForPersistentTypeIDEi
2320:__ZN4core8hash_mapIiP4RTTIN11TypeManager27HashFunctorPersistentTypeIDENSt3__28equal_toIiEEE15insert_internalIRKiRKS2_EENS_4pairINS_8hash_setINSE_ISA_S2_Lb0EEENS_9hash_pairIS4_SA_S2_EENS_10equal_pairIS7_SA_S2_EEE13node_iteratorISG_EEbLb0EEEOT_OT0_
2321:__ZNK11TypeManager22PersistentTypeIDToRTTIEi
2322:__ZN13dynamic_arrayIN14SerializedFile14SerializedTypeELm0EE18resize_initializedEmRKS1_12ResizePolicy
2323:__ZNK12UnityVersionltERKS_
2324:__ZN14SerializedFile14SerializedType8ReadTypeILb1ELb0EEEb27SerializedFileFormatVersionbRPKhS4_Pib
2325:__ZL26ExtractScriptTypeReferenceRK16TypeTreeIteratorN3VFS8FileSizeER15CacheReaderBasebR31LocalSerializedObjectIdentifier
2326:__ZN13dynamic_arrayI31LocalSerializedObjectIdentifierLm0EE4growEv
2327:__ZNSt3__26vectorINS_4pairIxN14SerializedFile10ObjectInfoEEENS_9allocatorIS4_EEE21__push_back_slow_pathIS4_EEvOT_
2328:__ZN13dynamic_arrayI31LocalSerializedObjectIdentifierLm0EE21resize_buffer_nocheckEm12ResizePolicy
2329:__ZN19dynamic_block_arrayI14FileIdentifierLm64EE28resize_with_resizer_internalINS1_20ResizerWithNoDefaultEEEvmRKT_
2330:__ZN14SerializedFile14SerializedType8ReadTypeILb1ELb1EEEb27SerializedFileFormatVersionbRPKhS4_Pib
2331:__ZNSt3__26__treeINS_12__value_typeIiiEENS_19__map_value_compareIiS2_NS_4lessIiEELb1EEENS_9allocatorIS2_EEE7destroyEPNS_11__tree_nodeIS2_PvEE
2332:__ZN10TypeTreeIO12ReadTypeTreeER8TypeTreeRPKhS3_27SerializedFileFormatVersionb
2333:__Z22ReadHeaderCacheCheckedILb1EEbRN4core12basic_stringIcNS0_20StringStorageDefaultIcEEEERPKhS8_
2334:__ZN21TypeTreeShareableData8BlobReadERPKhS1_27SerializedFileFormatVersionb
2335:__ZN10TypeTreeIOL16ReadTypeTreeImplILb1EEEbR8TypeTreeRK16TypeTreeIteratorRPKhS7_27SerializedFileFormatVersion
2336:__ZN10TypeTreeIOL16ReadTypeTreeImplILb0EEEbR8TypeTreeRK16TypeTreeIteratorRPKhS7_27SerializedFileFormatVersion
2337:__ZN21TypeTreeShareableData19BlobReadV17AndPriorERPKhS1_27SerializedFileFormatVersionb
2338:__ZN13dynamic_arrayI12TypeTreeNodeLm0EE21resize_buffer_nocheckEm12ResizePolicy
2339:__ZN19dynamic_block_arrayI14FileIdentifierLm64EE4growEm
2340:__ZN13dynamic_arrayI14FileIdentifierLm0EE21resize_buffer_nocheckEm12ResizePolicy
2341:__ZNSt3__26vectorIiNS_9allocatorIiEEE8__appendEmRKi
2342:__ZN14SerializedFile14SerializedType8ReadTypeILb0ELb0EEEb27SerializedFileFormatVersionbRPKhS4_Pib
2343:__ZN14SerializedFile14SerializedType8ReadTypeILb0ELb1EEEb27SerializedFileFormatVersionbRPKhS4_Pib
2344:__ZN14FileCacherReadC2E10MemLabelIdRKN4core12basic_stringIcNS1_20StringStorageDefaultIcEEEEmb
2345:__Z18PathToAbsolutePathN4core16basic_string_refIcEE
2346:__ZN13FileEntryDataD2Ev
2347:__ZN15FileSystemEntryC2EN4core16basic_string_refIcEE
2348:__ZN15FileSystemEntry3SetEN4core16basic_string_refIcEE
2349:__Z24ConvertSeparatorsToUnityPc
2350:__ZNK10FileSystem10ToAbsoluteEN4core16basic_string_refIcEE
2351:__ZN14FileCacherReadD2Ev
2352:__ZN14FileCacherReadD0Ev
2353:__ZN14FileCacherRead10DirectReadEPvmm
2354:__ZN14FileCacherRead14LockCacheBlockEmPPhS1_
2355:__ZN14FileCacherRead16UnlockCacheBlockEm
2356:__ZNK14FileCacherRead12GetCacheSizeEv
2357:__ZNK14FileCacherRead11GetPathNameEv
2358:__ZN15CacheReaderBase18GetAddressOfMemoryEv
2359:__ZN14FileCacherRead12RequestBlockEi
2360:__Z16AsyncReadRequestP16AsyncReadCommand
2361:__ZN13OpenFileCache10OpenCachedERKN4core12basic_stringIcNS0_20StringStorageDefaultIcEEEE
2362:__ZN4File4ReadEN3VFS8FileSizeEPvm13FileReadFlags
2363:__ZN12FileAccessor4ReadEN3VFS8FileSizeEyPvPy13FileReadFlags
2364:__ZN4File5CloseEv
2365:__ZN4File4OpenEN4core16basic_string_refIcEE14FilePermission16FileAutoBehavior
2366:__ZN4File19OpenFileSystemEntryERK15FileSystemEntry14FilePermission16FileAutoBehavior
2367:__ZN12FileAccessor5CloseEv
2368:__ZN13FileEntryDataaSERKS_
2369:__ZN12FileAccessor4OpenER15FileSystemEntry14FilePermission16FileAutoBehavior
2370:__ZN12FileAccessorC2Ev
2371:__ZN12FileAccessorD2Ev
2372:__ZN12FileAccessorD0Ev
2373:__Z23AsyncReadForceCloseFileRKN4core12basic_stringIcNS_20StringStorageDefaultIcEEEE
2374:__ZN13OpenFileCache10ForceCloseERKN4core12basic_stringIcNS0_20StringStorageDefaultIcEEEE
2375:__ZN14SerializedFileC2E10MemLabelId
2376:__ZN13sorted_vectorINSt3__24pairIN4core12basic_stringIcNS2_20StringStorageDefaultIcEEEES6_EEN10vector_mapIS6_S6_27compare_tstring_insensitiveIS6_E13stl_allocatorIS7_L18MemLabelIdentifier43ELi16EEE13value_compareESD_E4findIS6_EENS0_11__wrap_iterIPS7_EERKT_
2377:__ZNSt3__27__sort4IRNS_6__lessI14ObjectLoadDataS2_EEPS2_EEjT0_S6_S6_S6_T_
2378:__ZNSt3__27__sort5IRNS_6__lessI14ObjectLoadDataS2_EEPS2_EEjT0_S6_S6_S6_S6_T_
2379:__ZNSt3__218__insertion_sort_3IRNS_6__lessI14ObjectLoadDataS2_EEPS2_EEvT0_S6_T_
2380:__ZNSt3__227__insertion_sort_incompleteIRNS_6__lessI14ObjectLoadDataS2_EEPS2_EEbT0_S6_T_
2381:__ZN6Object18RegisterInstanceIDEPS_
2382:__ZN17PersistentManager22MakeObjectUnpersistentEi13UnpersistMode
2383:__Z28delete_object_internal_step1P6Object
2384:__ZN12EventManager11InvokeEventEP10EventEntryPvi
2385:__ZN12EventManager11RemoveEventEP10EventEntry
2386:__ZN4core8hash_setIP6ObjectNS_4hashIS2_EENSt3__28equal_toIS2_EEE5eraseERKS2_NS_18shrink_half_size_tE
2387:__ZN17PersistentManager15DestroyFromFileEi
2388:__ZN8Remapper6RemoveEi
2389:__Z16CanDestroyObjectP6Objectb
2390:__Z31DestroyObjectHighLevel_InternalP6Objectb
2391:__ZN10GameObject17GetComponentIndexEPN5Unity9ComponentE
2392:__ZN10GameObject22RemoveComponentAtIndexEi
2393:__ZL19PreDestroyRecursiveR10GameObjectPm
2394:__ZNK10GameObject20QueryComponentByTypeEPKN5Unity4TypeE
2395:__ZN9Transform8GetSceneEv
2396:__ZN10UnityScene19RemoveRootFromSceneER9Transformb
2397:__ZN9Transform16RemoveFromParentENS_20RemoveFromParentModeE
2398:__ZL26DestroyGameObjectRecursiveR10GameObjectR11BatchDelete
2399:__Z17CommitBatchDeleteR11BatchDelete
2400:__Z28delete_object_internal_step2P6Object
2401:__ZN32TransformHierarchyChangeDispatch26DispatchSelfAndAllChildrenE15TransformAccessNS_12InterestTypeE
2402:__ZN17TransformInternal25DestroyTransformHierarchyEP18TransformHierarchy
2403:__ZN17TransformInternal21DetachTransformThreadER18TransformHierarchyjj
2404:__ZN17TransformInternal19FreeTransformThreadER18TransformHierarchyjj
2405:__ZN17TransformInternal27UpdateDeepChildCountUpwardsER18TransformHierarchyii
2406:__ZN32TransformHierarchyChangeDispatch22DispatchSelfAndParentsE15TransformAccessNS_12InterestTypeE
2407:__ZN5Unity9Component14SendMessageAnyERK17MessageIdentifierR11MessageData
2408:__ZN10GameObject14SendMessageAnyERK17MessageIdentifierR11MessageData
2409:__ZN16MessageForwarder13HandleMessageEPviR11MessageData
2410:__ZN23TransformChangeDispatch24RemoveTransformHierarchyER18TransformHierarchy
2411:__ZN10GameObject21WillDestroyGameObjectEv
2412:__Z19CanReplaceComponentRN5Unity9ComponentEPKNS_4TypeEPN4core12basic_stringIcNS5_20StringStorageDefaultIcEEEE
2413:__Z34FindRequiredComponentsForComponentPKN5Unity4TypeE
2414:__Z24GetComponentOrScriptNameRN5Unity9ComponentE
2415:__ZNK22SerializableManagedRef18GetScriptClassNameEv
2416:__Z25InitComponentRequirementsv
2417:__ZNSt3__26__treeINS_12__value_typeIPKN5Unity4TypeE10vector_setIS5_NS_4lessIS5_EENS_9allocatorIS5_EEEEENS_19__map_value_compareIS5_SC_S8_Lb1EEE13stl_allocatorISC_L18MemLabelIdentifier57ELi16EEE7destroyEPNS_11__tree_nodeISC_PvEE
2418:__Z38InitComponentRequirementsForModuleSpecRK10ModuleSpec
2419:__ZN13ModuleManager3GetEv
2420:__ZNK5Unity4Type21FindAllDerivedClassesER13dynamic_arrayIPKS0_Lm0EENS0_17TypeFilterOptionsE
2421:__ZNSt3__26vectorIPKN5Unity4TypeE13stl_allocatorIS4_L18MemLabelIdentifier57ELi16EEE6assignIPS4_EENS_9enable_ifIXaasr21__is_forward_iteratorIT_EE5valuesr16is_constructibleIS4_NS_15iterator_traitsISC_E9referenceEEE5valueEvE4typeESC_SC_
2422:__ZNSt3__26__sortIRNS_4lessIPKN5Unity4TypeEEEPS5_EEvT0_S9_T_
2423:__ZL23AddConflictingClassIMPLPKN5Unity4TypeES2_
2424:__ZNSt3__26vectorIPKN5Unity4TypeE13stl_allocatorIS4_L18MemLabelIdentifier57ELi16EEE6insertENS_11__wrap_iterIPKS4_EERSA_
2425:__ZNSt3__26vectorIPKN5Unity4TypeENS_9allocatorIS4_EEE6insertENS_11__wrap_iterIPKS4_EERS9_
2426:__ZNSt3__23mapIPKN5Unity4TypeE10vector_setIS4_NS_4lessIS4_EENS_9allocatorIS4_EEES7_13stl_allocatorINS_4pairIKS4_SA_EEL18MemLabelIdentifier57ELi16EEEixERSD_
2427:__ZNSt3__27__sort5IRNS_4lessIPKN5Unity4TypeEEEPS5_EEjT0_S9_S9_S9_S9_T_
2428:__ZNSt3__227__insertion_sort_incompleteIRNS_4lessIPKN5Unity4TypeEEEPS5_EEbT0_S9_T_
2429:__ZNK11TypeManager23FindAllRTTIDerivedTypesEPK4RTTIR13dynamic_arrayIS2_Lm0EEb
2430:__ZN24StaticInitializeInternal13ConstructTypeI13ModuleManagerLb0EEEPvS2_10MemLabelId
2431:__ZN19RuntimeSceneManager14SetActiveSceneER10UnityScene
2432:__ZN10UnityScene43RegisterLevelGameManagersWithManagerContextEv
2433:__ZL51StaticInitializeExternalGpuProfilerFactoryInterfacePv
2434:__ZL48StaticCleanupExternalGpuProfilerFactoryInterfacePv
2435:__ZL24StaticInitializeProfilerPv
2436:__ZL21StaticCleanupProfilerPv
2437:__ZN9profiling15ProfilerManager8ShutdownEv
2438:__ZN9profiling15ProfilerManagerD2Ev
2439:__ZN19dynamic_block_arrayIN9profiling15ProfilerManager16CounterValueDataELm64EE13clear_deallocEv
2440:__ZN22ForwardLinearAllocatorD2Ev
2441:__ZN9profiling16ProfilerRecorderD2Ev
2442:__ZN9profiling15ProfilerManager10InitializeEv
2443:__Z29InitializeMemoryProfilerStatsv
2444:__ZN19MemoryProfilerStatsC2E10MemLabelId
2445:__ZL19GetSystemUsedMemoryPx
2446:__ZN9profiling7Counter21CreateCounterPropertyEPFvPvEtN4core16basic_string_refIcEENS_6Marker5FlagsEhhmNS0_5FlagsEPFvvESB_
2447:__ZL18GetTotalUsedMemoryPx
2448:__ZL22GetTotalReservedMemoryPx
2449:__ZL19GetGCUsedMemorySizePx
2450:__ZL23GetGCReservedMemorySizePx
2451:__ZL21GetProfilerUsedMemoryPx
2452:__ZN13string_traitsIA25_cE8get_sizeERA25_Kc
2453:__ZL25GetProfilerReservedMemoryPx
2454:__ZL16GetGfxUsedMemoryPx
2455:__ZL18GetAudioUsedMemoryPx
2456:__ZL18GetVideoUsedMemoryPx
2457:__ZN13MemoryManager12GetAllocatorE10MemLabelId
2458:__Z19GetReservedHeapSizev
2459:__ZN13MemoryManager22GetTotalReservedMemoryEv
2460:__Z15GetUsedHeapSizev
2461:__ZN13MemoryManager23GetTotalAllocatedMemoryEv
2462:__ZN9profiling15ProfilerManager17CreateCounterDataEPPNS_6MarkerEytN4core16basic_string_refIcEENS1_5FlagsEhhmNS_7Counter5FlagsEPFvvESB_
2463:__ZN9profiling15ProfilerManager18GetOrCreateCounterEtN4core16basic_string_refIcEENS_6Marker5FlagsEhh
2464:__ZN19dynamic_block_arrayIN9profiling15ProfilerManager16CounterValueDataELm64EE4growEm
2465:__ZN9profiling15ProfilerManagerC2E10MemLabelId
2466:__ZN9profiling15ProfilerManager16RegisterBuiltinsEv
2467:__ZZN9profiling15ProfilerManagerC1E10MemLabelIdEN31domainUnloadCompleteRegistrator7ForwardEv
2468:__ZN9profiling15ProfilerManager14OnDomainUnloadEv
2469:__ZN9profiling16ProfilerRecorder4StopEv
2470:__ZNK9profiling15ProfilerManager22DetachProfilerRecorderEPNS_16ProfilerRecorderE
2471:__ZN13RuntimeStaticI25GetTimeSinceStartupHelperLb0EE16StaticInitializeEPv
2472:__ZN24StaticInitializeInternal13ConstructTypeI25GetTimeSinceStartupHelperLb0EEEPvS2_10MemLabelId
2473:__ZN12UnityClassic42Baselib_Timer_GetTimeSinceStartupInSecondsEv
2474:__ZN13RuntimeStaticI21AssetReferenceStorageLb0EE16StaticInitializeEPv
2475:__ZN13RuntimeStaticI21AssetReferenceStorageLb0EE13StaticDestroyEPv
2476:__ZL19StaticCleanupPlayerPv
2477:__ZN22BuiltinResourceManager16StaticInitializeEPv
2478:__ZN22BuiltinResourceManager13StaticDestroyEPv
2479:__ZN21AssetReferenceStorageD2Ev
2480:__ZN21AssetReferenceStorage22GarbageCollectCallbackEPS_R27GarbageCollectorThreadState
2481:__ZN24StaticInitializeInternal13ConstructTypeI21AssetReferenceStorageLb0EEEPvS2_10MemLabelId
2482:__ZN21AssetReferenceStorageC2Ev
2483:__ZN13RuntimeStaticI19EndOfFrameCallbacksLb0EE16StaticInitializeEPv
2484:__ZN13RuntimeStaticI19EndOfFrameCallbacksLb0EE13StaticDestroyEPv
2485:__ZN13RuntimeStaticI19UnityPluginRegistryLb0EE16StaticInitializeEPv
2486:__ZN13RuntimeStaticI19UnityPluginRegistryLb0EE13StaticDestroyEPv
2487:__ZN13RuntimeStaticINSt3__23mapIN4core12basic_stringIcNS2_20StringStorageDefaultIcEEEES6_NS0_4lessIS6_EE13stl_allocatorINS0_4pairIKS6_S6_EEL18MemLabelIdentifier16ELi16EEEELb0EE16StaticInitializeEPv
2488:__ZN13RuntimeStaticINSt3__23mapIN4core12basic_stringIcNS2_20StringStorageDefaultIcEEEES6_NS0_4lessIS6_EE13stl_allocatorINS0_4pairIKS6_S6_EEL18MemLabelIdentifier16ELi16EEEELb0EE13StaticDestroyEPv
2489:__ZNSt3__26__treeINS_12__value_typeIN4core12basic_stringIcNS2_20StringStorageDefaultIcEEEES6_EENS_19__map_value_compareIS6_S7_NS_4lessIS6_EELb1EEE13stl_allocatorIS7_L18MemLabelIdentifier16ELi16EEE7destroyEPNS_11__tree_nodeIS7_PvEE
2490:__ZN24StaticInitializeInternal13ConstructTypeI19UnityPluginRegistryLb0EEEPvS2_10MemLabelId
2491:__ZN19EndOfFrameCallbacks8DequeAllEv
2492:__ZN24StaticInitializeInternal13ConstructTypeI19EndOfFrameCallbacksLb0EEEPvS2_10MemLabelId
2493:__ZN21ComponentRequirements16StaticInitializeEPv
2494:__ZN21ComponentRequirements13StaticDestroyEPv
2495:__ZN13RuntimeStaticI13dynamic_arrayI27RuntimeInitializeOnLoadCallLm0EELb0EE16StaticInitializeEPv
2496:__ZN13RuntimeStaticI13dynamic_arrayI27RuntimeInitializeOnLoadCallLm0EELb0EE13StaticDestroyEPv
2497:__ZN13RuntimeStaticIN4core8hash_mapIi13dynamic_arrayIiLm0EENS0_4hashIiEENSt3__28equal_toIiEEEELb0EE16StaticInitializeEPv
2498:__ZN13dynamic_arrayI27RuntimeInitializeOnLoadCallLm0EED2Ev
2499:__Z22CleanupCachingManagersPv
2500:__ZN15FileSystemEntry6DeleteEb
2501:__ZL17InitScriptingRandPv
2502:__ZL20CleanupScriptingRandPv
2503:__ZN4Rand14RandomizeStateEv
2504:__Z24GetCurrentTimeAsDateTimev
2505:__ZN10SpookyHash7Hash128EPKvmPyS2_
2506:__ZN10SpookyHash5ShortEPKvmPyS2_
2507:__ZL30InitializeHalfConversionTablesPv
2508:__ZL30InitializeRegisterDomainReloadPv
2509:__ZL13OnBeginUnloadv
2510:__Z27CleanupAllJobReflectionDatav
2511:__ZN13RuntimeStaticI22ThreadSharedObjectPoolI26ScriptableShadowCasterDataELb1EE16StaticInitializeEPv
2512:__ZN13RuntimeStaticI22ThreadSharedObjectPoolI26ScriptableShadowCasterDataELb1EE13StaticDestroyEPv
2513:__ZN22ThreadSharedObjectPoolI26ScriptableShadowCasterDataE5ClearEv
2514:__ZN26ScriptableShadowCasterDataD2Ev
2515:__ZN26ScriptableShadowCasterData14OnReturnToPoolEv
2516:__ZN15RenderNodeQueueD2Ev
2517:__ZN15RenderNodeQueue5ResetEb
2518:__ZN19AtomicPageAllocatorD2Ev
2519:__ZNK15RenderNodeQueue22InvokeCleanupCallbacksEv
2520:__ZN24StaticInitializeInternal13ConstructTypeI22ThreadSharedObjectPoolI26ScriptableShadowCasterDataELb1EEEPvS4_10MemLabelId
2521:__ZN23DefaultMeshVertexFormatC2ERK18VertexChannelsInfo
2522:__ZN13RuntimeStaticI23MeshVertexFormatManagerLb0EE16StaticInitializeEPv
2523:__ZN13RuntimeStaticI23MeshVertexFormatManagerLb0EE13StaticDestroyEPv
2524:__ZNSt3__26__treeINS_12__value_typeI18VertexChannelsInfo16MeshVertexFormatEENS_19__map_value_compareIS2_S4_NS_4lessIS2_EELb1EEE13stl_allocatorIS4_L18MemLabelIdentifier20ELi16EEE7destroyEPNS_11__tree_nodeIS4_PvEE
2525:__ZN23DynamicVBOBufferManager26CleanupThreadLocalDataListEPv
2526:__Z25InitializeLODGroupManagerPv
2527:__Z22CleanupLODGroupManagerPv
2528:__ZN15LODGroupManagerD2Ev
2529:__ZN17UniqueIDGenerator7CleanupEv
2530:__ZN23TransformChangeDispatch16UnregisterSystemER27TransformChangeSystemHandle
2531:__ZN17UniqueIDGenerator16DestroyPureIndexEj
2532:__ZN17UniqueIDGenerator15CreatePureIndexEv
2533:__ZN23TransformChangeDispatch14RegisterSystemEPKcNS_12InterestTypeE
2534:__ZN21BillboardBatchManager16StaticInitializeEPv
2535:__ZN21BillboardBatchManager13StaticCleanupEPv
2536:__Z28BuildSingleStreamChannelInfoR18VertexChannelsInfoRK22VertexAttributeFormats17ShaderChannelMaskS4_
2537:__ZN23MeshVertexFormatManager19GetMeshVertexFormatERK18VertexChannelsInfo
2538:__ZN16MeshVertexFormatC2ERK18VertexChannelsInfo
2539:__ZNSt3__26__treeINS_12__value_typeI18VertexChannelsInfo16MeshVertexFormatEENS_19__map_value_compareIS2_S4_NS_4lessIS2_EELb1EEE13stl_allocatorIS4_L18MemLabelIdentifier20ELi16EEE12__find_equalIS2_EERPNS_16__tree_node_baseIPvEENS_21__tree_const_iteratorIS4_PNS_11__tree_nodeIS4_SF_EElEERPNS_15__tree_end_nodeISH_EESI_RKT_
2540:__ZL28InitializeAsyncUploadTexturePv
2541:__ZL26ShutdownAsyncUploadTexturePv
2542:__ZN13RuntimeStaticI8JobFenceLb0EE16StaticInitializeEPv
2543:__ZN24StaticInitializeInternal13ConstructTypeI8JobFenceLb0EEEPvS2_10MemLabelId
2544:__ZN18ConcurrentFreeListI24TextureUploadInstructionE7CleanUpEv
2545:__ZN18ConcurrentFreeListI24TextureDeleteInstructionE7CleanUpEv
2546:__ZN24TextureUploadInstructionC2Ev
2547:__ZN18AsyncUploadManager16StaticInitializeEPv
2548:__ZN18AsyncUploadManager13StaticDestroyEPv
2549:__ZN13RuntimeStaticIN4core8hash_mapIiiNS0_4hashIiEENSt3__28equal_toIiEEEELb0EE16StaticInitializeEPv
2550:__ZN18AsyncUploadManagerD2Ev
2551:__ZN14QueueAllocatorD2Ev
2552:__ZN18AsyncUploadManagerC2E10MemLabelId
2553:__ZN13RuntimeStaticI19MemorylessRequesterLb0EE16StaticInitializeEPv
2554:__ZN13RuntimeStaticI19MemorylessRequesterLb0EE13StaticDestroyEPv
2555:__ZN13RuntimeStaticI19MemorylessRequesterLb0EE7DestroyEv
2556:__ZL33MemorylessRequesterDidUnloadScenei
2557:__ZN24StaticInitializeInternal13ConstructTypeI19MemorylessRequesterLb0EEEPvS2_10MemLabelId
2558:__ZN19MemorylessRequesterC2Ev
2559:__ZL38StaticRegister_LightmapSettingsManagerPv
2560:__ZL33StaticUnregister_LightmapSettingsPv
2561:__Z14DidUnloadScenei
2562:__Z21SceneLoadedAfterAwakeiR18AwakeFromLoadQueue16SceneLoadingMode
2563:__Z20DidChangeActiveSceneP10UnitySceneS0_
2564:__ZL12WipeSettingsv
2565:__ZNK10UnityScene19GetLevelGameManagerEi
2566:__ZN16LightmapSettings8CopyFromEPKS_
2567:__ZN13dynamic_arrayI10SceneRangeLm0EE21resize_buffer_nocheckEm12ResizePolicy
2568:__ZN21EnlightenSceneMappingaSERKS_
2569:__ZN16LightmapSettings7RebuildEv
2570:__ZN16LightmapSettings28SetDynamicGILightmapTexturesEPK22RealtimeLightmapIDDatam
2571:__Znam
2572:__ZN13dynamic_arrayI28EnlightenRendererInformationLm0EE21resize_buffer_nocheckEm12ResizePolicy
2573:__ZN13dynamic_arrayI26EnlightenSystemInformationLm0EE21resize_buffer_nocheckEm12ResizePolicy
2574:__ZNSt3__26vectorINS_4pairIijEENS_9allocatorIS2_EEE6assignIPS2_EENS_9enable_ifIXaasr21__is_forward_iteratorIT_EE5valuesr16is_constructibleIS2_NS_15iterator_traitsIS9_E9referenceEEE5valueEvE4typeES9_S9_
2575:__ZN4core8hash_mapIiP16LightmapSettingsNS_4hashIiEENSt3__28equal_toIiEEEixERKi
2576:__ZN16LightmapSettings14GetLightProbesEv
2577:__ZN16LightmapSettings16SetLightmapsModeEN9Lightmaps13LightmapsModeE
2578:__ZN16LightmapSettings15AppendLightmapsEiRK13dynamic_arrayI12LightmapDataLm0EE
2579:__ZN21EnlightenSceneMapping14SetSceneHandleEi
2580:__ZN21EnlightenSceneMapping6AppendEiRKS_
2581:__ZN18LightProbesManager6AppendEP11LightProbes
2582:__ZN18LightProbesManager5ClearEv
2583:__ZN11LightProbes14LightProbeData5ClearEv
2584:__ZN26ProbeSetTetrahedralization5ClearEv
2585:__Z24InitializeMainSceneRangeiiiR13dynamic_arrayI10SceneRangeLm0EE
2586:__ZN4core8hash_mapI7Hash128iNS_4hashIS1_EENSt3__28equal_toIS1_EEEixERKS1_
2587:__ZN4core8hash_setI7Hash128NS_4hashIS1_EENSt3__28equal_toIS1_EEEaSERKS7_
2588:__ZN13dynamic_arrayI20SphericalHarmonicsL2Lm0EE21resize_buffer_nocheckEm12ResizePolicy
2589:__ZN13dynamic_arrayI13ProbeSetIndexLm0EE21resize_buffer_nocheckEm12ResizePolicy
2590:__ZNSt3__26vectorINS_4pairI7Hash128iEE13stl_allocatorIS3_L18MemLabelIdentifier89ELi16EEE6insertENS_11__wrap_iterIPKS3_EERS9_
2591:__ZN4core8hash_setI7Hash128NS_4hashIS1_EENSt3__28equal_toIS1_EEE6insertIRKS1_EENS_4pairINS7_13node_iteratorIS1_EEbLb0EEEOT_
2592:__ZN13dynamic_arrayI11TetrahedronLm0EE21resize_buffer_nocheckEm12ResizePolicy
2593:__ZN4core8hash_setI7Hash128NS_4hashIS1_EENSt3__28equal_toIS1_EEE6resizeEi
2594:__ZN13dynamic_arrayI10SceneRangeLm0EE4growEv
2595:__ZNSt3__26vectorINS_4pairIijEENS_9allocatorIS2_EEE21__push_back_slow_pathIS2_EEvOT_
2596:__ZN13sorted_vectorINSt3__24pairIijEEN10vector_mapIijNS0_4lessIiEENS0_9allocatorIS2_EEE13value_compareES7_E21sort_clear_duplicatesEv
2597:__ZnwmRKSt9nothrow_t
2598:__ZNSt3__213__stable_sortIRN10vector_mapIijNS_4lessIiEENS_9allocatorINS_4pairIijEEEEE13value_compareENS_11__wrap_iterIPS6_EEEEvT0_SE_T_NS_15iterator_traitsISE_E15difference_typeEPNSH_10value_typeEl
2599:__ZNSt3__218__stable_sort_moveIRN10vector_mapIijNS_4lessIiEENS_9allocatorINS_4pairIijEEEEE13value_compareENS_11__wrap_iterIPS6_EEEEvT0_SE_T_NS_15iterator_traitsISE_E15difference_typeEPNSH_10value_typeE
2600:__ZNSt3__215__inplace_mergeIRN10vector_mapIijNS_4lessIiEENS_9allocatorINS_4pairIijEEEEE13value_compareENS_11__wrap_iterIPS6_EEEEvT0_SE_SE_T_NS_15iterator_traitsISE_E15difference_typeESI_PNSH_10value_typeEl
2601:__ZNSt3__224__buffered_inplace_mergeIRN10vector_mapIijNS_4lessIiEENS_9allocatorINS_4pairIijEEEEE13value_compareENS_11__wrap_iterIPS6_EEEEvT0_SE_SE_T_NS_15iterator_traitsISE_E15difference_typeESI_PNSH_10value_typeE
2602:__Z16AppendSceneRangeiiiiiR13dynamic_arrayI10SceneRangeLm0EE
2603:__ZNK19RuntimeSceneManager19GetLoadedSceneCountEv
2604:__ZNK23LightmapSettingsManager14GetLightProbesEi
2605:__ZN18LightProbesManager6RemoveEP11LightProbes
2606:__ZN23LightmapSettingsManager19RemoveSceneSettingsEi
2607:__ZNK21EnlightenSceneMapping14FindSceneIndexEi
2608:__ZN21EnlightenSceneMapping5EraseEi
2609:__ZN16LightmapSettings15RemoveLightmapsEi
2610:__Z26ExtractAllRenderersInSceneR13dynamic_arrayIP8RendererLm0EE
2611:__Z25ExtractAllTerrainsInSceneR13dynamic_arrayIP7TerrainLm0EE
2612:__ZN6Object17FindObjectsOfTypeEPKN5Unity4TypeER13dynamic_arrayIPS_Lm0EEb
2613:__ZL31FindObjectsOfTypeImplementationPN4core8hash_setIP6ObjectNS_4hashIS2_EENSt3__28equal_toIS2_EEEEPKN5Unity4TypeER13dynamic_arrayIS2_Lm0EE
2614:__ZNSt3__26__sortIR17CompareInstanceIDPP6ObjectEEvT0_S6_T_
2615:__ZNSt3__27__sort5IR17CompareInstanceIDPP6ObjectEEjT0_S6_S6_S6_S6_T_
2616:__ZNSt3__227__insertion_sort_incompleteIR17CompareInstanceIDPP6ObjectEEbT0_S6_T_
2617:__Z14FindSceneIndexRK13dynamic_arrayI10SceneRangeLm0EEi
2618:__ZL33StaticRegister_LightProbesManagerPv
2619:__ZL35StaticUnregister_LightProbesManagerPv
2620:__ZN13dynamic_arrayI16LightProbeOffsetLm0EED2Ev
2621:__ZN13RuntimeStaticI17UniqueIDGeneratorLb1EE16StaticInitializeEPv
2622:__Z37InitializeIntermediateRendererManagerPv
2623:__Z34CleanupIntermediateRendererManagerPv
2624:__ZN27IntermediateRendererManagerD2Ev
2625:__ZN27IntermediateRendererManager27RemoveIntermediateRenderersEi
2626:__ZN21IntermediateRenderers5ClearEm
2627:__ZN13dynamic_arrayI4AABBLm0EE21resize_buffer_nocheckEm12ResizePolicy
2628:__ZN24StaticInitializeInternal13ConstructTypeI17UniqueIDGeneratorLb1EEEPvS2_10MemLabelId
2629:__ZN13RuntimeStaticI10WatermarksLb0EE16StaticInitializeEPv
2630:__ZN13RuntimeStaticI19SplashScreenStaticsLb0EE16StaticInitializeEPv
2631:__ZN11MatrixStack5ResetEv
2632:__ZL31InitializeRendererUpdateManagerPv
2633:__ZL28CleanupRendererUpdateManagerPv
2634:__ZN21RendererUpdateManagerD2Ev
2635:__ZN10Matrix4x4f11SetIdentityEv
2636:__ZN24StaticInitializeInternal13ConstructTypeI19SplashScreenStaticsLb0EEEPvS2_10MemLabelId
2637:__ZN24StaticInitializeInternal13ConstructTypeI10WatermarksLb0EEEPvS2_10MemLabelId
2638:__ZN15GlobalCallbacksC2Ev
2639:__ZN17CommonStringTable16StaticInitializeEPv
2640:__ZN17CommonStringTable13StaticCleanupEPv
2641:__ZN17CommonStringTableD2Ev
2642:__ZN17CommonStringTableC2E10MemLabelId
2643:__ZL24CleanupPrepassRenderLoopPv
2644:__ZL17CleanupGUITexturePv
2645:__ZN19CullingGroupManager15InitializeClassEPv
2646:__ZN19CullingGroupManager12CleanupClassEPv
2647:___cxx_global_var_init_1699
2648:___cxx_global_var_init_1_1700
2649:___cxx_global_var_init_2_1701
2650:__ZL14CleanupShadowsPv
2651:__ZN9ShaderLab16FastPropertyNameC2EPKc
2652:__ZN11ColorRGBA32C2Ehhhh
2653:__ZNK11ColorRGBA32cv10ColorRGBAfEv
2654:__ZN10ColorRGBAfC2Effff
2655:__ZN13RuntimeStaticI13dynamic_arrayIP6CameraLm0EELb0EE16StaticInitializeEPv
2656:__ZL33CleanupCubemapGPUUtilityMaterialsPv
2657:__ZL25CleanupImageFilterGlobalsPv
2658:__ZN13RuntimeStaticI13RendererSceneLb0EE16StaticInitializeEPv
2659:__ZN13RuntimeStaticI13RendererSceneLb0EE13StaticDestroyEPv
2660:__ZN13RuntimeStaticI33ScriptableRuntimeReflectionSystemLb0EE16StaticInitializeEPv
2661:__ZN13RuntimeStaticI29ScriptingInstanceDirtyWrapperLb0EE16StaticInitializeEPv
2662:__ZN24StaticInitializeInternal13ConstructTypeI29ScriptingInstanceDirtyWrapperLb0EEEPvS2_10MemLabelId
2663:__ZN24StaticInitializeInternal13ConstructTypeI33ScriptableRuntimeReflectionSystemLb0EEEPvS2_10MemLabelId
2664:__ZN13RendererSceneD2Ev
2665:__ZN13RendererScene14RemoveRendererEi
2666:__ZN13RendererScene28SceneAfterCullingOutputReadyEPK9IndexListRK11CullResults
2667:__ZN13RendererScene16UpdateVisibilityEPK9IndexList
2668:__ZN13RendererScene26ApplyPendingAddRemoveNodesEv
2669:__ZN13RendererScene22RemoveRendererInternalEi
2670:__ZN8Renderer24SetupNewRendererForSceneEb
2671:__ZN8Renderer10AddToSceneEv
2672:__ZN8Renderer15RemoveFromSceneEv
2673:__ZN23TextureStreamingManager14RemoveRendererER8Renderer
2674:__ZN21RendererUpdateManager14RemoveRendererER8Renderer
2675:__ZN9Transform18GetTransformAccessEv
2676:__ZN32TransformHierarchyChangeDispatch19SetSystemInterestedE15TransformAccess36TransformHierarchyChangeSystemHandleb
2677:__ZN23TransformChangeDispatch19SetSystemInterestedE15TransformAccess27TransformChangeSystemHandleb
2678:__ZN20TextureStreamingData14RemoveRendererEi
2679:__ZN13RendererScene11AddRendererEP8Renderer
2680:__ZN8LODGroup23GetLODGroupIndexAndMaskEPK8RendererPjPh
2681:__ZN21RendererUpdateManager11AddRendererER8Renderer
2682:__ZN4core8hash_setINS_4pairIKiiLb0EEENS_9hash_pairINS_4hashIiEES2_iEENS_10equal_pairINSt3__28equal_toIiEES2_iEEE6insertIS3_EENS1_INSD_13node_iteratorIS3_EEbLb0EEEOT_
2683:__ZN23TransformChangeDispatch32QueueTransformChangeIfHasChangedERK15TransformAccess
2684:__ZN23TextureStreamingManager15AddRendererDataER8Renderer
2685:__ZN20TextureStreamingData7CompactEPS_
2686:__ZN20TextureStreamingData11AddRendererEv
2687:__ZN20TextureStreamingDataD2Ev
2688:__ZN20TextureStreamingData19AllocateTextureInfoEP17StreamingRendererm
2689:__ZN13RendererScene19AddRendererInternalEP8Rendereri
2690:__ZN13dynamic_arrayI4AABBLm0EE4growEv
2691:__ZN13dynamic_arrayIhLm0EE4growEv
2692:__ZN24StaticInitializeInternal13ConstructTypeI13RendererSceneLb0EEEPvS2_10MemLabelId
2693:__ZN13RendererSceneC2Ev
2694:__ZN21InstancedMeshRenderer16StaticInitializeEPv
2695:__ZN21InstancedMeshRenderer13StaticDestroyEPv
2696:__ZN12LightManager15InitializeClassEPv
2697:__ZN12LightManager12CleanupClassEPv
2698:__ZL30PrepareBatchRendererGroupNodesILb0EEvR35RenderNodeQueuePrepareThreadContext
2699:__ZL30PrepareBatchRendererGroupNodesILb1EEvR35RenderNodeQueuePrepareThreadContext
2700:__ZL46PrepareRenderNodeQueueExtractionCullingContextR29RenderNodeQueuePrepareContext_2682
2701:__ZL32PostRenderCleanupCullingContextsPv
2702:__Z34RegisterPrepareRenderNodesCallbackiPFvR35RenderNodeQueuePrepareThreadContextES2_PFPvR29RenderNodeQueuePrepareContextEPFvS3_ES9_
2703:__ZN27BatchRendererCullingOutputsD2Ev
2704:__Z28QueuePrepareNodeToMainThreadR35RenderNodeQueuePrepareThreadContext
2705:__Z16CalculateLODFadehhf
2706:__ZN12BaseRenderer16FlattenBasicDataERKS_12LODFadeValueR10RenderNode
2707:__ZN12BaseRenderer18FlattenCustomPropsEPKPK19ShaderPropertySheetiR22PerThreadPageAllocatorR10RenderNode
2708:__Z30GetLightProbeProxyVolumeHandleRK28LightProbeProxyVolumeContext4PPtrI21LightProbeProxyVolumeE
2709:__ZN12BaseRenderer16FlattenProbeDataE4PPtrI9TransformERisRK17LightProbeContextR10RenderNode
2710:__ZN12BaseRenderer28CanFlattenSharedMaterialDataILb1EEEbRKS_
2711:__ZN12BaseRenderer25FlattenSharedMaterialDataILb1EEEvRKS_R22PerThreadPageAllocatorR10RenderNode
2712:__ZN22PerThreadPageAllocator14AcquireNewPageEm
2713:__ZN4Mesh14GetMeshBuffersER11MeshBuffersPS_S2_
2714:__Z45DrawSingleMeshIntermediateRendererWithCullingRK15RenderNodeQueuej16VertexInputMasksi
2715:__Z61DrawInstancedMeshIntermediateRendererWithInstancingAndCullingRK15RenderNodeQueueRK18RenderMultipleData16VertexInputMasks
2716:__ZL44CleanupMeshInstancedMeshIntermediateRendererR15RenderNodeQueuej
2717:__ZN17MeshRenderingData7ReleaseEv
2718:__ZN21BuiltinInstancingDataD2Ev
2719:__ZN21SharedGeometryBuffersD2Ev
2720:__ZN19RenderBufferManager7Buffers23ReleaseBufferThreadSafeEP9GfxBuffer
2721:__ZN14SharedMeshDataD2Ev
2722:__ZN13dynamic_arrayI17BlendShapeChannelLm0EED2Ev
2723:__ZN10VertexDataD2Ev
2724:__ZN14ConstantStringD2Ev
2725:__ZNK17InstancingBatcher23GetBatchedInstanceCountEjPjS0_S0_S0_
2726:__ZNK17InstancingBatcher15RenderInstancesERK15RenderNodeQueueRK19ShaderPropertySheetRKNS_22RenderInstancesConfigsERK17MeshRenderingDatai16VertexInputMasksiPKiiPKN10Instancing11PropertyMapE
2727:__ZNK17MeshRenderingData11PrepareDrawER9GfxDevice16VertexInputMasksRP17VertexDeclarationR11MeshBuffersR16DrawBuffersRangei
2728:__ZN19ShaderPropertySheet8SetFloatEN9ShaderLab16FastPropertyNameEfNS_8SetFlagsE
2729:__ZZNK17InstancingBatcher15RenderInstancesERK15RenderNodeQueueRK19ShaderPropertySheetRKNS_22RenderInstancesConfigsERK17MeshRenderingDatai16VertexInputMasksiPKiiPKN10Instancing11PropertyMapEEN10CustomData10CbCallbackEjjR8JobFencePPvRKS_SM_
2730:__ZZNK17InstancingBatcher15RenderInstancesERK15RenderNodeQueueRK19ShaderPropertySheetRKNS_22RenderInstancesConfigsERK17MeshRenderingDatai16VertexInputMasksiPKiiPKN10Instancing11PropertyMapEEN10CustomData12DrawCallbackEjjR9GfxDevicePv
2731:__ZNK17InstancingBatcher21CustomRenderInstancesEjPFvjjR8JobFencePPvRKS_S2_EPFvjjR9GfxDeviceS2_ES2_
2732:__ZN19ShaderPropertySheet16SetArrayPropertyEN9ShaderLab16FastPropertyNameE23ShaderPropertySheetTypePKvmNS_8SetFlagsE
2733:__ZN19ShaderPropertySheet35SetTextureWithNoAuxiliaryPropertiesEN9ShaderLab16FastPropertyNameE9TextureID16TextureDimension14VRTextureUsage
2734:__ZN19ShaderPropertySheet16SetComputeBufferEN9ShaderLab16FastPropertyNameE15ComputeBufferIDNS_8SetFlagsE
2735:__ZN19ShaderPropertySheet27AddNewPropertyUninitializedEN9ShaderLab16FastPropertyNameE23ShaderPropertySheetTypej
2736:__ZN13dynamic_arrayIhLm4EE21resize_buffer_nocheckEm12ResizePolicy
2737:__ZN9ShaderLab6TexEnv14SetTextureInfoE9TextureID16TextureDimension14VRTextureUsage19TextureSamplingTypeRKNS_16FastPropertyNameE
2738:__ZNK9ShaderLab16FastPropertyName7GetNameEv
2739:__ZN10Instancing11DrawAPIArgsD2Ev
2740:__ZNK17InstancingBatcher18MapConstantBuffersER9GfxDeviceR13dynamic_arrayIPvLm0EERS2_I5CbKeyLm0EERS2_ImLm0EEj
2741:__ZNK17InstancingBatcher25FillInstanceBufferWithJobIN10Instancing11DrawAPIArgsEEEvR8JobFencePPvjjRKT_
2742:__ZNK15RenderNodeQueue15AddDependentJobER8JobFence
2743:__ZN10Instancing11DrawAPIArgsaSERKS0_
2744:__ZL17InstanceBufferJobIN10Instancing11DrawAPIArgsEEvP21InstanceBufferJobDataIT_E
2745:__ZNK15InstancingProps35FillInstanceBufferDispatchConstantsIN10Instancing11DrawAPIArgsEEEvPPvjjRK19ShaderPropertySheetRKT_
2746:__ZN19SharedObjectFactoryI21InstanceBufferJobDataIN10Instancing11DrawAPIArgsEEE7DestroyEPS3_10MemLabelId
2747:__Z25InvertMatrix4x4_General3DPKfPf
2748:__ZN10Instancing11DrawAPIArgsC2Ev
2749:__ZN19ShaderPropertySheetD2Ev
2750:__ZN19ShaderPropertySheetD0Ev
2751:__ZN10Instancing11DrawAPIArgsC2ERK19ShaderPropertySheetPKNS_11PropertyMapEPK8Vector4fS9_S9_iiiPKi
2752:__Z30AddDefaultStreamsToMeshBuffersR9GfxDeviceR11MeshBuffersj17ShaderChannelMaskS3_
2753:__ZN16MeshVertexFormat20GetVertexDeclarationER9GfxDevice16VertexInputMasksPKS_S4_
2754:__ZNK16MeshVertexFormat28GetVertexDeclarationInternalER9GfxDevice17ShaderChannelMaskPKS_S4_
2755:__ZN9GfxDevice20GetVertexDeclarationERK18VertexChannelsInfoNS_30VertexDeclarationMRUCacheIndexE
2756:__ZN25VertexDeclarationMRUCache13GetVertexDeclER9GfxDeviceRK18VertexChannelsInfo
2757:__ZNK19ShaderPropertySheet24GetMatrixArrayFromScriptEi
2758:__ZN4Mesh14GetMeshBuffersER11MeshBuffersPS_
2759:__ZNK19GeometryBuffersBase19AppendVertexBuffersER11MeshBuffers
2760:__ZN4Mesh10CreateMeshEv
2761:__ZNK19GeometryBuffersBase14GetMeshBuffersER11MeshBuffers
2762:__ZN4Mesh5ClearEb
2763:__ZN4Mesh15UnshareMeshDataEv
2764:__Z27ConvertSubMeshesToTrianglesIjEvR13dynamic_arrayI7SubMeshLm0EERS0_IhLm0EE
2765:__Z27ConvertSubMeshesToTrianglesItEvR13dynamic_arrayI7SubMeshLm0EERS0_IhLm0EE
2766:__ZNK21SharedGeometryBuffers24IsVertexBufferCompatibleERK13GfxBufferDesci
2767:__ZNK21SharedGeometryBuffers23IsIndexBufferCompatibleERK13GfxBufferDesc
2768:__ZN4Mesh22UnshareGeometryBuffersEv
2769:__ZN21SharedGeometryBuffers10SetBuffersER9GfxDeviceR13GfxBufferDescPKv20GfxUpdateBufferFlagsPKcPS2_PS5_S6_S8_15ComputeBufferIDPSB_
2770:__ZN23PerBoneCountSkinBuffers4FreeEv
2771:__ZN13MemoryManager27GetCorrespondingThreadLabelE10MemLabelId
2772:__ZN14SharedMeshDataC2ERKS_
2773:__ZN13dynamic_arrayI7SubMeshLm0EE21resize_buffer_nocheckEm12ResizePolicy
2774:__ZN13dynamic_arrayI10Matrix4x4fLm16EE21resize_buffer_nocheckEm12ResizePolicy
2775:__ZN13dynamic_arrayI12BoneWeights2Lm16EE21resize_buffer_nocheckEm12ResizePolicy
2776:__ZN13dynamic_arrayI12BoneWeights4Lm16EE21resize_buffer_nocheckEm12ResizePolicy
2777:__ZN14BlendShapeDataC2ERKS_
2778:__ZN14ConstantString6assignERKS_
2779:__ZN10VertexDataC2E10MemLabelIdRKS_17ShaderChannelMask
2780:__ZNK14VertexDataInfo22CalculateStreamsLayoutEv
2781:__ZNK14VertexDataInfo19GetAttributeFormatsEv
2782:__ZN14VertexDataInfo12UpdateFormatEm17ShaderChannelMaskS0_RK19VertexStreamsLayoutRK22VertexAttributeFormats
2783:__ZN10VertexData17ClearPaddingBytesEv
2784:__ZN13VertexUtility11CopyChannelEm13ShaderChannelRK11fixed_arrayI16VertexStreamInfoLm4EERK18VertexChannelsInfoPKhjS0_S5_S8_Phj
2785:__ZN14VertexDataInfo18UpdateImplicitDataEv
2786:__Z43IsVertexFormatCompatibleWithDynamicBatchingRK14VertexDataInfo
2787:__ZN13dynamic_arrayI7SubMeshLm0EE4growEv
2788:__ZN17BlendShapesBuffer4FreeEv
2789:__ZN14SharedMeshData16ClearBlendShapesEv
2790:__Z17SendMessageDirectR6ObjectRK17MessageIdentifierR11MessageData
2791:__ZN4Mesh14ResizeVerticesEm17ShaderChannelMaskS0_RK22VertexAttributeFormats
2792:__ZN14VertexDataInfoC2Ev
2793:__Z4swapR10VertexDataS0_
2794:__ZN4Mesh14ClearSkinCacheEv
2795:__ZN4Mesh16SetChannelsDirtyE17ShaderChannelMaskb15MeshUpdateFlags
2796:__ZN14SharedMeshData22ClearCachedBoneWeightsEv
2797:__ZN10VertexData6ResizeEm17ShaderChannelMaskS0_RK19VertexStreamsLayoutRK22VertexAttributeFormats
2798:__ZN24VariableBoneCountWeights14ResizeVerticesEjj
2799:__ZN19AtomicPageAllocator12AllocatePageEm
2800:__Z29PPtrToObjectDontLoadLockTakenI8MaterialEPT_4PPtrIS1_E
2801:__ZNK8Material32AcquireSharedMaterialDataFromJobEv
2802:__ZN8Material25AcquireSharedMaterialDataEv
2803:__ZN8Material15BuildPropertiesEv
2804:__ZN8Material19UnshareMaterialDataEv
2805:__ZN8Material12UpdateHashesEP6ShaderR18SharedMaterialData
2806:__ZNK9ShaderLab4Pass21ComputePassValuesHashERK16ShaderKeywordSetPK19ShaderPropertySheetP6Shader
2807:__ZN9ShaderLab27ComputeStateBlockValuesHashERK13dynamic_arrayIiLm0EEPK19ShaderPropertySheetS6_
2808:__ZN9ShaderLab9IntShader23CreateStateBlocksForKeyEjPK19ShaderPropertySheetS3_
2809:__ZN9ShaderLab11ShaderState15AddDeviceStatesEjPK19ShaderPropertySheetS3_
2810:__ZNK9ShaderLab11ShaderState17BuildDeviceStatesER9GfxDevicePK19ShaderPropertySheetS5_RNS0_12DeviceStatesE
2811:__ZNK9ShaderLab20ShaderBlendStateDesc15ToGfxBlendStateEPK19ShaderPropertySheetS3_R13GfxBlendState
2812:__ZN9ShaderLab11shaderprops8GetFloatEPK19ShaderPropertySheetS3_NS_16FastPropertyNameE
2813:__ZNK9ShaderLab21ShaderRasterStateDesc16ToGfxRasterStateEPK19ShaderPropertySheetS3_R14GfxRasterState
2814:__ZNK9ShaderLab22ShaderStencilStateDesc17ToGfxStencilStateEPK19ShaderPropertySheetS3_RK14GfxRasterStateR15GfxStencilState
2815:__ZNK9ShaderLab7Program21GetMatchingSubProgramEPK6ShaderPKNS_4PassERK16ShaderKeywordSetjPS7_R19ShaderSnippetResultbb
2816:__ZNK20GpuProgramParameters23PrepareOverridingValuesERK19ShaderPropertySheetR13dynamic_arrayIhLm4EE
2817:__ZL22PrepareValueParametersI27OverridingParameterPreparerEvRK13dynamic_arrayIN20GpuProgramParameters14ValueParameterELm0EEjjjRS1_IhLm4EERKT_
2818:__ZNK9ShaderLab6TexEnv11PrepareDataEiibP15GfxTextureParam
2819:__ZN13dynamic_arrayI22GfxConstantBufferParamLm0EE4growEv
2820:__Z35UnityShaderExtPluginKeywordsEnabledRK16ShaderKeywordSet
2821:__Z41UnityShaderExtIsCustomPluginVariantNeededjj
2822:__ZNK15dense_hashtableINSt3__24pairIKN9ShaderLab7Program23ShaderKeywordSetAndHashENS3_21SubProgramLookupEntryEEES4_NS3_24ShaderKeywordHashFunctorEN14dense_hash_mapIS4_S6_S8_NS0_8equal_toIS4_EE13stl_allocatorIS7_L18MemLabelIdentifier72ELi16EEE9SelectKeyESB_SE_E23find_position_with_hashERS5_m
2823:__ZN9ShaderLab32FindBestMatchingShaderKeywordSetERK16ShaderKeywordSetRK13dynamic_arrayIS0_Lm0EEPS5_
2824:__ZNK9ShaderLab7Program40EnsureCompiledAndMarkUnsupportedIfFailedEPKNS_10SubProgramEiRK16ShaderKeywordSetPS4_R19ShaderSnippetResult
2825:__ZN15dense_hashtableINSt3__24pairIKN9ShaderLab7Program23ShaderKeywordSetAndHashENS3_21SubProgramLookupEntryEEES4_NS3_24ShaderKeywordHashFunctorEN14dense_hash_mapIS4_S6_S8_NS0_8equal_toIS4_EE13stl_allocatorIS7_L18MemLabelIdentifier72ELi16EEE9SelectKeyESB_SE_E12resize_deltaEmm
2826:__ZN15dense_hashtableINSt3__24pairIKN9ShaderLab7Program23ShaderKeywordSetAndHashENS3_21SubProgramLookupEntryEEES4_NS3_24ShaderKeywordHashFunctorEN14dense_hash_mapIS4_S6_S8_NS0_8equal_toIS4_EE13stl_allocatorIS7_L18MemLabelIdentifier72ELi16EEE9SelectKeyESB_SE_E15insert_noresizeERKS7_
2827:__ZNK15dense_hashtableINSt3__24pairIKN9ShaderLab7Program23ShaderKeywordSetAndHashENS3_21SubProgramLookupEntryEEES4_NS3_24ShaderKeywordHashFunctorEN14dense_hash_mapIS4_S6_S8_NS0_8equal_toIS4_EE13stl_allocatorIS7_L18MemLabelIdentifier72ELi16EEE9SelectKeyESB_SE_E12test_deletedEm
2828:__ZNK15dense_hashtableINSt3__24pairIKN9ShaderLab7Program23ShaderKeywordSetAndHashENS3_21SubProgramLookupEntryEEES4_NS3_24ShaderKeywordHashFunctorEN14dense_hash_mapIS4_S6_S8_NS0_8equal_toIS4_EE13stl_allocatorIS7_L18MemLabelIdentifier72ELi16EEE9SelectKeyESB_SE_E12test_deletedERK30dense_hashtable_const_iteratorIS7_S4_S8_SG_SB_SE_E
2829:__ZN15dense_hashtableINSt3__24pairIKN9ShaderLab7Program23ShaderKeywordSetAndHashENS3_21SubProgramLookupEntryEEES4_NS3_24ShaderKeywordHashFunctorEN14dense_hash_mapIS4_S6_S8_NS0_8equal_toIS4_EE13stl_allocatorIS7_L18MemLabelIdentifier72ELi16EEE9SelectKeyESB_SE_E12maybe_shrinkEv
2830:__ZN15dense_hashtableINSt3__24pairIKN9ShaderLab7Program23ShaderKeywordSetAndHashENS3_21SubProgramLookupEntryEEES4_NS3_24ShaderKeywordHashFunctorEN14dense_hash_mapIS4_S6_S8_NS0_8equal_toIS4_EE13stl_allocatorIS7_L18MemLabelIdentifier72ELi16EEE9SelectKeyESB_SE_E9copy_fromERKSH_m
2831:__ZNK15dense_hashtableINSt3__24pairIKN9ShaderLab7Program23ShaderKeywordSetAndHashENS3_21SubProgramLookupEntryEEES4_NS3_24ShaderKeywordHashFunctorEN14dense_hash_mapIS4_S6_S8_NS0_8equal_toIS4_EE13stl_allocatorIS7_L18MemLabelIdentifier72ELi16EEE9SelectKeyESB_SE_E10test_emptyEm
2832:__ZN9ShaderLab10SubProgram7CompileERNS_15CompilationDataE
2833:__ZNK9ShaderLab7Program24MarkVariantAsUnsupportedERK16ShaderKeywordSet
2834:__ZN20GpuProgramParametersaSERKS_
2835:__Z34UnityShaderExtCanCompileGPUProgramRK16ShaderKeywordSet20ShaderGpuProgramType
2836:__ZN16PropertyNamesSet6insertERKS_
2837:__ZN22CreateGpuProgramOutputD2Ev
2838:__ZN13dynamic_arrayIN20GpuProgramParameters14ConstantBufferELm0EED2Ev
2839:__ZN13dynamic_arrayIN20GpuProgramParameters15StructParameterELm0EED2Ev
2840:__ZN13dynamic_arrayIN20GpuProgramParameters14ValueParameterELm0EE21resize_buffer_nocheckEm12ResizePolicy
2841:__ZN13dynamic_arrayIN20GpuProgramParameters14ConstantBufferELm0EE6assignEPKS1_S4_
2842:__ZN13dynamic_arrayIN20GpuProgramParameters14ConstantBufferELm0EE21resize_buffer_nocheckEm12ResizePolicy
2843:__ZN13dynamic_arrayIN20GpuProgramParameters15StructParameterELm0EE6assignEPKS1_S4_
2844:__ZN22CreateGpuProgramOutputC2Ev
2845:__ZN8keywords19ComputeKeywordMatchERK16ShaderKeywordSetS2_
2846:__ZN18SharedMaterialDataC2ERKS_
2847:__ZN19RenderBufferManager7Buffers17ReleaseTempBufferEP9GfxBuffer
2848:__ZN10MemoryPool8AllocateEm
2849:__ZN4core8hash_mapIN19RenderBufferManager7Buffers3KeyEPNS2_11BufferEntryENS2_9KeyHasherENSt3__28equal_toIS3_EEE15insert_internalIRKS3_RKS5_EENS_4pairINS_8hash_setINSG_ISC_S5_Lb0EEENS_9hash_pairIS6_SC_S5_EENS_10equal_pairIS9_SC_S5_EEE13node_iteratorISI_EEbLb0EEEOT_OT0_
2850:__ZN10MemoryPool14AllocNewBubbleEv
2851:__ZN19ShaderPropertySheetC2E10MemLabelIdRKS_
2852:__ZN18SharedMaterialDataD2Ev
2853:__ZN18SharedMaterialDataD0Ev
2854:__ZN24MaterialDisplayListCache20MaterialDisplayLists22InvalidateDisplayListsEv
2855:__ZN24MaterialDisplayListCache16CachedShaderPass10ReleaseAllEv
2856:__ZN6Shader10GetDefaultEv
2857:__ZN19ShaderPropertySheet8CopyFromERKS_
2858:__ZN18UnityPropertySheet20AddNewShaderlabPropsERK19ShaderPropertySheet
2859:__ZN18UnityPropertySheet25AssignDefinedPropertiesToER19ShaderPropertySheet
2860:__ZN8Material18SetTextureInternalEN9ShaderLab16FastPropertyNameEP7Textureb
2861:__ZN24MaterialDisplayListCache22InvalidateDisplayListsER18SharedMaterialData
2862:__ZN19ShaderPropertySheet10SetTextureERK23FastTexturePropertyNamePK7Texture
2863:__ZN8Material28UpdateHashesOnPropertyChangeEN9ShaderLab16FastPropertyNameE
2864:__ZN23TextureStreamingManager14UpdateMaterialER8Material
2865:__ZN20TextureStreamingData15FreeTextureInfoEP17StreamingRenderer
2866:__ZN19ShaderPropertySheet18AddTextureFromInfoERK23FastTexturePropertyNamePKN9ShaderLab25SerializedTexturePropertyE
2867:__ZN19ShaderPropertySheet17UpdateTextureInfoEiRK23FastTexturePropertyNamePK7Textureb9TextureID
2868:__Z22GetTextureDecodeValues16TextureUsageMode17TextureColorSpace
2869:__ZN19ShaderPropertySheet37CreateTextureAuxPropertyUninitializedEN9ShaderLab16FastPropertyNameES1_PKc
2870:__ZN9ShaderLab6TexEnvC2ERKNS_25SerializedTexturePropertyE
2871:__ZN19ShaderPropertySheet9SetVectorEN9ShaderLab16FastPropertyNameERK8Vector4fNS_8SetFlagsE
2872:__ZN19ShaderPropertySheet23SetTextureWithPlacementERK23FastTexturePropertyNamePK7Texture8Vector2fS6_
2873:__ZNK19ShaderPropertySheet24GetFloatValueInsRGBSpaceEi
2874:__ZNK19ShaderPropertySheet25GetVectorValueInsRGBSpaceEi
2875:__ZNK22BuiltinResourceManager11GetResourceEPKN5Unity4TypeEN4core16basic_string_refIcEE
2876:__ZN9ShaderLab9IntShader19CreateDummyFallbackEv
2877:__ZN9ShaderLab9IntShader8PostLoadEP6Shader
2878:__ZN9ShaderLab9SubShader8PostLoadEP6Shader
2879:__ZN9shadertag16GetShaderTagNameE11ShaderTagID
2880:__ZN9ShaderLab19ParseQueueAndOffsetERKN4core12basic_stringIcNS0_20StringStorageDefaultIcEEEERi
2881:__Z7ToUpperIN4core12basic_stringIcNS0_20StringStorageDefaultIcEEEEET_RKS5_
2882:__ZNK9ShaderLab11ShaderState29GetSupportsFullForwardShadowsEv
2883:__ZN9ShaderLab9SubShaderC2E10MemLabelId
2884:__ZNK13sorted_vectorIN22BuiltinResourceManager8ResourceENSt3__24lessIS1_EENS2_9allocatorIS1_EEE4findIS1_EENS2_11__wrap_iterIPKS1_EERKT_
2885:__Z30PPtrToObjectDontLoadThreadSafeI9TransformEPT_4PPtrIS1_E
2886:__ZNK28ReflectionProbeAnchorManager35FindCachedReflectionProbeFromAnchorEPK9TransformRK4AABBRS3_RsS7_
2887:__Z29GetLightProbesCoefficientTypeRK17LightProbeContextRK10RenderNodeb
2888:__ZNK28ReflectionProbeAnchorManager28GetCachedProbeAnchorPositionERK9Transform
2889:__Z38CalculateLightProbeSamplingCoordinatesRK17LightProbeContextRK8Vector3fiR29LightProbeSamplingCoordinates
2890:__ZNK11LightProbes14LightProbeData33GetLightProbeInterpolationWeightsERK8Vector3fRiR8Vector4f
2891:__Z37GetBarycentricCoordinatesForOuterCellPPK8Vector3fRK13dynamic_arrayIS_Lm0EERS0_RK11TetrahedronR8Vector4f
2892:__ZN15LightProbeUtils32BarycentricCoordinates3DTriangleEPK8Vector3fRS1_
2893:__ZN28ReflectionProbeAnchorManager37FindReflectionProbeFromAnchorInternalEPK9Transform8Vector3fRK4AABBRS4_RsS8_
2894:__ZNK10GameObject25QueryComponentByExactTypeEPKN5Unity4TypeE
2895:__ZN12BaseRenderer25FlattenSharedMaterialDataILb0EEEvRKS_R22PerThreadPageAllocatorR10RenderNode
2896:__ZN24MeshIntermediateRenderer16StaticInitializeEPv
2897:__ZN24MeshIntermediateRenderer13StaticDestroyEPv
2898:__ZN30ProceduralIntermediateRenderer16StaticInitializeEPv
2899:__ZN30ProceduralIntermediateRenderer13StaticDestroyEPv
2900:__ZN38ProceduralIndirectIntermediateRenderer16StaticInitializeEPv
2901:__ZN38ProceduralIndirectIntermediateRenderer13StaticDestroyEPv
2902:__ZN13RuntimeStaticI20BurstCompilerServiceLb0EE16StaticInitializeEPv
2903:__ZN13RuntimeStaticI20BurstCompilerServiceLb0EE13StaticDestroyEPv
2904:__ZL44DelegateCache_InitializeRegisterDomainReloadPv
2905:__ZL25CleanupAllCachedDelegatesv
2906:__ZN20BurstCompilerService12InternalDataD2Ev
2907:__ZN24StaticInitializeInternal13ConstructTypeI20BurstCompilerServiceLb0EEEPvS2_10MemLabelId
2908:__ZN20BurstCompilerServiceC2Ev
2909:__ZN20BurstCompilerService40NativeGetExternalFunctionPointerCallbackEPKc
2910:__ZL22RegisterICallWithBurstPKcPKv
2911:__Z41scripting_add_icall_registration_callbackPFvPKcPKvE
2912:__ZN4core8hash_mapINS_12basic_stringIcNS_20StringStorageDefaultIcEEEEPKvNS_4hashIS4_EENSt3__28equal_toIS4_EEEixERKS4_
2913:__Z11burst_abortPKcS0_
2914:__Z23burst_get_dispatch_infov
2915:__ZL28burst_abort_optional_longjmpPKcS0_b
2916:__ZN4core8hash_setINS_4pairIKNS_12basic_stringIcNS_20StringStorageDefaultIcEEEEPKvLb1EEENS_9hash_pairINS_4hashIS5_EES6_S8_EENS_10equal_pairINSt3__28equal_toIS5_EES6_S8_EEE6resizeEi
2917:__ZN17BaseObjectManager16StaticInitializeEPv
2918:__ZN17BaseObjectManager13StaticDestroyEPv
2919:__ZN6Object13StaticDestroyEv
2920:__ZN11TypeManager21CleanupGlobalInstanceEv
2921:__ZN11TypeManagerD2Ev
2922:__ZNSt3__26__treeINS_12__value_typeIiN11TypeManager18TypeCallbackStructEEENS_19__map_value_compareIiS4_NS_4lessIiEELb1EEE13stl_allocatorIS4_L18MemLabelIdentifier56ELi16EEE7destroyEPNS_11__tree_nodeIS4_PvEE
2923:__ZN11TypeManager24InitializeGlobalInstanceEv
2924:__ZN6Object16StaticInitializeEv
2925:__ZN11TypeManager12RegisterTypeERK20TypeRegistrationDesc
2926:__ZN11TypeManager36FatalErrorOnPersistentTypeIDConflictEiPKc
2927:__ZNSt3__23mapIiN11TypeManager18TypeCallbackStructENS_4lessIiEE13stl_allocatorINS_4pairIKiS2_EEL18MemLabelIdentifier56ELi16EEEixERS7_
2928:__ZN4core8hash_mapIPKcPK4RTTIN11TypeManager23ConstCharPtrHashFunctorENS6_19ConstCharPtrEqualToEEixERKS2_
2929:__ZN13RuntimeStaticI12EventManagerLb1EE16StaticInitializeEPv
2930:__ZN13RuntimeStaticI12EventManagerLb1EE13StaticDestroyEPv
2931:__ZN13RuntimeStaticI14MessageHandlerLb0EE16StaticInitializeEPv
2932:__ZN13RuntimeStaticI14MessageHandlerLb0EE13StaticDestroyEPv
2933:__ZN13dynamic_arrayI16MessageForwarderLm8EED2Ev
2934:__ZN24StaticInitializeInternal13ConstructTypeI14MessageHandlerLb0EEEPvS2_10MemLabelId
2935:__ZN24StaticInitializeInternal13ConstructTypeI12EventManagerLb1EEEPvS2_10MemLabelId
2936:__ZL39CreateRegisteredMessageIdentifiersArrayPv
2937:__ZL40DestroyRegisteredMessageIdentifiersArrayPv
2938:__ZN13RuntimeStaticI12AdsIdHandlerLb0EE16StaticInitializeEPv
2939:__ZN13RuntimeStaticI12AdsIdHandlerLb0EE13StaticDestroyEPv
2940:__ZN13RuntimeStaticI15ApplicationInfoLb0EE16StaticInitializeEPv
2941:__ZN13RuntimeStaticI15ApplicationInfoLb0EE13StaticDestroyEPv
2942:__ZN24StaticInitializeInternal13ConstructTypeI15ApplicationInfoLb0EEEPvS2_10MemLabelId
2943:__ZN12AdsIdHandlerD2Ev
2944:__ZN24StaticInitializeInternal13ConstructTypeI12AdsIdHandlerLb0EEEPvS2_10MemLabelId
2945:__ZN13RuntimeStaticI18SpriteAtlasManagerLb1EE16StaticInitializeEPv
2946:__ZN24StaticInitializeInternal13ConstructTypeI18SpriteAtlasManagerLb1EEEPvS2_10MemLabelId
2947:__ZZN18SpriteAtlasManagerC1E10MemLabelIdEN46EarlyUpdateSpriteAtlasManagerUpdateRegistrator7ForwardEv
2948:__ZN18SpriteAtlasManager21CleanupInvalidAtlasesEv
2949:__ZN18SpriteAtlasManager21RequestAtlasViaScriptEv
2950:__ZN13sorted_vectorIN4core12basic_stringIcNS0_20StringStorageDefaultIcEEEENSt3__24lessIS4_EE13stl_allocatorIS4_L18MemLabelIdentifier88ELi16EEE21sort_clear_duplicatesEv
2951:__ZN18ScriptingArguments9AddStringEN4core16basic_string_refIcEE
2952:__Z13FormatOrderedPKcz
2953:__ZL20FormatOrderedProcessPKcP17FormatOrderedDataPc
2954:__Z20scripting_string_newPKcj
2955:__ZNSt3__213__stable_sortIRNS_4lessIN4core12basic_stringIcNS2_20StringStorageDefaultIcEEEEEENS_11__wrap_iterIPS6_EEEEvT0_SC_T_NS_15iterator_traitsISC_E15difference_typeEPNSF_10value_typeEl
2956:__Z17remove_duplicatesINSt3__211__wrap_iterIPN4core12basic_stringIcNS2_20StringStorageDefaultIcEEEEEENS0_4lessIS6_EEET_SB_SB_T0_
2957:__ZNSt3__26vectorIN4core12basic_stringIcNS1_20StringStorageDefaultIcEEEE13stl_allocatorIS5_L18MemLabelIdentifier88ELi16EEE5eraseENS_11__wrap_iterIPKS5_EESD_
2958:__ZNSt3__216__insertion_sortIRNS_4lessIN4core12basic_stringIcNS2_20StringStorageDefaultIcEEEEEENS_11__wrap_iterIPS6_EEEEvT0_SC_T_
2959:__ZNSt3__218__stable_sort_moveIRNS_4lessIN4core12basic_stringIcNS2_20StringStorageDefaultIcEEEEEENS_11__wrap_iterIPS6_EEEEvT0_SC_T_NS_15iterator_traitsISC_E15difference_typeEPNSF_10value_typeE
2960:__ZNSt3__219__merge_move_assignIRNS_4lessIN4core12basic_stringIcNS2_20StringStorageDefaultIcEEEEEEPS6_S9_NS_11__wrap_iterIS9_EEEEvT0_SC_T1_SD_T2_T_
2961:__ZNSt3__215__inplace_mergeIRNS_4lessIN4core12basic_stringIcNS2_20StringStorageDefaultIcEEEEEENS_11__wrap_iterIPS6_EEEEvT0_SC_SC_T_NS_15iterator_traitsISC_E15difference_typeESG_PNSF_10value_typeEl
2962:__ZNSt3__224__buffered_inplace_mergeIRNS_4lessIN4core12basic_stringIcNS2_20StringStorageDefaultIcEEEEEENS_11__wrap_iterIPS6_EEEEvT0_SC_SC_T_NS_15iterator_traitsISC_E15difference_typeESG_PNSF_10value_typeE
2963:__ZNSt3__216__rotate_forwardINS_11__wrap_iterIPN4core12basic_stringIcNS2_20StringStorageDefaultIcEEEEEEEET_S9_S9_S9_
2964:__ZNSt3__220__half_inplace_mergeINS_4lessIN4core12basic_stringIcNS2_20StringStorageDefaultIcEEEEEEPS6_NS_11__wrap_iterIS8_EESA_EEvT0_SB_T1_SC_T2_T_
2965:__ZNSt3__220__half_inplace_mergeINS_8__invertIRNS_4lessIN4core12basic_stringIcNS3_20StringStorageDefaultIcEEEEEEEENS_16reverse_iteratorIPS7_EENSB_INS_11__wrap_iterISC_EEEESG_EEvT0_SH_T1_SI_T2_T_
2966:__ZNSt3__221__insertion_sort_moveIRNS_4lessIN4core12basic_stringIcNS2_20StringStorageDefaultIcEEEEEENS_11__wrap_iterIPS6_EEEEvT0_SC_PNS_15iterator_traitsISC_E10value_typeET_
2967:__ZNSt3__222__merge_move_constructIRNS_4lessIN4core12basic_stringIcNS2_20StringStorageDefaultIcEEEEEENS_11__wrap_iterIPS6_EESB_EEvT0_SC_T1_SD_PNS_15iterator_traitsISC_E10value_typeET_
2968:__ZN18SpriteAtlasManagerD2Ev
2969:__ZN18SpriteAtlasManagerD0Ev
2970:__Z29InitializeSortingGroupManagerPv
2971:__Z26CleanupSortingGroupManagerPv
2972:__ZZ29InitializeSortingGroupManagerPvEN44PostLateUpdateSortingGroupsUpdateRegistrator7ForwardEv
2973:__ZN19SortingGroupManager6UpdateEv
2974:__ZNK9Transform11GetPositionEv
2975:__ZN19SpriteRendererGroup16StaticInitializeEPv
2976:__ZL29PrepareSpriteGroupRenderNodesILb0EEvR35RenderNodeQueuePrepareThreadContext
2977:__ZL29PrepareSpriteGroupRenderNodesILb1EEvR35RenderNodeQueuePrepareThreadContext
2978:__ZL46PrepareRenderNodeQueueExtractionCullingContextR29RenderNodeQueuePrepareContext
2979:__ZL10DrawSpriteRK15RenderNodeQueuej16VertexInputMasksi
2980:__ZN26SpriteIntermediateRenderer15CleanupCallbackER15RenderNodeQueuej
2981:__ZN26SpriteIntermediateRenderer20PrepareSpriteBatchedERK15RenderNodeQueueRK18RenderMultipleData16VertexInputMasks
2982:__ZN8DrawUtil26ApplySharedNodeCustomPropsER9GfxDeviceRK10RenderNodei
2983:__ZN19ShaderPropertySheet20ReservePropertyCountEm
2984:__ZL17DrawSpriteBatchedRK15RenderNodeQueuePK17BatchInstanceDatammm16VertexInputMasks
2985:__Z29CalculateDefaultChannelsToAdd17ShaderChannelMaskS_
2986:__Z40BuildSingleStreamChannelInfoWithDefaultsR18VertexChannelsInfoRK22VertexAttributeFormats17ShaderChannelMaskS4_S4_
2987:__ZN9GfxDevice13GetDynamicVBOEv
2988:__Z20GetSpriteDeviceColorRK10ColorRGBAf
2989:__Z16TransformIndicesPtPKvmmmmb
2990:__Z17TransformVerticesPhRK10Matrix4x4fPKhmm26GfxTransformVerticesParams25GfxTransformVerticesFlagsjS4_
2991:__Z27TransformVerticesStridedREFPhRK10Matrix4x4fjPKhiS4_ii25GfxTransformVerticesFlagsj
2992:__ZN10Matrix3x3f15InvertTransposeEv
2993:__Z26TransformVerticesInnerLoopILb0ELb0ELb0EEvPhRK10Matrix4x4fRK10Matrix3x3fbjPKhiS8_ii25GfxTransformVerticesFlagsj
2994:__Z26TransformVerticesInnerLoopILb1ELb0ELb0EEvPhRK10Matrix4x4fRK10Matrix3x3fbjPKhiS8_ii25GfxTransformVerticesFlagsj
2995:__Z26TransformVerticesInnerLoopILb0ELb1ELb0EEvPhRK10Matrix4x4fRK10Matrix3x3fbjPKhiS8_ii25GfxTransformVerticesFlagsj
2996:__Z26TransformVerticesInnerLoopILb1ELb1ELb0EEvPhRK10Matrix4x4fRK10Matrix3x3fbjPKhiS8_ii25GfxTransformVerticesFlagsj
2997:__Z26TransformVerticesInnerLoopILb0ELb0ELb1EEvPhRK10Matrix4x4fRK10Matrix3x3fbjPKhiS8_ii25GfxTransformVerticesFlagsj
2998:__Z26TransformVerticesInnerLoopILb1ELb0ELb1EEvPhRK10Matrix4x4fRK10Matrix3x3fbjPKhiS8_ii25GfxTransformVerticesFlagsj
2999:__Z26TransformVerticesInnerLoopILb0ELb1ELb1EEvPhRK10Matrix4x4fRK10Matrix3x3fbjPKhiS8_ii25GfxTransformVerticesFlagsj
3000:__Z26TransformVerticesInnerLoopILb1ELb1ELb1EEvPhRK10Matrix4x4fRK10Matrix3x3fbjPKhiS8_ii25GfxTransformVerticesFlagsj
3001:__ZN10Matrix4x4f5ScaleERK8Vector3f
3002:__Z20InvertMatrix4x4_FullPKfPf
3003:__ZN10Matrix4x4fC2ERK10Matrix3x3f
3004:__ZN10Matrix3x3fC2ERK10Matrix4x4f
3005:__ZN10DynamicVBOC2ER9GfxDevice
3006:__ZN10DynamicVBOD2Ev
3007:__ZN10DynamicVBOD0Ev
3008:__ZN10DynamicVBO8GetChunkEjjjj16GfxPrimitiveTypeP16DynamicVBOMemory
3009:__ZN10DynamicVBO12ReleaseChunkEjj
3010:__ZN10DynamicVBO9DrawChunkEP17VertexDeclaration
3011:__ZN10DynamicVBO20CleanupBufferManagerEv
3012:__ZN23DynamicVBOBufferManager23CleanupPerThreadBuffersER9GfxDevice
3013:__ZN10DynamicVBO19FillQuadIndexBufferEv
3014:__ZN13RuntimeStaticI15GUIEventManagerLb0EE16StaticInitializeEPv
3015:__ZN13RuntimeStaticI15GUIEventManagerLb0EE13StaticDestroyEPv
3016:__ZN13RuntimeStaticI22VirtualJoystickManagerLb0EE16StaticInitializeEPv
3017:__ZN13RuntimeStaticI22VirtualJoystickManagerLb0EE13StaticDestroyEPv
3018:__ZN24StaticInitializeInternal13ConstructTypeI22VirtualJoystickManagerLb0EEEPvS2_10MemLabelId
3019:__ZN13RuntimeStaticI15GUIEventManagerLb0EE7DestroyEv
3020:__ZNSt3__212__deque_baseI10InputEventNS_9allocatorIS1_EEE5clearEv
3021:__ZN10InputEventD2Ev
3022:__ZN24StaticInitializeInternal13ConstructTypeI15GUIEventManagerLb0EEEPvS2_10MemLabelId
3023:__ZN13RuntimeStaticINSt3__23mapI9TextureID21SparseTextureInfoGLESNS0_4lessIS2_EENS0_9allocatorINS0_4pairIKS2_S3_EEEEEELb0EE16StaticInitializeEPv
3024:__ZN13RuntimeStaticINSt3__23mapI9TextureID21SparseTextureInfoGLESNS0_4lessIS2_EENS0_9allocatorINS0_4pairIKS2_S3_EEEEEELb0EE13StaticDestroyEPv
3025:__ZNSt3__26__treeINS_12__value_typeI9TextureID21SparseTextureInfoGLESEENS_19__map_value_compareIS2_S4_NS_4lessIS2_EELb1EEENS_9allocatorIS4_EEE7destroyEPNS_11__tree_nodeIS4_PvEE
3026:__ZN9Scripting5Unity11CollectionsL50__ManagedRegistrationHelperFunction_AllocatorProxyEPv
3027:__ZN9Scripting5Unity11CollectionsL75__ManagedRegistrationHelperFunction_DeallocateOnJobCompletionAttributeProxyEPv
3028:__ZN9Scripting5Unity11Collections8LowLevel6UnsafeL65__ManagedRegistrationHelperFunction_NativeContainerAttributeProxyEPv
3029:__ZN9Scripting5Unity11Collections8LowLevel6UnsafeL82__ManagedRegistrationHelperFunction_NativeContainerIsAtomicWriteOnlyAttributeProxyEPv
3030:__ZN9Scripting5Unity11Collections8LowLevel6UnsafeL75__ManagedRegistrationHelperFunction_NativeContainerIsReadOnlyAttributeProxyEPv
3031:__ZN9Scripting5Unity11Collections8LowLevel6UnsafeL81__ManagedRegistrationHelperFunction_NativeContainerNeedsThreadIndexAttributeProxyEPv
3032:__ZN9Scripting5Unity11Collections8LowLevel6UnsafeL98__ManagedRegistrationHelperFunction_NativeContainerSupportsDeallocateOnJobCompletionAttributeProxyEPv
3033:__ZN9Scripting5Unity11Collections8LowLevel6UnsafeL90__ManagedRegistrationHelperFunction_NativeContainerSupportsDeferredConvertListToArrayProxyEPv
3034:__ZN9Scripting5Unity11Collections8LowLevel6UnsafeL95__ManagedRegistrationHelperFunction_NativeContainerSupportsMinMaxWriteRestrictionAttributeProxyEPv
3035:__ZN9Scripting5Unity11Collections8LowLevel6UnsafeL89__ManagedRegistrationHelperFunction_NativeDisableContainerSafetyRestrictionAttributeProxyEPv
3036:__ZN9Scripting5Unity11Collections8LowLevel6UnsafeL83__ManagedRegistrationHelperFunction_NativeDisableUnsafePtrRestrictionAttributeProxyEPv
3037:__ZN9Scripting5Unity11Collections8LowLevel6UnsafeL84__ManagedRegistrationHelperFunction_NativeSetClassTypeToNullOnScheduleAttributeProxyEPv
3038:__ZN9Scripting5Unity11Collections8LowLevel6UnsafeL70__ManagedRegistrationHelperFunction_NativeSetThreadIndexAttributeProxyEPv
3039:__ZN9Scripting5Unity11CollectionsL85__ManagedRegistrationHelperFunction_NativeDisableParallelForRestrictionAttributeProxyEPv
3040:__ZN9Scripting5Unity11CollectionsL67__ManagedRegistrationHelperFunction_NativeFixedLengthAttributeProxyEPv
3041:__ZN9Scripting5Unity11CollectionsL80__ManagedRegistrationHelperFunction_NativeMatchesParallelForLengthAttributeProxyEPv
3042:__ZN9Scripting5Unity11CollectionsL58__ManagedRegistrationHelperFunction_ReadOnlyAttributeProxyEPv
3043:__ZN9Scripting5Unity11CollectionsL59__ManagedRegistrationHelperFunction_WriteOnlyAttributeProxyEPv
3044:__ZN9Scripting5Unity2IO8LowLevel6UnsafeL71__ManagedRegistrationHelperFunction_AsyncReadManagerMetricsFiltersProxyEPv
3045:__ZN9Scripting5Unity2IO8LowLevel6UnsafeL70__ManagedRegistrationHelperFunction_AsyncReadManagerRequestMetricProxyEPv
3046:__ZN9Scripting5Unity2IO8LowLevel6UnsafeL49__ManagedRegistrationHelperFunction_PriorityProxyEPv
3047:__ZN9Scripting5Unity9Profiling8LowLevel6UnsafeL68__ManagedRegistrationHelperFunction_ProfilerRecorderDescriptionProxyEPv
3048:__ZN9Scripting5Unity9Profiling8LowLevel6UnsafeL63__ManagedRegistrationHelperFunction_ProfilerRecorderHandleProxyEPv
3049:__ZN9Scripting5Unity9Profiling8LowLevel6UnsafeL62__ManagedRegistrationHelperFunction_ProfilerUnsafeUtilityProxyEPv
3050:__ZN9Scripting5Unity9ProfilingL57__ManagedRegistrationHelperFunction_ProfilerCategoryProxyEPv
3051:__ZN9Scripting5Unity9ProfilingL55__ManagedRegistrationHelperFunction_ProfilerMarkerProxyEPv
3052:__ZN9Scripting5Unity9Profiling14ProfilerMarkerL50__ManagedRegistrationHelperFunction_AutoScopeProxyEPv
3053:__ZN9Scripting5Unity9ProfilingL57__ManagedRegistrationHelperFunction_ProfilerRecorderProxyEPv
3054:__ZN9Scripting5Unity9ProfilingL63__ManagedRegistrationHelperFunction_ProfilerRecorderSampleProxyEPv
3055:__ZN9Scripting11UnityEngine10_Scripting11APIUpdatingL65__ManagedRegistrationHelperFunction_APIUpdaterRuntimeHelpersProxyEPv
3056:__ZN9Scripting11UnityEngineL55__ManagedRegistrationHelperFunction_AnimationCurveProxyEPv
3057:__ZN9Scripting11UnityEngineL52__ManagedRegistrationHelperFunction_ApplicationProxyEPv
3058:__ZN9Scripting11UnityEngineL65__ManagedRegistrationHelperFunction_AssemblyIsEditorAssemblyProxyEPv
3059:__ZN9Scripting11UnityEngineL57__ManagedRegistrationHelperFunction_YieldInstructionProxyEPv
3060:__ZN9Scripting11UnityEngineL55__ManagedRegistrationHelperFunction_AsyncOperationProxyEPv
3061:__ZN9Scripting11UnityEngineL62__ManagedRegistrationHelperFunction_AttributeHelperEngineProxyEPv
3062:__ZN9Scripting11UnityEngineL47__ManagedRegistrationHelperFunction_ObjectProxyEPv
3063:__ZN9Scripting11UnityEngineL50__ManagedRegistrationHelperFunction_ComponentProxyEPv
3064:__ZN9Scripting11UnityEngineL50__ManagedRegistrationHelperFunction_BehaviourProxyEPv
3065:__ZN9Scripting11UnityEngineL51__ManagedRegistrationHelperFunction_BoneWeightProxyEPv
3066:__ZN9Scripting11UnityEngineL52__ManagedRegistrationHelperFunction_BoneWeight1ProxyEPv
3067:__ZN9Scripting11UnityEngineL55__ManagedRegistrationHelperFunction_BootConfigDataProxyEPv
3068:__ZN9Scripting11UnityEngineL48__ManagedRegistrationHelperFunction_Vector3ProxyEPv
3069:__ZN9Scripting11UnityEngineL47__ManagedRegistrationHelperFunction_BoundsProxyEPv
3070:__ZN9Scripting11UnityEngineL50__ManagedRegistrationHelperFunction_BoundsIntProxyEPv
3071:__ZN9Scripting11UnityEngineL58__ManagedRegistrationHelperFunction_CachedAssetBundleProxyEPv
3072:__ZN9Scripting11UnityEngineL51__ManagedRegistrationHelperFunction_CacheIndexProxyEPv
3073:__ZN9Scripting11UnityEngineL47__ManagedRegistrationHelperFunction_CameraProxyEPv
3074:__ZN9Scripting11UnityEngineL64__ManagedRegistrationHelperFunction_ClassLibraryInitializerProxyEPv
3075:__ZN9Scripting11UnityEngineL46__ManagedRegistrationHelperFunction_ColorProxyEPv
3076:__ZN9Scripting11UnityEngineL48__ManagedRegistrationHelperFunction_Color32ProxyEPv
3077:__ZN9Scripting11UnityEngineL51__ManagedRegistrationHelperFunction_ColorGamutProxyEPv
3078:__ZN9Scripting11UnityEngineL54__ManagedRegistrationHelperFunction_ComputeBufferProxyEPv
3079:__ZN9Scripting11UnityEngineL54__ManagedRegistrationHelperFunction_ComputeShaderProxyEPv
3080:__ZN9Scripting11UnityEngineL52__ManagedRegistrationHelperFunction_ContextMenuProxyEPv
3081:__ZN9Scripting11UnityEngineL50__ManagedRegistrationHelperFunction_CoroutineProxyEPv
3082:__ZN9Scripting11UnityEngineL48__ManagedRegistrationHelperFunction_TextureProxyEPv
3083:__ZN9Scripting11UnityEngineL48__ManagedRegistrationHelperFunction_CubemapProxyEPv
3084:__ZN9Scripting11UnityEngineL53__ManagedRegistrationHelperFunction_CubemapArrayProxyEPv
3085:__ZN9Scripting11UnityEngineL53__ManagedRegistrationHelperFunction_CullingGroupProxyEPv
3086:__ZN9Scripting11UnityEngineL54__ManagedRegistrationHelperFunction_RenderTextureProxyEPv
3087:__ZN9Scripting11UnityEngineL60__ManagedRegistrationHelperFunction_CustomRenderTextureProxyEPv
3088:__ZN9Scripting11UnityEngineL67__ManagedRegistrationHelperFunction_CustomRenderTextureManagerProxyEPv
3089:__ZN9Scripting11UnityEngineL70__ManagedRegistrationHelperFunction_CustomRenderTextureUpdateZoneProxyEPv
3090:__ZN9Scripting11UnityEngineL46__ManagedRegistrationHelperFunction_DebugProxyEPv
3091:__ZN9Scripting11UnityEngineL62__ManagedRegistrationHelperFunction_DefaultExecutionOrderProxyEPv
3092:__ZN9Scripting11UnityEngineL57__ManagedRegistrationHelperFunction_DiagnosticSwitchProxyEPv
3093:__ZN9Scripting11UnityEngineL66__ManagedRegistrationHelperFunction_DisallowMultipleComponentProxyEPv
3094:__ZN9Scripting11UnityEngineL48__ManagedRegistrationHelperFunction_DisplayProxyEPv
3095:__ZN9Scripting11UnityEngineL49__ManagedRegistrationHelperFunction_EnumInfoProxyEPv
3096:__ZN9Scripting11UnityEngine6EventsL55__ManagedRegistrationHelperFunction_UnityEventBaseProxyEPv
3097:__ZN9Scripting11UnityEngine6EventsL51__ManagedRegistrationHelperFunction_UnityEventProxyEPv
3098:__ZN9Scripting11UnityEngine6EventsL53__ManagedRegistrationHelperFunction_UnityEvent_1ProxyEPv
3099:__ZN9Scripting11UnityEngine6EventsL53__ManagedRegistrationHelperFunction_UnityEvent_2ProxyEPv
3100:__ZN9Scripting11UnityEngine6EventsL53__ManagedRegistrationHelperFunction_UnityEvent_3ProxyEPv
3101:__ZN9Scripting11UnityEngine6EventsL53__ManagedRegistrationHelperFunction_UnityEvent_4ProxyEPv
3102:__ZN9Scripting11UnityEngineL74__ManagedRegistrationHelperFunction_ExcludeFromObjectFactoryAttributeProxyEPv
3103:__ZN9Scripting11UnityEngineL67__ManagedRegistrationHelperFunction_ExcludeFromPresetAttributeProxyEPv
3104:__ZN9Scripting11UnityEngineL54__ManagedRegistrationHelperFunction_ExecuteAlwaysProxyEPv
3105:__ZN9Scripting11UnityEngineL58__ManagedRegistrationHelperFunction_ExecuteInEditModeProxyEPv
3106:__ZN9Scripting11UnityEngine12Experimental18GlobalIlluminationL52__ManagedRegistrationHelperFunction_LightDataGIProxyEPv
3107:__ZN9Scripting11UnityEngine12Experimental18GlobalIlluminationL53__ManagedRegistrationHelperFunction_LightmappingProxyEPv
3108:__ZN9Scripting11UnityEngine12Experimental9PlayablesL55__ManagedRegistrationHelperFunction_CameraPlayableProxyEPv
3109:__ZN9Scripting11UnityEngine12Experimental9PlayablesL63__ManagedRegistrationHelperFunction_MaterialEffectPlayableProxyEPv
3110:__ZN9Scripting11UnityEngine12Experimental9PlayablesL61__ManagedRegistrationHelperFunction_TextureMixerPlayableProxyEPv
3111:__ZN9Scripting11UnityEngine12Experimental9PlayablesL62__ManagedRegistrationHelperFunction_TexturePlayableOutputProxyEPv
3112:__ZN9Scripting11UnityEngine12Experimental9RenderingL71__ManagedRegistrationHelperFunction_BuiltinRuntimeReflectionSystemProxyEPv
3113:__ZN9Scripting11UnityEngine12Experimental9RenderingL72__ManagedRegistrationHelperFunction_RayTracingAccelerationStructureProxyEPv
3114:__ZN9Scripting11UnityEngine12Experimental9RenderingL82__ManagedRegistrationHelperFunction_ScriptableRuntimeReflectionSystemSettingsProxyEPv
3115:__ZN9Scripting11UnityEngine12Experimental9RenderingL81__ManagedRegistrationHelperFunction_ScriptableRuntimeReflectionSystemWrapperProxyEPv
3116:__ZN9Scripting11UnityEngine12Experimental3U2DL71__ManagedRegistrationHelperFunction_SpriteIntermediateRendererInfoProxyEPv
3117:__ZN9Scripting11UnityEngine12Experimental3U2DL60__ManagedRegistrationHelperFunction_SpriteRendererGroupProxyEPv
3118:__ZN9Scripting11UnityEngineL59__ManagedRegistrationHelperFunction_ExposedReference_1ProxyEPv
3119:__ZN9Scripting11UnityEngineL72__ManagedRegistrationHelperFunction_ExtensionOfNativeClassAttributeProxyEPv
3120:__ZN9Scripting11UnityEngineL65__ManagedRegistrationHelperFunction_FailedToLoadScriptObjectProxyEPv
3121:__ZN9Scripting11UnityEngineL51__ManagedRegistrationHelperFunction_GameObjectProxyEPv
3122:__ZN9Scripting11UnityEngineL49__ManagedRegistrationHelperFunction_GradientProxyEPv
3123:__ZN9Scripting11UnityEngineL57__ManagedRegistrationHelperFunction_GradientAlphaKeyProxyEPv
3124:__ZN9Scripting11UnityEngineL57__ManagedRegistrationHelperFunction_GradientColorKeyProxyEPv
3125:__ZN9Scripting11UnityEngineL55__ManagedRegistrationHelperFunction_GraphicsBufferProxyEPv
3126:__ZN9Scripting11UnityEngineL48__ManagedRegistrationHelperFunction_Hash128ProxyEPv
3127:__ZN9Scripting11UnityEngineL58__ManagedRegistrationHelperFunction_HDROutputSettingsProxyEPv
3128:__ZN9Scripting11UnityEngineL57__ManagedRegistrationHelperFunction_HelpURLAttributeProxyEPv
3129:__ZN9Scripting11UnityEngineL56__ManagedRegistrationHelperFunction_HideInInspectorProxyEPv
3130:__ZN9Scripting11UnityEngineL62__ManagedRegistrationHelperFunction_ImageEffectAfterScaleProxyEPv
3131:__ZN9Scripting11UnityEngineL58__ManagedRegistrationHelperFunction_ImageEffectOpaqueProxyEPv
3132:__ZN9Scripting11UnityEngineL67__ManagedRegistrationHelperFunction_ImageEffectTransformsToLDRProxyEPv
3133:__ZN9Scripting11UnityEngineL69__ManagedRegistrationHelperFunction_ImageEffectUsesCommandBufferProxyEPv
3134:__ZN9Scripting11UnityEngineL49__ManagedRegistrationHelperFunction_KeyframeProxyEPv
3135:__ZN9Scripting11UnityEngineL50__ManagedRegistrationHelperFunction_LayerMaskProxyEPv
3136:__ZN9Scripting11UnityEngineL57__ManagedRegistrationHelperFunction_LightingSettingsProxyEPv
3137:__ZN9Scripting11UnityEngineL53__ManagedRegistrationHelperFunction_LightmapDataProxyEPv
3138:__ZN9Scripting11UnityEngineL44__ManagedRegistrationHelperFunction_LODProxyEPv
3139:__ZN9Scripting11UnityEngineL60__ManagedRegistrationHelperFunction_LowerResBlitTextureProxyEPv
3140:__ZN9Scripting11UnityEngine8LowLevelL65__ManagedRegistrationHelperFunction_PlayerLoopSystemInternalProxyEPv
3141:__ZN9Scripting11UnityEngineL61__ManagedRegistrationHelperFunction_ManagedStreamHelpersProxyEPv
3142:__ZN9Scripting11UnityEngineL49__ManagedRegistrationHelperFunction_MaterialProxyEPv
3143:__ZN9Scripting11UnityEngineL50__ManagedRegistrationHelperFunction_Matrix4x4ProxyEPv
3144:__ZN9Scripting11UnityEngineL45__ManagedRegistrationHelperFunction_MeshProxyEPv
3145:__ZN9Scripting11UnityEngineL51__ManagedRegistrationHelperFunction_MeshFilterProxyEPv
3146:__ZN9Scripting11UnityEngineL49__ManagedRegistrationHelperFunction_RendererProxyEPv
3147:__ZN9Scripting11UnityEngineL53__ManagedRegistrationHelperFunction_MeshRendererProxyEPv
3148:__ZN9Scripting11UnityEngineL54__ManagedRegistrationHelperFunction_MonoBehaviourProxyEPv
3149:__ZN9Scripting11UnityEngineL57__ManagedRegistrationHelperFunction_ScriptableObjectProxyEPv
3150:__ZN9Scripting11UnityEngine10Networking16PlayerConnectionL57__ManagedRegistrationHelperFunction_PlayerConnectionProxyEPv
3151:__ZN9Scripting11UnityEngineL46__ManagedRegistrationHelperFunction_PlaneProxyEPv
3152:__ZN9Scripting11UnityEngine9PlayablesL49__ManagedRegistrationHelperFunction_PlayableProxyEPv
3153:__ZN9Scripting11UnityEngine9PlayablesL54__ManagedRegistrationHelperFunction_PlayableAssetProxyEPv
3154:__ZN9Scripting11UnityEngine9PlayablesL58__ManagedRegistrationHelperFunction_PlayableBehaviourProxyEPv
3155:__ZN9Scripting11UnityEngine9PlayablesL54__ManagedRegistrationHelperFunction_PlayableGraphProxyEPv
3156:__ZN9Scripting11UnityEngine9PlayablesL55__ManagedRegistrationHelperFunction_PlayableHandleProxyEPv
3157:__ZN9Scripting11UnityEngine9PlayablesL55__ManagedRegistrationHelperFunction_PlayableOutputProxyEPv
3158:__ZN9Scripting11UnityEngine9PlayablesL61__ManagedRegistrationHelperFunction_PlayableOutputHandleProxyEPv
3159:__ZN9Scripting11UnityEngine9PlayablesL61__ManagedRegistrationHelperFunction_ScriptPlayableOutputProxyEPv
3160:__ZN9Scripting11UnityEngine10PlayerLoopL52__ManagedRegistrationHelperFunction_EarlyUpdateProxyEPv
3161:__ZN9Scripting11UnityEngine10PlayerLoop11EarlyUpdateL65__ManagedRegistrationHelperFunction_AnalyticsCoreStatsUpdateProxyEPv
3162:__ZN9Scripting11UnityEngine10PlayerLoop11EarlyUpdateL53__ManagedRegistrationHelperFunction_ARCoreUpdateProxyEPv
3163:__ZN9Scripting11UnityEngine10PlayerLoop11EarlyUpdateL67__ManagedRegistrationHelperFunction_ClearIntermediateRenderersProxyEPv
3164:__ZN9Scripting11UnityEngine10PlayerLoop11EarlyUpdateL51__ManagedRegistrationHelperFunction_ClearLinesProxyEPv
3165:__ZN9Scripting11UnityEngine10PlayerLoop11EarlyUpdateL65__ManagedRegistrationHelperFunction_DeliverIosPlatformEventsProxyEPv
3166:__ZN9Scripting11UnityEngine10PlayerLoop11EarlyUpdateL65__ManagedRegistrationHelperFunction_DispatchEventQueueEventsProxyEPv
3167:__ZN9Scripting11UnityEngine10PlayerLoop11EarlyUpdateL62__ManagedRegistrationHelperFunction_ExecuteMainThreadJobsProxyEPv
3168:__ZN9Scripting11UnityEngine10PlayerLoop11EarlyUpdateL53__ManagedRegistrationHelperFunction_GpuTimestampProxyEPv
3169:__ZN9Scripting11UnityEngine10PlayerLoop11EarlyUpdateL67__ManagedRegistrationHelperFunction_PerformanceAnalyticsUpdateProxyEPv
3170:__ZN9Scripting11UnityEngine10PlayerLoop11EarlyUpdateL82__ManagedRegistrationHelperFunction_PhysicsResetInterpolatedTransformPositionProxyEPv
3171:__ZN9Scripting11UnityEngine10PlayerLoop11EarlyUpdateL64__ManagedRegistrationHelperFunction_PlayerCleanupCachedDataProxyEPv
3172:__ZN9Scripting11UnityEngine10PlayerLoop11EarlyUpdateL65__ManagedRegistrationHelperFunction_PollHtcsPlayerConnectionProxyEPv
3173:__ZN9Scripting11UnityEngine10PlayerLoop11EarlyUpdateL61__ManagedRegistrationHelperFunction_PollPlayerConnectionProxyEPv
3174:__ZN9Scripting11UnityEngine10PlayerLoop11EarlyUpdateL60__ManagedRegistrationHelperFunction_PresentBeforeUpdateProxyEPv
3175:__ZN9Scripting11UnityEngine10PlayerLoop11EarlyUpdateL61__ManagedRegistrationHelperFunction_ProcessMouseInWindowProxyEPv
3176:__ZN9Scripting11UnityEngine10PlayerLoop11EarlyUpdateL59__ManagedRegistrationHelperFunction_ProcessRemoteInputProxyEPv
3177:__ZN9Scripting11UnityEngine10PlayerLoop11EarlyUpdateL59__ManagedRegistrationHelperFunction_ProfilerStartFrameProxyEPv
3178:__ZN9Scripting11UnityEngine10PlayerLoop11EarlyUpdateL64__ManagedRegistrationHelperFunction_RendererNotifyInvisibleProxyEPv
3179:__ZN9Scripting11UnityEngine10PlayerLoop11EarlyUpdateL68__ManagedRegistrationHelperFunction_ResetFrameStatsAfterPresentProxyEPv
3180:__ZN9Scripting11UnityEngine10PlayerLoop11EarlyUpdateL69__ManagedRegistrationHelperFunction_ScriptRunDelayedStartupFrameProxyEPv
3181:__ZN9Scripting11UnityEngine10PlayerLoop11EarlyUpdateL65__ManagedRegistrationHelperFunction_SpriteAtlasManagerUpdateProxyEPv
3182:__ZN9Scripting11UnityEngine10PlayerLoop11EarlyUpdateL52__ManagedRegistrationHelperFunction_TangoUpdateProxyEPv
3183:__ZN9Scripting11UnityEngine10PlayerLoop11EarlyUpdateL62__ManagedRegistrationHelperFunction_UnityWebRequestUpdateProxyEPv
3184:__ZN9Scripting11UnityEngine10PlayerLoop11EarlyUpdateL67__ManagedRegistrationHelperFunction_UpdateAsyncReadbackManagerProxyEPv
3185:__ZN9Scripting11UnityEngine10PlayerLoop11EarlyUpdateL66__ManagedRegistrationHelperFunction_UpdateCanvasRectTransformProxyEPv
3186:__ZN9Scripting11UnityEngine10PlayerLoop11EarlyUpdateL59__ManagedRegistrationHelperFunction_UpdateInputManagerProxyEPv
3187:__ZN9Scripting11UnityEngine10PlayerLoop11EarlyUpdateL53__ManagedRegistrationHelperFunction_UpdateKinectProxyEPv
3188:__ZN9Scripting11UnityEngine10PlayerLoop11EarlyUpdateL63__ManagedRegistrationHelperFunction_UpdateMainGameViewRectProxyEPv
3189:__ZN9Scripting11UnityEngine10PlayerLoop11EarlyUpdateL57__ManagedRegistrationHelperFunction_UpdatePreloadingProxyEPv
3190:__ZN9Scripting11UnityEngine10PlayerLoop11EarlyUpdateL63__ManagedRegistrationHelperFunction_UpdateStreamingManagerProxyEPv
3191:__ZN9Scripting11UnityEngine10PlayerLoop11EarlyUpdateL70__ManagedRegistrationHelperFunction_UpdateTextureStreamingManagerProxyEPv
3192:__ZN9Scripting11UnityEngine10PlayerLoop11EarlyUpdateL49__ManagedRegistrationHelperFunction_XRUpdateProxyEPv
3193:__ZN9Scripting11UnityEngine10PlayerLoopL52__ManagedRegistrationHelperFunction_FixedUpdateProxyEPv
3194:__ZN9Scripting11UnityEngine10PlayerLoop11FixedUpdateL57__ManagedRegistrationHelperFunction_AudioFixedUpdateProxyEPv
3195:__ZN9Scripting11UnityEngine10PlayerLoop11FixedUpdateL51__ManagedRegistrationHelperFunction_ClearLinesProxyEPv
3196:__ZN9Scripting11UnityEngine10PlayerLoop11FixedUpdateL64__ManagedRegistrationHelperFunction_DirectorFixedSampleTimeProxyEPv
3197:__ZN9Scripting11UnityEngine10PlayerLoop11FixedUpdateL60__ManagedRegistrationHelperFunction_DirectorFixedUpdateProxyEPv
3198:__ZN9Scripting11UnityEngine10PlayerLoop11FixedUpdateL71__ManagedRegistrationHelperFunction_DirectorFixedUpdatePostPhysicsProxyEPv
3199:__ZN9Scripting11UnityEngine10PlayerLoop11FixedUpdateL67__ManagedRegistrationHelperFunction_LegacyFixedAnimationUpdateProxyEPv
3200:__ZN9Scripting11UnityEngine10PlayerLoop11FixedUpdateL60__ManagedRegistrationHelperFunction_NewInputFixedUpdateProxyEPv
3201:__ZN9Scripting11UnityEngine10PlayerLoop11FixedUpdateL61__ManagedRegistrationHelperFunction_Physics2DFixedUpdateProxyEPv
3202:__ZN9Scripting11UnityEngine10PlayerLoop11FixedUpdateL64__ManagedRegistrationHelperFunction_PhysicsClothFixedUpdateProxyEPv
3203:__ZN9Scripting11UnityEngine10PlayerLoop11FixedUpdateL59__ManagedRegistrationHelperFunction_PhysicsFixedUpdateProxyEPv
3204:__ZN9Scripting11UnityEngine10PlayerLoop11FixedUpdateL70__ManagedRegistrationHelperFunction_ScriptRunBehaviourFixedUpdateProxyEPv
3205:__ZN9Scripting11UnityEngine10PlayerLoop11FixedUpdateL71__ManagedRegistrationHelperFunction_ScriptRunDelayedFixedFrameRateProxyEPv
3206:__ZN9Scripting11UnityEngine10PlayerLoop11FixedUpdateL54__ManagedRegistrationHelperFunction_XRFixedUpdateProxyEPv
3207:__ZN9Scripting11UnityEngine10PlayerLoopL55__ManagedRegistrationHelperFunction_InitializationProxyEPv
3208:__ZN9Scripting11UnityEngine10PlayerLoop14InitializationL68__ManagedRegistrationHelperFunction_AsyncUploadTimeSlicedUpdateProxyEPv
3209:__ZN9Scripting11UnityEngine10PlayerLoop14InitializationL59__ManagedRegistrationHelperFunction_DirectorSampleTimeProxyEPv
3210:__ZN9Scripting11UnityEngine10PlayerLoop14InitializationL58__ManagedRegistrationHelperFunction_SynchronizeInputsProxyEPv
3211:__ZN9Scripting11UnityEngine10PlayerLoop14InitializationL57__ManagedRegistrationHelperFunction_SynchronizeStateProxyEPv
3212:__ZN9Scripting11UnityEngine10PlayerLoop14InitializationL66__ManagedRegistrationHelperFunction_UpdateCameraMotionVectorsProxyEPv
3213:__ZN9Scripting11UnityEngine10PlayerLoop14InitializationL54__ManagedRegistrationHelperFunction_XREarlyUpdateProxyEPv
3214:__ZN9Scripting11UnityEngine10PlayerLoopL55__ManagedRegistrationHelperFunction_PostLateUpdateProxyEPv
3215:__ZN9Scripting11UnityEngine10PlayerLoop14PostLateUpdateL56__ManagedRegistrationHelperFunction_BatchModeUpdateProxyEPv
3216:__ZN9Scripting11UnityEngine10PlayerLoop14PostLateUpdateL64__ManagedRegistrationHelperFunction_ClearImmediateRenderersProxyEPv
3217:__ZN9Scripting11UnityEngine10PlayerLoop14PostLateUpdateL59__ManagedRegistrationHelperFunction_DirectorLateUpdateProxyEPv
3218:__ZN9Scripting11UnityEngine10PlayerLoop14PostLateUpdateL60__ManagedRegistrationHelperFunction_DirectorRenderImageProxyEPv
3219:__ZN9Scripting11UnityEngine10PlayerLoop14PostLateUpdateL77__ManagedRegistrationHelperFunction_EndGraphicsJobsAfterScriptLateUpdateProxyEPv
3220:__ZN9Scripting11UnityEngine10PlayerLoop14PostLateUpdateL63__ManagedRegistrationHelperFunction_EnlightenRuntimeUpdateProxyEPv
3221:__ZN9Scripting11UnityEngine10PlayerLoop14PostLateUpdateL67__ManagedRegistrationHelperFunction_ExecuteGameCenterCallbacksProxyEPv
3222:__ZN9Scripting11UnityEngine10PlayerLoop14PostLateUpdateL61__ManagedRegistrationHelperFunction_FinishFrameRenderingProxyEPv
3223:__ZN9Scripting11UnityEngine10PlayerLoop14PostLateUpdateL55__ManagedRegistrationHelperFunction_GUIClearEventsProxyEPv
3224:__ZN9Scripting11UnityEngine10PlayerLoop14PostLateUpdateL54__ManagedRegistrationHelperFunction_InputEndFrameProxyEPv
3225:__ZN9Scripting11UnityEngine10PlayerLoop14PostLateUpdateL63__ManagedRegistrationHelperFunction_MemoryFrameMaintenanceProxyEPv
3226:__ZN9Scripting11UnityEngine10PlayerLoop14PostLateUpdateL67__ManagedRegistrationHelperFunction_ParticleSystemEndUpdateAllProxyEPv
3227:__ZN9Scripting11UnityEngine10PlayerLoop14PostLateUpdateL71__ManagedRegistrationHelperFunction_PhysicsSkinnedClothBeginUpdateProxyEPv
3228:__ZN9Scripting11UnityEngine10PlayerLoop14PostLateUpdateL72__ManagedRegistrationHelperFunction_PhysicsSkinnedClothFinishUpdateProxyEPv
3229:__ZN9Scripting11UnityEngine10PlayerLoop14PostLateUpdateL65__ManagedRegistrationHelperFunction_PlayerEmitCanvasGeometryProxyEPv
3230:__ZN9Scripting11UnityEngine10PlayerLoop14PostLateUpdateL64__ManagedRegistrationHelperFunction_PlayerSendFrameCompleteProxyEPv
3231:__ZN9Scripting11UnityEngine10PlayerLoop14PostLateUpdateL67__ManagedRegistrationHelperFunction_PlayerSendFramePostPresentProxyEPv
3232:__ZN9Scripting11UnityEngine10PlayerLoop14PostLateUpdateL63__ManagedRegistrationHelperFunction_PlayerSendFrameStartedProxyEPv
3233:__ZN9Scripting11UnityEngine10PlayerLoop14PostLateUpdateL61__ManagedRegistrationHelperFunction_PlayerUpdateCanvasesProxyEPv
3234:__ZN9Scripting11UnityEngine10PlayerLoop14PostLateUpdateL57__ManagedRegistrationHelperFunction_PresentAfterDrawProxyEPv
3235:__ZN9Scripting11UnityEngine10PlayerLoop14PostLateUpdateL63__ManagedRegistrationHelperFunction_ProcessWebSendMessagesProxyEPv
3236:__ZN9Scripting11UnityEngine10PlayerLoop14PostLateUpdateL57__ManagedRegistrationHelperFunction_ProfilerEndFrameProxyEPv
3237:__ZN9Scripting11UnityEngine10PlayerLoop14PostLateUpdateL65__ManagedRegistrationHelperFunction_ProfilerSynchronizeStatsProxyEPv
3238:__ZN9Scripting11UnityEngine10PlayerLoop14PostLateUpdateL55__ManagedRegistrationHelperFunction_ResetInputAxisProxyEPv
3239:__ZN9Scripting11UnityEngine10PlayerLoop14PostLateUpdateL73__ManagedRegistrationHelperFunction_ScriptRunDelayedDynamicFrameRateProxyEPv
3240:__ZN9Scripting11UnityEngine10PlayerLoop14PostLateUpdateL59__ManagedRegistrationHelperFunction_ShaderHandleErrorsProxyEPv
3241:__ZN9Scripting11UnityEngine10PlayerLoop14PostLateUpdateL60__ManagedRegistrationHelperFunction_SortingGroupsUpdateProxyEPv
3242:__ZN9Scripting11UnityEngine10PlayerLoop14PostLateUpdateL61__ManagedRegistrationHelperFunction_ThreadedLoadingDebugProxyEPv
3243:__ZN9Scripting11UnityEngine10PlayerLoop14PostLateUpdateL67__ManagedRegistrationHelperFunction_TriggerEndOfFrameCallbacksProxyEPv
3244:__ZN9Scripting11UnityEngine10PlayerLoop14PostLateUpdateL59__ManagedRegistrationHelperFunction_UpdateAllRenderersProxyEPv
3245:__ZN9Scripting11UnityEngine10PlayerLoop14PostLateUpdateL63__ManagedRegistrationHelperFunction_UpdateAllSkinnedMeshesProxyEPv
3246:__ZN9Scripting11UnityEngine10PlayerLoop14PostLateUpdateL52__ManagedRegistrationHelperFunction_UpdateAudioProxyEPv
3247:__ZN9Scripting11UnityEngine10PlayerLoop14PostLateUpdateL66__ManagedRegistrationHelperFunction_UpdateCanvasRectTransformProxyEPv
3248:__ZN9Scripting11UnityEngine10PlayerLoop14PostLateUpdateL64__ManagedRegistrationHelperFunction_UpdateCaptureScreenshotProxyEPv
3249:__ZN9Scripting11UnityEngine10PlayerLoop14PostLateUpdateL67__ManagedRegistrationHelperFunction_UpdateCustomRenderTexturesProxyEPv
3250:__ZN9Scripting11UnityEngine10PlayerLoop14PostLateUpdateL69__ManagedRegistrationHelperFunction_UpdateLightProbeProxyVolumesProxyEPv
3251:__ZN9Scripting11UnityEngine10PlayerLoop14PostLateUpdateL60__ManagedRegistrationHelperFunction_UpdateRectTransformProxyEPv
3252:__ZN9Scripting11UnityEngine10PlayerLoop14PostLateUpdateL57__ManagedRegistrationHelperFunction_UpdateResolutionProxyEPv
3253:__ZN9Scripting11UnityEngine10PlayerLoop14PostLateUpdateL56__ManagedRegistrationHelperFunction_UpdateSubstanceProxyEPv
3254:__ZN9Scripting11UnityEngine10PlayerLoop14PostLateUpdateL52__ManagedRegistrationHelperFunction_UpdateVideoProxyEPv
3255:__ZN9Scripting11UnityEngine10PlayerLoop14PostLateUpdateL60__ManagedRegistrationHelperFunction_UpdateVideoTexturesProxyEPv
3256:__ZN9Scripting11UnityEngine10PlayerLoop14PostLateUpdateL50__ManagedRegistrationHelperFunction_VFXUpdateProxyEPv
3257:__ZN9Scripting11UnityEngine10PlayerLoop14PostLateUpdateL57__ManagedRegistrationHelperFunction_XRPostLateUpdateProxyEPv
3258:__ZN9Scripting11UnityEngine10PlayerLoop14PostLateUpdateL54__ManagedRegistrationHelperFunction_XRPostPresentProxyEPv
3259:__ZN9Scripting11UnityEngine10PlayerLoop14PostLateUpdateL54__ManagedRegistrationHelperFunction_XRPreEndFrameProxyEPv
3260:__ZN9Scripting11UnityEngine10PlayerLoopL54__ManagedRegistrationHelperFunction_PreLateUpdateProxyEPv
3261:__ZN9Scripting11UnityEngine10PlayerLoop13PreLateUpdateL59__ManagedRegistrationHelperFunction_AIUpdatePostScriptProxyEPv
3262:__ZN9Scripting11UnityEngine10PlayerLoop13PreLateUpdateL64__ManagedRegistrationHelperFunction_ConstraintManagerUpdateProxyEPv
3263:__ZN9Scripting11UnityEngine10PlayerLoop13PreLateUpdateL65__ManagedRegistrationHelperFunction_DirectorDeferredEvaluateProxyEPv
3264:__ZN9Scripting11UnityEngine10PlayerLoop13PreLateUpdateL69__ManagedRegistrationHelperFunction_DirectorUpdateAnimationBeginProxyEPv
3265:__ZN9Scripting11UnityEngine10PlayerLoop13PreLateUpdateL67__ManagedRegistrationHelperFunction_DirectorUpdateAnimationEndProxyEPv
3266:__ZN9Scripting11UnityEngine10PlayerLoop13PreLateUpdateL73__ManagedRegistrationHelperFunction_EndGraphicsJobsAfterScriptUpdateProxyEPv
3267:__ZN9Scripting11UnityEngine10PlayerLoop13PreLateUpdateL62__ManagedRegistrationHelperFunction_LegacyAnimationUpdateProxyEPv
3268:__ZN9Scripting11UnityEngine10PlayerLoop13PreLateUpdateL69__ManagedRegistrationHelperFunction_ParticleSystemBeginUpdateAllProxyEPv
3269:__ZN9Scripting11UnityEngine10PlayerLoop13PreLateUpdateL60__ManagedRegistrationHelperFunction_Physics2DLateUpdateProxyEPv
3270:__ZN9Scripting11UnityEngine10PlayerLoop13PreLateUpdateL69__ManagedRegistrationHelperFunction_ScriptRunBehaviourLateUpdateProxyEPv
3271:__ZN9Scripting11UnityEngine10PlayerLoop13PreLateUpdateL63__ManagedRegistrationHelperFunction_UIElementsUpdatePanelsProxyEPv
3272:__ZN9Scripting11UnityEngine10PlayerLoop13PreLateUpdateL51__ManagedRegistrationHelperFunction_UNetUpdateProxyEPv
3273:__ZN9Scripting11UnityEngine10PlayerLoop13PreLateUpdateL68__ManagedRegistrationHelperFunction_UpdateMasterServerInterfaceProxyEPv
3274:__ZN9Scripting11UnityEngine10PlayerLoop13PreLateUpdateL61__ManagedRegistrationHelperFunction_UpdateNetworkManagerProxyEPv
3275:__ZN9Scripting11UnityEngine10PlayerLoopL50__ManagedRegistrationHelperFunction_PreUpdateProxyEPv
3276:__ZN9Scripting11UnityEngine10PlayerLoop9PreUpdateL49__ManagedRegistrationHelperFunction_AIUpdateProxyEPv
3277:__ZN9Scripting11UnityEngine10PlayerLoop9PreUpdateL59__ManagedRegistrationHelperFunction_CheckTexFieldInputProxyEPv
3278:__ZN9Scripting11UnityEngine10PlayerLoop9PreUpdateL62__ManagedRegistrationHelperFunction_IMGUISendQueuedEventsProxyEPv
3279:__ZN9Scripting11UnityEngine10PlayerLoop9PreUpdateL55__ManagedRegistrationHelperFunction_NewInputUpdateProxyEPv
3280:__ZN9Scripting11UnityEngine10PlayerLoop9PreUpdateL56__ManagedRegistrationHelperFunction_Physics2DUpdateProxyEPv
3281:__ZN9Scripting11UnityEngine10PlayerLoop9PreUpdateL54__ManagedRegistrationHelperFunction_PhysicsUpdateProxyEPv
3282:__ZN9Scripting11UnityEngine10PlayerLoop9PreUpdateL56__ManagedRegistrationHelperFunction_SendMouseEventsProxyEPv
3283:__ZN9Scripting11UnityEngine10PlayerLoop9PreUpdateL52__ManagedRegistrationHelperFunction_UpdateVideoProxyEPv
3284:__ZN9Scripting11UnityEngine10PlayerLoop9PreUpdateL51__ManagedRegistrationHelperFunction_WindUpdateProxyEPv
3285:__ZN9Scripting11UnityEngine10PlayerLoopL51__ManagedRegistrationHelperFunction_TimeUpdateProxyEPv
3286:__ZN9Scripting11UnityEngine10PlayerLoop10TimeUpdateL77__ManagedRegistrationHelperFunction_WaitForLastPresentationAndUpdateTimeProxyEPv
3287:__ZN9Scripting11UnityEngine10PlayerLoopL47__ManagedRegistrationHelperFunction_UpdateProxyEPv
3288:__ZN9Scripting11UnityEngine10PlayerLoop6UpdateL55__ManagedRegistrationHelperFunction_DirectorUpdateProxyEPv
3289:__ZN9Scripting11UnityEngine10PlayerLoop6UpdateL65__ManagedRegistrationHelperFunction_ScriptRunBehaviourUpdateProxyEPv
3290:__ZN9Scripting11UnityEngine10PlayerLoop6UpdateL73__ManagedRegistrationHelperFunction_ScriptRunDelayedDynamicFrameRateProxyEPv
3291:__ZN9Scripting11UnityEngine10PlayerLoop6UpdateL62__ManagedRegistrationHelperFunction_ScriptRunDelayedTasksProxyEPv
3292:__ZN9Scripting11UnityEngineL66__ManagedRegistrationHelperFunction_PreferBinarySerializationProxyEPv
3293:__ZN9Scripting11UnityEngineL52__ManagedRegistrationHelperFunction_PreloadDataProxyEPv
3294:__ZN9Scripting11UnityEngine9ProfilingL48__ManagedRegistrationHelperFunction_SamplerProxyEPv
3295:__ZN9Scripting11UnityEngine9ProfilingL54__ManagedRegistrationHelperFunction_CustomSamplerProxyEPv
3296:__ZN9Scripting11UnityEngine9Profiling6Memory12ExperimentalL55__ManagedRegistrationHelperFunction_MemoryProfilerProxyEPv
3297:__ZN9Scripting11UnityEngine9ProfilingL49__ManagedRegistrationHelperFunction_ProfilerProxyEPv
3298:__ZN9Scripting11UnityEngine9ProfilingL49__ManagedRegistrationHelperFunction_RecorderProxyEPv
3299:__ZN9Scripting11UnityEngineL53__ManagedRegistrationHelperFunction_PropertyNameProxyEPv
3300:__ZN9Scripting11UnityEngineL51__ManagedRegistrationHelperFunction_QuaternionProxyEPv
3301:__ZN9Scripting11UnityEngineL45__ManagedRegistrationHelperFunction_RectProxyEPv
3302:__ZN9Scripting11UnityEngineL48__ManagedRegistrationHelperFunction_RectIntProxyEPv
3303:__ZN9Scripting11UnityEngineL51__ManagedRegistrationHelperFunction_RectOffsetProxyEPv
3304:__ZN9Scripting11UnityEngineL50__ManagedRegistrationHelperFunction_TransformProxyEPv
3305:__ZN9Scripting11UnityEngineL54__ManagedRegistrationHelperFunction_RectTransformProxyEPv
3306:__ZN9Scripting11UnityEngineL56__ManagedRegistrationHelperFunction_ReflectionProbeProxyEPv
3307:__ZN9Scripting11UnityEngine9RenderingL64__ManagedRegistrationHelperFunction_AsyncGPUReadbackRequestProxyEPv
3308:__ZN9Scripting11UnityEngine9RenderingL68__ManagedRegistrationHelperFunction_AsyncRequestNativeArrayDataProxyEPv
3309:__ZN9Scripting11UnityEngine9RenderingL60__ManagedRegistrationHelperFunction_BatchCullingContextProxyEPv
3310:__ZN9Scripting11UnityEngine9RenderingL67__ManagedRegistrationHelperFunction_BatchRendererCullingOutputProxyEPv
3311:__ZN9Scripting11UnityEngine9RenderingL59__ManagedRegistrationHelperFunction_BatchRendererGroupProxyEPv
3312:__ZN9Scripting11UnityEngine9RenderingL57__ManagedRegistrationHelperFunction_CameraPropertiesProxyEPv
3313:__ZN9Scripting11UnityEngine9RenderingL54__ManagedRegistrationHelperFunction_CommandBufferProxyEPv
3314:__ZN9Scripting11UnityEngine9RenderingL64__ManagedRegistrationHelperFunction_CommandBufferExtensionsProxyEPv
3315:__ZN9Scripting11UnityEngine9RenderingL57__ManagedRegistrationHelperFunction_CoreCameraValuesProxyEPv
3316:__ZN9Scripting11UnityEngine9RenderingL59__ManagedRegistrationHelperFunction_GraphicsDeviceTypeProxyEPv
3317:__ZN9Scripting11UnityEngine9RenderingL54__ManagedRegistrationHelperFunction_GraphicsFenceProxyEPv
3318:__ZN9Scripting11UnityEngine9RenderingL58__ManagedRegistrationHelperFunction_OnDemandRenderingProxyEPv
3319:__ZN9Scripting11UnityEngine9RenderingL59__ManagedRegistrationHelperFunction_PlatformKeywordSetProxyEPv
3320:__ZN9Scripting11UnityEngine9RenderingL65__ManagedRegistrationHelperFunction_ReflectionProbeBlendInfoProxyEPv
3321:__ZN9Scripting11UnityEngine9RenderingL62__ManagedRegistrationHelperFunction_RenderPipelineManagerProxyEPv
3322:__ZN9Scripting11UnityEngine9RenderingL68__ManagedRegistrationHelperFunction_ScriptableCullingParametersProxyEPv
3323:__ZN9Scripting11UnityEngine9RenderingL54__ManagedRegistrationHelperFunction_ShaderKeywordProxyEPv
3324:__ZN9Scripting11UnityEngine9RenderingL57__ManagedRegistrationHelperFunction_ShaderKeywordSetProxyEPv
3325:__ZN9Scripting11UnityEngine9RenderingL58__ManagedRegistrationHelperFunction_ShaderKeywordTypeProxyEPv
3326:__ZN9Scripting11UnityEngine9RenderingL62__ManagedRegistrationHelperFunction_ShadowDrawingSettingsProxyEPv
3327:__ZN9Scripting11UnityEngine9RenderingL56__ManagedRegistrationHelperFunction_ShadowSplitDataProxyEPv
3328:__ZN9Scripting11UnityEngine9RenderingL61__ManagedRegistrationHelperFunction_SphericalHarmonicsL2ProxyEPv
3329:__ZN9Scripting11UnityEngine9RenderingL67__ManagedRegistrationHelperFunction_SupportedRenderingFeaturesProxyEPv
3330:__ZN9Scripting11UnityEngine9RenderingL66__ManagedRegistrationHelperFunction_VertexAttributeDescriptorProxyEPv
3331:__ZN9Scripting11UnityEngine9RenderingL53__ManagedRegistrationHelperFunction_VisibleLightProxyEPv
3332:__ZN9Scripting11UnityEngine9RenderingL63__ManagedRegistrationHelperFunction_VisibleReflectionProbeProxyEPv
3333:__ZN9Scripting11UnityEngineL57__ManagedRegistrationHelperFunction_RequireComponentProxyEPv
3334:__ZN9Scripting11UnityEngineL51__ManagedRegistrationHelperFunction_ResolutionProxyEPv
3335:__ZN9Scripting11UnityEngineL56__ManagedRegistrationHelperFunction_ResourceRequestProxyEPv
3336:__ZN9Scripting11UnityEngine9ScriptingL58__ManagedRegistrationHelperFunction_PreserveAttributeProxyEPv
3337:__ZN9Scripting11UnityEngineL79__ManagedRegistrationHelperFunction_RuntimeInitializeOnLoadMethodAttributeProxyEPv
3338:__ZN9Scripting11UnityEngine15SceneManagementL53__ManagedRegistrationHelperFunction_SceneManagerProxyEPv
3339:__ZN9Scripting11UnityEngineL57__ManagedRegistrationHelperFunction_ScriptingUtilityProxyEPv
3340:__ZN9Scripting11UnityEngine13SerializationL70__ManagedRegistrationHelperFunction_FormerlySerializedAsAttributeProxyEPv
3341:__ZN9Scripting11UnityEngineL55__ManagedRegistrationHelperFunction_SerializeFieldProxyEPv
3342:__ZN9Scripting11UnityEngineL59__ManagedRegistrationHelperFunction_SerializeReferenceProxyEPv
3343:__ZN9Scripting11UnityEngineL55__ManagedRegistrationHelperFunction_SetupCoroutineProxyEPv
3344:__ZN9Scripting11UnityEngineL47__ManagedRegistrationHelperFunction_SpriteProxyEPv
3345:__ZN9Scripting11UnityEngineL58__ManagedRegistrationHelperFunction_StackTraceUtilityProxyEPv
3346:__ZN9Scripting11UnityEngine9TestToolsL69__ManagedRegistrationHelperFunction_ExcludeFromCoverageAttributeProxyEPv
3347:__ZN9Scripting11UnityEngineL50__ManagedRegistrationHelperFunction_Texture2DProxyEPv
3348:__ZN9Scripting11UnityEngineL55__ManagedRegistrationHelperFunction_Texture2DArrayProxyEPv
3349:__ZN9Scripting11UnityEngineL50__ManagedRegistrationHelperFunction_Texture3DProxyEPv
3350:__ZN9Scripting11UnityEngineL57__ManagedRegistrationHelperFunction_TrackedReferenceProxyEPv
3351:__ZN9Scripting11UnityEngine3U2DL59__ManagedRegistrationHelperFunction_SpriteAtlasManagerProxyEPv
3352:__ZN9Scripting11UnityEngine3U2DL51__ManagedRegistrationHelperFunction_SpriteBoneProxyEPv
3353:__ZN9Scripting11UnityEngineL66__ManagedRegistrationHelperFunction_UnhandledExceptionHandlerProxyEPv
3354:__ZN9Scripting11UnityEngineL55__ManagedRegistrationHelperFunction_UnityExceptionProxyEPv
3355:__ZN9Scripting11UnityEngineL68__ManagedRegistrationHelperFunction_UnitySynchronizationContextProxyEPv
3356:__ZN9Scripting11UnityEngineL48__ManagedRegistrationHelperFunction_Vector2ProxyEPv
3357:__ZN9Scripting11UnityEngineL51__ManagedRegistrationHelperFunction_Vector2IntProxyEPv
3358:__ZN9Scripting11UnityEngineL51__ManagedRegistrationHelperFunction_Vector3IntProxyEPv
3359:__ZN9Scripting11UnityEngineL48__ManagedRegistrationHelperFunction_Vector4ProxyEPv
3360:__ZN9Scripting11UnityEngineL58__ManagedRegistrationHelperFunction_WaitForEndOfFrameProxyEPv
3361:__ZN9Scripting11UnityEngineL59__ManagedRegistrationHelperFunction_WaitForFixedUpdateProxyEPv
3362:__ZN9Scripting11UnityEngineL55__ManagedRegistrationHelperFunction_WaitForSecondsProxyEPv
3363:__ZN9Scripting11UnityEngine19WaitForSecondsProxy9InitProxyEv
3364:__ZN9Scripting11UnityEngine19WaitForSecondsProxy12CleanupProxyEv
3365:__ZN35ScriptingManagedObjectProxyRegistry13RegisterProxyEPKcPFvvES3_
3366:__Z19scripting_array_new17ScriptingClassPtrmm
3367:__ZN9Scripting11UnityEngine23WaitForFixedUpdateProxy9InitProxyEv
3368:__ZN9Scripting11UnityEngine23WaitForFixedUpdateProxy12CleanupProxyEv
3369:__ZN9Scripting11UnityEngine22WaitForEndOfFrameProxy9InitProxyEv
3370:__ZN9Scripting11UnityEngine22WaitForEndOfFrameProxy12CleanupProxyEv
3371:__ZN9Scripting11UnityEngine12Vector4Proxy9InitProxyEv
3372:__ZN9Scripting11UnityEngine12Vector4Proxy12CleanupProxyEv
3373:__ZN9Scripting11UnityEngine15Vector3IntProxy9InitProxyEv
3374:__ZN9Scripting11UnityEngine15Vector3IntProxy12CleanupProxyEv
3375:__ZN9Scripting11UnityEngine15Vector2IntProxy9InitProxyEv
3376:__ZN9Scripting11UnityEngine15Vector2IntProxy12CleanupProxyEv
3377:__ZN9Scripting11UnityEngine12Vector2Proxy9InitProxyEv
3378:__ZN9Scripting11UnityEngine12Vector2Proxy12CleanupProxyEv
3379:__ZN9Scripting11UnityEngine32UnitySynchronizationContextProxy9InitProxyEv
3380:__ZN9Scripting11UnityEngine32UnitySynchronizationContextProxy12CleanupProxyEv
3381:__ZN9Scripting11UnityEngine19UnityExceptionProxy9InitProxyEv
3382:__ZN9Scripting11UnityEngine19UnityExceptionProxy12CleanupProxyEv
3383:__ZN9Scripting11UnityEngine30UnhandledExceptionHandlerProxy9InitProxyEv
3384:__ZN9Scripting11UnityEngine30UnhandledExceptionHandlerProxy12CleanupProxyEv
3385:__ZN9Scripting11UnityEngine3U2D15SpriteBoneProxy9InitProxyEv
3386:__ZN9Scripting11UnityEngine3U2D15SpriteBoneProxy12CleanupProxyEv
3387:__ZN9Scripting11UnityEngine3U2D23SpriteAtlasManagerProxy9InitProxyEv
3388:__ZN9Scripting11UnityEngine3U2D23SpriteAtlasManagerProxy12CleanupProxyEv
3389:__ZN9Scripting11UnityEngine21TrackedReferenceProxy9InitProxyEv
3390:__ZN9Scripting11UnityEngine21TrackedReferenceProxy12CleanupProxyEv
3391:__ZN9Scripting11UnityEngine14Texture3DProxy9InitProxyEv
3392:__ZN9Scripting11UnityEngine14Texture3DProxy12CleanupProxyEv
3393:__ZN9Scripting11UnityEngine19Texture2DArrayProxy9InitProxyEv
3394:__ZN9Scripting11UnityEngine19Texture2DArrayProxy12CleanupProxyEv
3395:__ZN9Scripting11UnityEngine14Texture2DProxy9InitProxyEv
3396:__ZN9Scripting11UnityEngine14Texture2DProxy12CleanupProxyEv
3397:__ZN9Scripting11UnityEngine9TestTools33ExcludeFromCoverageAttributeProxy9InitProxyEv
3398:__ZN9Scripting11UnityEngine9TestTools33ExcludeFromCoverageAttributeProxy12CleanupProxyEv
3399:__ZN9Scripting11UnityEngine22StackTraceUtilityProxy9InitProxyEv
3400:__ZN9Scripting11UnityEngine22StackTraceUtilityProxy12CleanupProxyEv
3401:__ZN9Scripting11UnityEngine11SpriteProxy9InitProxyEv
3402:__ZN9Scripting11UnityEngine11SpriteProxy12CleanupProxyEv
3403:__ZN9Scripting11UnityEngine19SetupCoroutineProxy9InitProxyEv
3404:__ZN9Scripting11UnityEngine19SetupCoroutineProxy12CleanupProxyEv
3405:__ZN9Scripting11UnityEngine23SerializeReferenceProxy9InitProxyEv
3406:__ZN9Scripting11UnityEngine23SerializeReferenceProxy12CleanupProxyEv
3407:__ZN9Scripting11UnityEngine19SerializeFieldProxy9InitProxyEv
3408:__ZN9Scripting11UnityEngine19SerializeFieldProxy12CleanupProxyEv
3409:__ZN9Scripting11UnityEngine13Serialization34FormerlySerializedAsAttributeProxy9InitProxyEv
3410:__ZN9Scripting11UnityEngine13Serialization34FormerlySerializedAsAttributeProxy12CleanupProxyEv
3411:__ZN9Scripting11UnityEngine21ScriptingUtilityProxy9InitProxyEv
3412:__ZN9Scripting11UnityEngine21ScriptingUtilityProxy12CleanupProxyEv
3413:__ZN9Scripting11UnityEngine15SceneManagement17SceneManagerProxy9InitProxyEv
3414:__ZN9Scripting11UnityEngine15SceneManagement17SceneManagerProxy12CleanupProxyEv
3415:__ZN9Scripting11UnityEngine43RuntimeInitializeOnLoadMethodAttributeProxy9InitProxyEv
3416:__ZN9Scripting11UnityEngine43RuntimeInitializeOnLoadMethodAttributeProxy12CleanupProxyEv
3417:__ZN9Scripting11UnityEngine9Scripting22PreserveAttributeProxy9InitProxyEv
3418:__ZN9Scripting11UnityEngine9Scripting22PreserveAttributeProxy12CleanupProxyEv
3419:__ZN9Scripting11UnityEngine20ResourceRequestProxy9InitProxyEv
3420:__ZN9Scripting11UnityEngine20ResourceRequestProxy12CleanupProxyEv
3421:__ZN9Scripting11UnityEngine15ResolutionProxy9InitProxyEv
3422:__ZN9Scripting11UnityEngine15ResolutionProxy12CleanupProxyEv
3423:__ZN9Scripting11UnityEngine21RequireComponentProxy9InitProxyEv
3424:__ZN9Scripting11UnityEngine21RequireComponentProxy12CleanupProxyEv
3425:__ZN9Scripting11UnityEngine9Rendering27VisibleReflectionProbeProxy9InitProxyEv
3426:__ZN9Scripting11UnityEngine9Rendering27VisibleReflectionProbeProxy12CleanupProxyEv
3427:__ZN9Scripting11UnityEngine9Rendering17VisibleLightProxy9InitProxyEv
3428:__ZN9Scripting11UnityEngine9Rendering17VisibleLightProxy12CleanupProxyEv
3429:__ZN9Scripting11UnityEngine9Rendering30VertexAttributeDescriptorProxy9InitProxyEv
3430:__ZN9Scripting11UnityEngine9Rendering30VertexAttributeDescriptorProxy12CleanupProxyEv
3431:__ZN9Scripting11UnityEngine9Rendering31SupportedRenderingFeaturesProxy9InitProxyEv
3432:__ZN9Scripting11UnityEngine9Rendering31SupportedRenderingFeaturesProxy12CleanupProxyEv
3433:__ZN9Scripting11UnityEngine9Rendering25SphericalHarmonicsL2Proxy9InitProxyEv
3434:__ZN9Scripting11UnityEngine9Rendering25SphericalHarmonicsL2Proxy12CleanupProxyEv
3435:__ZN9Scripting11UnityEngine9Rendering20ShadowSplitDataProxy9InitProxyEv
3436:__ZN9Scripting11UnityEngine9Rendering20ShadowSplitDataProxy12CleanupProxyEv
3437:__ZN9Scripting11UnityEngine9Rendering26ShadowDrawingSettingsProxy9InitProxyEv
3438:__ZN9Scripting11UnityEngine9Rendering26ShadowDrawingSettingsProxy12CleanupProxyEv
3439:__ZN9Scripting11UnityEngine9Rendering22ShaderKeywordTypeProxy9InitProxyEv
3440:__ZN9Scripting11UnityEngine9Rendering22ShaderKeywordTypeProxy12CleanupProxyEv
3441:__ZN9Scripting11UnityEngine9Rendering21ShaderKeywordSetProxy9InitProxyEv
3442:__ZN9Scripting11UnityEngine9Rendering21ShaderKeywordSetProxy12CleanupProxyEv
3443:__ZN9Scripting11UnityEngine9Rendering18ShaderKeywordProxy9InitProxyEv
3444:__ZN9Scripting11UnityEngine9Rendering18ShaderKeywordProxy12CleanupProxyEv
3445:__ZN9Scripting11UnityEngine9Rendering32ScriptableCullingParametersProxy9InitProxyEv
3446:__ZN9Scripting11UnityEngine9Rendering32ScriptableCullingParametersProxy12CleanupProxyEv
3447:__ZN9Scripting11UnityEngine9Rendering26RenderPipelineManagerProxy9InitProxyEv
3448:__ZN9Scripting11UnityEngine9Rendering26RenderPipelineManagerProxy12CleanupProxyEv
3449:__ZN9Scripting11UnityEngine9Rendering29ReflectionProbeBlendInfoProxy9InitProxyEv
3450:__ZN9Scripting11UnityEngine9Rendering29ReflectionProbeBlendInfoProxy12CleanupProxyEv
3451:__ZN9Scripting11UnityEngine9Rendering23PlatformKeywordSetProxy9InitProxyEv
3452:__ZN9Scripting11UnityEngine9Rendering23PlatformKeywordSetProxy12CleanupProxyEv
3453:__ZN9Scripting11UnityEngine9Rendering22OnDemandRenderingProxy9InitProxyEv
3454:__ZN9Scripting11UnityEngine9Rendering22OnDemandRenderingProxy12CleanupProxyEv
3455:__ZN9Scripting11UnityEngine9Rendering18GraphicsFenceProxy9InitProxyEv
3456:__ZN9Scripting11UnityEngine9Rendering18GraphicsFenceProxy12CleanupProxyEv
3457:__ZN9Scripting11UnityEngine9Rendering23GraphicsDeviceTypeProxy9InitProxyEv
3458:__ZN9Scripting11UnityEngine9Rendering23GraphicsDeviceTypeProxy12CleanupProxyEv
3459:__ZN9Scripting11UnityEngine9Rendering21CoreCameraValuesProxy9InitProxyEv
3460:__ZN9Scripting11UnityEngine9Rendering21CoreCameraValuesProxy12CleanupProxyEv
3461:__ZN9Scripting11UnityEngine9Rendering28CommandBufferExtensionsProxy9InitProxyEv
3462:__ZN9Scripting11UnityEngine9Rendering28CommandBufferExtensionsProxy12CleanupProxyEv
3463:__ZN9Scripting11UnityEngine9Rendering18CommandBufferProxy9InitProxyEv
3464:__ZN9Scripting11UnityEngine9Rendering18CommandBufferProxy12CleanupProxyEv
3465:__ZN9Scripting11UnityEngine9Rendering21CameraPropertiesProxy9InitProxyEv
3466:__ZN9Scripting11UnityEngine9Rendering21CameraPropertiesProxy12CleanupProxyEv
3467:__ZN9Scripting11UnityEngine9Rendering23BatchRendererGroupProxy9InitProxyEv
3468:__ZN9Scripting11UnityEngine9Rendering23BatchRendererGroupProxy12CleanupProxyEv
3469:__ZN9Scripting11UnityEngine9Rendering31BatchRendererCullingOutputProxy9InitProxyEv
3470:__ZN9Scripting11UnityEngine9Rendering31BatchRendererCullingOutputProxy12CleanupProxyEv
3471:__ZN9Scripting11UnityEngine9Rendering24BatchCullingContextProxy9InitProxyEv
3472:__ZN9Scripting11UnityEngine9Rendering24BatchCullingContextProxy12CleanupProxyEv
3473:__ZN9Scripting11UnityEngine9Rendering32AsyncRequestNativeArrayDataProxy9InitProxyEv
3474:__ZN9Scripting11UnityEngine9Rendering32AsyncRequestNativeArrayDataProxy12CleanupProxyEv
3475:__ZN9Scripting11UnityEngine9Rendering28AsyncGPUReadbackRequestProxy9InitProxyEv
3476:__ZN9Scripting11UnityEngine9Rendering28AsyncGPUReadbackRequestProxy12CleanupProxyEv
3477:__ZN9Scripting11UnityEngine20ReflectionProbeProxy9InitProxyEv
3478:__ZN9Scripting11UnityEngine20ReflectionProbeProxy12CleanupProxyEv
3479:__ZN9Scripting11UnityEngine18RectTransformProxy9InitProxyEv
3480:__ZN9Scripting11UnityEngine18RectTransformProxy12CleanupProxyEv
3481:__ZN9Scripting11UnityEngine14TransformProxy9InitProxyEv
3482:__ZN9Scripting11UnityEngine14TransformProxy12CleanupProxyEv
3483:__ZN9Scripting11UnityEngine15RectOffsetProxy9InitProxyEv
3484:__ZN9Scripting11UnityEngine15RectOffsetProxy12CleanupProxyEv
3485:__ZN9Scripting11UnityEngine12RectIntProxy9InitProxyEv
3486:__ZN9Scripting11UnityEngine12RectIntProxy12CleanupProxyEv
3487:__ZN9Scripting11UnityEngine9RectProxy9InitProxyEv
3488:__ZN9Scripting11UnityEngine9RectProxy12CleanupProxyEv
3489:__ZN9Scripting11UnityEngine15QuaternionProxy9InitProxyEv
3490:__ZN9Scripting11UnityEngine15QuaternionProxy12CleanupProxyEv
3491:__ZN9Scripting11UnityEngine17PropertyNameProxy9InitProxyEv
3492:__ZN9Scripting11UnityEngine17PropertyNameProxy12CleanupProxyEv
3493:__ZN9Scripting11UnityEngine9Profiling13RecorderProxy9InitProxyEv
3494:__ZN9Scripting11UnityEngine9Profiling13RecorderProxy12CleanupProxyEv
3495:__ZN9Scripting11UnityEngine9Profiling13ProfilerProxy9InitProxyEv
3496:__ZN9Scripting11UnityEngine9Profiling13ProfilerProxy12CleanupProxyEv
3497:__ZN9Scripting11UnityEngine9Profiling6Memory12Experimental19MemoryProfilerProxy9InitProxyEv
3498:__ZN9Scripting11UnityEngine9Profiling6Memory12Experimental19MemoryProfilerProxy12CleanupProxyEv
3499:__ZN9Scripting11UnityEngine9Profiling18CustomSamplerProxy9InitProxyEv
3500:__ZN9Scripting11UnityEngine9Profiling18CustomSamplerProxy12CleanupProxyEv
3501:__ZN9Scripting11UnityEngine9Profiling12SamplerProxy9InitProxyEv
3502:__ZN9Scripting11UnityEngine9Profiling12SamplerProxy12CleanupProxyEv
3503:__ZN9Scripting11UnityEngine16PreloadDataProxy9InitProxyEv
3504:__ZN9Scripting11UnityEngine16PreloadDataProxy12CleanupProxyEv
3505:__ZN9Scripting11UnityEngine30PreferBinarySerializationProxy9InitProxyEv
3506:__ZN9Scripting11UnityEngine30PreferBinarySerializationProxy12CleanupProxyEv
3507:__ZN9Scripting11UnityEngine10PlayerLoop6Update26ScriptRunDelayedTasksProxy9InitProxyEv
3508:__ZN9Scripting11UnityEngine10PlayerLoop6Update26ScriptRunDelayedTasksProxy12CleanupProxyEv
3509:__ZN9Scripting11UnityEngine10PlayerLoop6Update37ScriptRunDelayedDynamicFrameRateProxy9InitProxyEv
3510:__ZN9Scripting11UnityEngine10PlayerLoop6Update37ScriptRunDelayedDynamicFrameRateProxy12CleanupProxyEv
3511:__ZN9Scripting11UnityEngine10PlayerLoop6Update29ScriptRunBehaviourUpdateProxy9InitProxyEv
3512:__ZN9Scripting11UnityEngine10PlayerLoop6Update29ScriptRunBehaviourUpdateProxy12CleanupProxyEv
3513:__ZN9Scripting11UnityEngine10PlayerLoop6Update19DirectorUpdateProxy9InitProxyEv
3514:__ZN9Scripting11UnityEngine10PlayerLoop6Update19DirectorUpdateProxy12CleanupProxyEv
3515:__ZN9Scripting11UnityEngine10PlayerLoop11UpdateProxy9InitProxyEv
3516:__ZN9Scripting11UnityEngine10PlayerLoop11UpdateProxy12CleanupProxyEv
3517:__ZN9Scripting11UnityEngine10PlayerLoop10TimeUpdate41WaitForLastPresentationAndUpdateTimeProxy9InitProxyEv
3518:__ZN9Scripting11UnityEngine10PlayerLoop10TimeUpdate41WaitForLastPresentationAndUpdateTimeProxy12CleanupProxyEv
3519:__ZN9Scripting11UnityEngine10PlayerLoop15TimeUpdateProxy9InitProxyEv
3520:__ZN9Scripting11UnityEngine10PlayerLoop15TimeUpdateProxy12CleanupProxyEv
3521:__ZN9Scripting11UnityEngine10PlayerLoop9PreUpdate15WindUpdateProxy9InitProxyEv
3522:__ZN9Scripting11UnityEngine10PlayerLoop9PreUpdate15WindUpdateProxy12CleanupProxyEv
3523:__ZN9Scripting11UnityEngine10PlayerLoop9PreUpdate16UpdateVideoProxy9InitProxyEv
3524:__ZN9Scripting11UnityEngine10PlayerLoop9PreUpdate16UpdateVideoProxy12CleanupProxyEv
3525:__ZN9Scripting11UnityEngine10PlayerLoop9PreUpdate20SendMouseEventsProxy9InitProxyEv
3526:__ZN9Scripting11UnityEngine10PlayerLoop9PreUpdate20SendMouseEventsProxy12CleanupProxyEv
3527:__ZN9Scripting11UnityEngine10PlayerLoop9PreUpdate18PhysicsUpdateProxy9InitProxyEv
3528:__ZN9Scripting11UnityEngine10PlayerLoop9PreUpdate18PhysicsUpdateProxy12CleanupProxyEv
3529:__ZN9Scripting11UnityEngine10PlayerLoop9PreUpdate20Physics2DUpdateProxy9InitProxyEv
3530:__ZN9Scripting11UnityEngine10PlayerLoop9PreUpdate20Physics2DUpdateProxy12CleanupProxyEv
3531:__ZN9Scripting11UnityEngine10PlayerLoop9PreUpdate19NewInputUpdateProxy9InitProxyEv
3532:__ZN9Scripting11UnityEngine10PlayerLoop9PreUpdate19NewInputUpdateProxy12CleanupProxyEv
3533:__ZN9Scripting11UnityEngine10PlayerLoop9PreUpdate26IMGUISendQueuedEventsProxy9InitProxyEv
3534:__ZN9Scripting11UnityEngine10PlayerLoop9PreUpdate26IMGUISendQueuedEventsProxy12CleanupProxyEv
3535:__ZN9Scripting11UnityEngine10PlayerLoop9PreUpdate23CheckTexFieldInputProxy9InitProxyEv
3536:__ZN9Scripting11UnityEngine10PlayerLoop9PreUpdate23CheckTexFieldInputProxy12CleanupProxyEv
3537:__ZN9Scripting11UnityEngine10PlayerLoop9PreUpdate13AIUpdateProxy9InitProxyEv
3538:__ZN9Scripting11UnityEngine10PlayerLoop9PreUpdate13AIUpdateProxy12CleanupProxyEv
3539:__ZN9Scripting11UnityEngine10PlayerLoop14PreUpdateProxy9InitProxyEv
3540:__ZN9Scripting11UnityEngine10PlayerLoop14PreUpdateProxy12CleanupProxyEv
3541:__ZN9Scripting11UnityEngine10PlayerLoop13PreLateUpdate25UpdateNetworkManagerProxy9InitProxyEv
3542:__ZN9Scripting11UnityEngine10PlayerLoop13PreLateUpdate25UpdateNetworkManagerProxy12CleanupProxyEv
3543:__ZN9Scripting11UnityEngine10PlayerLoop13PreLateUpdate32UpdateMasterServerInterfaceProxy9InitProxyEv
3544:__ZN9Scripting11UnityEngine10PlayerLoop13PreLateUpdate32UpdateMasterServerInterfaceProxy12CleanupProxyEv
3545:__ZN9Scripting11UnityEngine10PlayerLoop13PreLateUpdate15UNetUpdateProxy9InitProxyEv
3546:__ZN9Scripting11UnityEngine10PlayerLoop13PreLateUpdate15UNetUpdateProxy12CleanupProxyEv
3547:__ZN9Scripting11UnityEngine10PlayerLoop13PreLateUpdate27UIElementsUpdatePanelsProxy9InitProxyEv
3548:__ZN9Scripting11UnityEngine10PlayerLoop13PreLateUpdate27UIElementsUpdatePanelsProxy12CleanupProxyEv
3549:__ZN9Scripting11UnityEngine10PlayerLoop13PreLateUpdate33ScriptRunBehaviourLateUpdateProxy9InitProxyEv
3550:__ZN9Scripting11UnityEngine10PlayerLoop13PreLateUpdate33ScriptRunBehaviourLateUpdateProxy12CleanupProxyEv
3551:__ZN9Scripting11UnityEngine10PlayerLoop13PreLateUpdate24Physics2DLateUpdateProxy9InitProxyEv
3552:__ZN9Scripting11UnityEngine10PlayerLoop13PreLateUpdate24Physics2DLateUpdateProxy12CleanupProxyEv
3553:__ZN9Scripting11UnityEngine10PlayerLoop13PreLateUpdate33ParticleSystemBeginUpdateAllProxy9InitProxyEv
3554:__ZN9Scripting11UnityEngine10PlayerLoop13PreLateUpdate33ParticleSystemBeginUpdateAllProxy12CleanupProxyEv
3555:__ZN9Scripting11UnityEngine10PlayerLoop13PreLateUpdate26LegacyAnimationUpdateProxy9InitProxyEv
3556:__ZN9Scripting11UnityEngine10PlayerLoop13PreLateUpdate26LegacyAnimationUpdateProxy12CleanupProxyEv
3557:__ZN9Scripting11UnityEngine10PlayerLoop13PreLateUpdate37EndGraphicsJobsAfterScriptUpdateProxy9InitProxyEv
3558:__ZN9Scripting11UnityEngine10PlayerLoop13PreLateUpdate37EndGraphicsJobsAfterScriptUpdateProxy12CleanupProxyEv
3559:__ZN9Scripting11UnityEngine10PlayerLoop13PreLateUpdate31DirectorUpdateAnimationEndProxy9InitProxyEv
3560:__ZN9Scripting11UnityEngine10PlayerLoop13PreLateUpdate31DirectorUpdateAnimationEndProxy12CleanupProxyEv
3561:__ZN9Scripting11UnityEngine10PlayerLoop13PreLateUpdate33DirectorUpdateAnimationBeginProxy9InitProxyEv
3562:__ZN9Scripting11UnityEngine10PlayerLoop13PreLateUpdate33DirectorUpdateAnimationBeginProxy12CleanupProxyEv
3563:__ZN9Scripting11UnityEngine10PlayerLoop13PreLateUpdate29DirectorDeferredEvaluateProxy9InitProxyEv
3564:__ZN9Scripting11UnityEngine10PlayerLoop13PreLateUpdate29DirectorDeferredEvaluateProxy12CleanupProxyEv
3565:__ZN9Scripting11UnityEngine10PlayerLoop13PreLateUpdate28ConstraintManagerUpdateProxy9InitProxyEv
3566:__ZN9Scripting11UnityEngine10PlayerLoop13PreLateUpdate28ConstraintManagerUpdateProxy12CleanupProxyEv
3567:__ZN9Scripting11UnityEngine10PlayerLoop13PreLateUpdate23AIUpdatePostScriptProxy9InitProxyEv
3568:__ZN9Scripting11UnityEngine10PlayerLoop13PreLateUpdate23AIUpdatePostScriptProxy12CleanupProxyEv
3569:__ZN9Scripting11UnityEngine10PlayerLoop18PreLateUpdateProxy9InitProxyEv
3570:__ZN9Scripting11UnityEngine10PlayerLoop18PreLateUpdateProxy12CleanupProxyEv
3571:__ZN9Scripting11UnityEngine10PlayerLoop14PostLateUpdate18XRPreEndFrameProxy9InitProxyEv
3572:__ZN9Scripting11UnityEngine10PlayerLoop14PostLateUpdate18XRPreEndFrameProxy12CleanupProxyEv
3573:__ZN9Scripting11UnityEngine10PlayerLoop14PostLateUpdate18XRPostPresentProxy9InitProxyEv
3574:__ZN9Scripting11UnityEngine10PlayerLoop14PostLateUpdate18XRPostPresentProxy12CleanupProxyEv
3575:__ZN9Scripting11UnityEngine10PlayerLoop14PostLateUpdate21XRPostLateUpdateProxy9InitProxyEv
3576:__ZN9Scripting11UnityEngine10PlayerLoop14PostLateUpdate21XRPostLateUpdateProxy12CleanupProxyEv
3577:__ZN9Scripting11UnityEngine10PlayerLoop14PostLateUpdate14VFXUpdateProxy9InitProxyEv
3578:__ZN9Scripting11UnityEngine10PlayerLoop14PostLateUpdate14VFXUpdateProxy12CleanupProxyEv
3579:__ZN9Scripting11UnityEngine10PlayerLoop14PostLateUpdate24UpdateVideoTexturesProxy9InitProxyEv
3580:__ZN9Scripting11UnityEngine10PlayerLoop14PostLateUpdate24UpdateVideoTexturesProxy12CleanupProxyEv
3581:__ZN9Scripting11UnityEngine10PlayerLoop14PostLateUpdate16UpdateVideoProxy9InitProxyEv
3582:__ZN9Scripting11UnityEngine10PlayerLoop14PostLateUpdate16UpdateVideoProxy12CleanupProxyEv
3583:__ZN9Scripting11UnityEngine10PlayerLoop14PostLateUpdate20UpdateSubstanceProxy9InitProxyEv
3584:__ZN9Scripting11UnityEngine10PlayerLoop14PostLateUpdate20UpdateSubstanceProxy12CleanupProxyEv
3585:__ZN9Scripting11UnityEngine10PlayerLoop14PostLateUpdate21UpdateResolutionProxy9InitProxyEv
3586:__ZN9Scripting11UnityEngine10PlayerLoop14PostLateUpdate21UpdateResolutionProxy12CleanupProxyEv
3587:__ZN9Scripting11UnityEngine10PlayerLoop14PostLateUpdate24UpdateRectTransformProxy9InitProxyEv
3588:__ZN9Scripting11UnityEngine10PlayerLoop14PostLateUpdate24UpdateRectTransformProxy12CleanupProxyEv
3589:__ZN9Scripting11UnityEngine10PlayerLoop14PostLateUpdate33UpdateLightProbeProxyVolumesProxy9InitProxyEv
3590:__ZN9Scripting11UnityEngine10PlayerLoop14PostLateUpdate33UpdateLightProbeProxyVolumesProxy12CleanupProxyEv
3591:__ZN9Scripting11UnityEngine10PlayerLoop14PostLateUpdate31UpdateCustomRenderTexturesProxy9InitProxyEv
3592:__ZN9Scripting11UnityEngine10PlayerLoop14PostLateUpdate31UpdateCustomRenderTexturesProxy12CleanupProxyEv
3593:__ZN9Scripting11UnityEngine10PlayerLoop14PostLateUpdate28UpdateCaptureScreenshotProxy9InitProxyEv
3594:__ZN9Scripting11UnityEngine10PlayerLoop14PostLateUpdate28UpdateCaptureScreenshotProxy12CleanupProxyEv
3595:__ZN9Scripting11UnityEngine10PlayerLoop14PostLateUpdate30UpdateCanvasRectTransformProxy9InitProxyEv
3596:__ZN9Scripting11UnityEngine10PlayerLoop14PostLateUpdate30UpdateCanvasRectTransformProxy12CleanupProxyEv
3597:__ZN9Scripting11UnityEngine10PlayerLoop14PostLateUpdate16UpdateAudioProxy9InitProxyEv
3598:__ZN9Scripting11UnityEngine10PlayerLoop14PostLateUpdate16UpdateAudioProxy12CleanupProxyEv
3599:__ZN9Scripting11UnityEngine10PlayerLoop14PostLateUpdate27UpdateAllSkinnedMeshesProxy9InitProxyEv
3600:__ZN9Scripting11UnityEngine10PlayerLoop14PostLateUpdate27UpdateAllSkinnedMeshesProxy12CleanupProxyEv
3601:__ZN9Scripting11UnityEngine10PlayerLoop14PostLateUpdate23UpdateAllRenderersProxy9InitProxyEv
3602:__ZN9Scripting11UnityEngine10PlayerLoop14PostLateUpdate23UpdateAllRenderersProxy12CleanupProxyEv
3603:__ZN9Scripting11UnityEngine10PlayerLoop14PostLateUpdate31TriggerEndOfFrameCallbacksProxy9InitProxyEv
3604:__ZN9Scripting11UnityEngine10PlayerLoop14PostLateUpdate31TriggerEndOfFrameCallbacksProxy12CleanupProxyEv
3605:__ZN9Scripting11UnityEngine10PlayerLoop14PostLateUpdate25ThreadedLoadingDebugProxy9InitProxyEv
3606:__ZN9Scripting11UnityEngine10PlayerLoop14PostLateUpdate25ThreadedLoadingDebugProxy12CleanupProxyEv
3607:__ZN9Scripting11UnityEngine10PlayerLoop14PostLateUpdate24SortingGroupsUpdateProxy9InitProxyEv
3608:__ZN9Scripting11UnityEngine10PlayerLoop14PostLateUpdate24SortingGroupsUpdateProxy12CleanupProxyEv
3609:__ZN9Scripting11UnityEngine10PlayerLoop14PostLateUpdate23ShaderHandleErrorsProxy9InitProxyEv
3610:__ZN9Scripting11UnityEngine10PlayerLoop14PostLateUpdate23ShaderHandleErrorsProxy12CleanupProxyEv
3611:__ZN9Scripting11UnityEngine10PlayerLoop14PostLateUpdate37ScriptRunDelayedDynamicFrameRateProxy9InitProxyEv
3612:__ZN9Scripting11UnityEngine10PlayerLoop14PostLateUpdate37ScriptRunDelayedDynamicFrameRateProxy12CleanupProxyEv
3613:__ZN9Scripting11UnityEngine10PlayerLoop14PostLateUpdate19ResetInputAxisProxy9InitProxyEv
3614:__ZN9Scripting11UnityEngine10PlayerLoop14PostLateUpdate19ResetInputAxisProxy12CleanupProxyEv
3615:__ZN9Scripting11UnityEngine10PlayerLoop14PostLateUpdate29ProfilerSynchronizeStatsProxy9InitProxyEv
3616:__ZN9Scripting11UnityEngine10PlayerLoop14PostLateUpdate29ProfilerSynchronizeStatsProxy12CleanupProxyEv
3617:__ZN9Scripting11UnityEngine10PlayerLoop14PostLateUpdate21ProfilerEndFrameProxy9InitProxyEv
3618:__ZN9Scripting11UnityEngine10PlayerLoop14PostLateUpdate21ProfilerEndFrameProxy12CleanupProxyEv
3619:__ZN9Scripting11UnityEngine10PlayerLoop14PostLateUpdate27ProcessWebSendMessagesProxy9InitProxyEv
3620:__ZN9Scripting11UnityEngine10PlayerLoop14PostLateUpdate27ProcessWebSendMessagesProxy12CleanupProxyEv
3621:__ZN9Scripting11UnityEngine10PlayerLoop14PostLateUpdate21PresentAfterDrawProxy9InitProxyEv
3622:__ZN9Scripting11UnityEngine10PlayerLoop14PostLateUpdate21PresentAfterDrawProxy12CleanupProxyEv
3623:__ZN9Scripting11UnityEngine10PlayerLoop14PostLateUpdate25PlayerUpdateCanvasesProxy9InitProxyEv
3624:__ZN9Scripting11UnityEngine10PlayerLoop14PostLateUpdate25PlayerUpdateCanvasesProxy12CleanupProxyEv
3625:__ZN9Scripting11UnityEngine10PlayerLoop14PostLateUpdate27PlayerSendFrameStartedProxy9InitProxyEv
3626:__ZN9Scripting11UnityEngine10PlayerLoop14PostLateUpdate27PlayerSendFrameStartedProxy12CleanupProxyEv
3627:__ZN9Scripting11UnityEngine10PlayerLoop14PostLateUpdate31PlayerSendFramePostPresentProxy9InitProxyEv
3628:__ZN9Scripting11UnityEngine10PlayerLoop14PostLateUpdate31PlayerSendFramePostPresentProxy12CleanupProxyEv
3629:__ZN9Scripting11UnityEngine10PlayerLoop14PostLateUpdate28PlayerSendFrameCompleteProxy9InitProxyEv
3630:__ZN9Scripting11UnityEngine10PlayerLoop14PostLateUpdate28PlayerSendFrameCompleteProxy12CleanupProxyEv
3631:__ZN9Scripting11UnityEngine10PlayerLoop14PostLateUpdate29PlayerEmitCanvasGeometryProxy9InitProxyEv
3632:__ZN9Scripting11UnityEngine10PlayerLoop14PostLateUpdate29PlayerEmitCanvasGeometryProxy12CleanupProxyEv
3633:__ZN9Scripting11UnityEngine10PlayerLoop14PostLateUpdate36PhysicsSkinnedClothFinishUpdateProxy9InitProxyEv
3634:__ZN9Scripting11UnityEngine10PlayerLoop14PostLateUpdate36PhysicsSkinnedClothFinishUpdateProxy12CleanupProxyEv
3635:__ZN9Scripting11UnityEngine10PlayerLoop14PostLateUpdate35PhysicsSkinnedClothBeginUpdateProxy9InitProxyEv
3636:__ZN9Scripting11UnityEngine10PlayerLoop14PostLateUpdate35PhysicsSkinnedClothBeginUpdateProxy12CleanupProxyEv
3637:__ZN9Scripting11UnityEngine10PlayerLoop14PostLateUpdate31ParticleSystemEndUpdateAllProxy9InitProxyEv
3638:__ZN9Scripting11UnityEngine10PlayerLoop14PostLateUpdate31ParticleSystemEndUpdateAllProxy12CleanupProxyEv
3639:__ZN9Scripting11UnityEngine10PlayerLoop14PostLateUpdate27MemoryFrameMaintenanceProxy9InitProxyEv
3640:__ZN9Scripting11UnityEngine10PlayerLoop14PostLateUpdate27MemoryFrameMaintenanceProxy12CleanupProxyEv
3641:__ZN9Scripting11UnityEngine10PlayerLoop14PostLateUpdate18InputEndFrameProxy9InitProxyEv
3642:__ZN9Scripting11UnityEngine10PlayerLoop14PostLateUpdate18InputEndFrameProxy12CleanupProxyEv
3643:__ZN9Scripting11UnityEngine10PlayerLoop14PostLateUpdate19GUIClearEventsProxy9InitProxyEv
3644:__ZN9Scripting11UnityEngine10PlayerLoop14PostLateUpdate19GUIClearEventsProxy12CleanupProxyEv
3645:__ZN9Scripting11UnityEngine10PlayerLoop14PostLateUpdate25FinishFrameRenderingProxy9InitProxyEv
3646:__ZN9Scripting11UnityEngine10PlayerLoop14PostLateUpdate25FinishFrameRenderingProxy12CleanupProxyEv
3647:__ZN9Scripting11UnityEngine10PlayerLoop14PostLateUpdate31ExecuteGameCenterCallbacksProxy9InitProxyEv
3648:__ZN9Scripting11UnityEngine10PlayerLoop14PostLateUpdate31ExecuteGameCenterCallbacksProxy12CleanupProxyEv
3649:__ZN9Scripting11UnityEngine10PlayerLoop14PostLateUpdate27EnlightenRuntimeUpdateProxy9InitProxyEv
3650:__ZN9Scripting11UnityEngine10PlayerLoop14PostLateUpdate27EnlightenRuntimeUpdateProxy12CleanupProxyEv
3651:__ZN9Scripting11UnityEngine10PlayerLoop14PostLateUpdate41EndGraphicsJobsAfterScriptLateUpdateProxy9InitProxyEv
3652:__ZN9Scripting11UnityEngine10PlayerLoop14PostLateUpdate41EndGraphicsJobsAfterScriptLateUpdateProxy12CleanupProxyEv
3653:__ZN9Scripting11UnityEngine10PlayerLoop14PostLateUpdate24DirectorRenderImageProxy9InitProxyEv
3654:__ZN9Scripting11UnityEngine10PlayerLoop14PostLateUpdate24DirectorRenderImageProxy12CleanupProxyEv
3655:__ZN9Scripting11UnityEngine10PlayerLoop14PostLateUpdate23DirectorLateUpdateProxy9InitProxyEv
3656:__ZN9Scripting11UnityEngine10PlayerLoop14PostLateUpdate23DirectorLateUpdateProxy12CleanupProxyEv
3657:__ZN9Scripting11UnityEngine10PlayerLoop14PostLateUpdate28ClearImmediateRenderersProxy9InitProxyEv
3658:__ZN9Scripting11UnityEngine10PlayerLoop14PostLateUpdate28ClearImmediateRenderersProxy12CleanupProxyEv
3659:__ZN9Scripting11UnityEngine10PlayerLoop14PostLateUpdate20BatchModeUpdateProxy9InitProxyEv
3660:__ZN9Scripting11UnityEngine10PlayerLoop14PostLateUpdate20BatchModeUpdateProxy12CleanupProxyEv
3661:__ZN9Scripting11UnityEngine10PlayerLoop19PostLateUpdateProxy9InitProxyEv
3662:__ZN9Scripting11UnityEngine10PlayerLoop19PostLateUpdateProxy12CleanupProxyEv
3663:__ZN9Scripting11UnityEngine10PlayerLoop14Initialization18XREarlyUpdateProxy9InitProxyEv
3664:__ZN9Scripting11UnityEngine10PlayerLoop14Initialization18XREarlyUpdateProxy12CleanupProxyEv
3665:__ZN9Scripting11UnityEngine10PlayerLoop14Initialization30UpdateCameraMotionVectorsProxy9InitProxyEv
3666:__ZN9Scripting11UnityEngine10PlayerLoop14Initialization30UpdateCameraMotionVectorsProxy12CleanupProxyEv
3667:__ZN9Scripting11UnityEngine10PlayerLoop14Initialization21SynchronizeStateProxy9InitProxyEv
3668:__ZN9Scripting11UnityEngine10PlayerLoop14Initialization21SynchronizeStateProxy12CleanupProxyEv
3669:__ZN9Scripting11UnityEngine10PlayerLoop14Initialization22SynchronizeInputsProxy9InitProxyEv
3670:__ZN9Scripting11UnityEngine10PlayerLoop14Initialization22SynchronizeInputsProxy12CleanupProxyEv
3671:__ZN9Scripting11UnityEngine10PlayerLoop14Initialization23DirectorSampleTimeProxy9InitProxyEv
3672:__ZN9Scripting11UnityEngine10PlayerLoop14Initialization23DirectorSampleTimeProxy12CleanupProxyEv
3673:__ZN9Scripting11UnityEngine10PlayerLoop14Initialization32AsyncUploadTimeSlicedUpdateProxy9InitProxyEv
3674:__ZN9Scripting11UnityEngine10PlayerLoop14Initialization32AsyncUploadTimeSlicedUpdateProxy12CleanupProxyEv
3675:__ZN9Scripting11UnityEngine10PlayerLoop19InitializationProxy9InitProxyEv
3676:__ZN9Scripting11UnityEngine10PlayerLoop19InitializationProxy12CleanupProxyEv
3677:__ZN9Scripting11UnityEngine10PlayerLoop11FixedUpdate18XRFixedUpdateProxy9InitProxyEv
3678:__ZN9Scripting11UnityEngine10PlayerLoop11FixedUpdate18XRFixedUpdateProxy12CleanupProxyEv
3679:__ZN9Scripting11UnityEngine10PlayerLoop11FixedUpdate35ScriptRunDelayedFixedFrameRateProxy9InitProxyEv
3680:__ZN9Scripting11UnityEngine10PlayerLoop11FixedUpdate35ScriptRunDelayedFixedFrameRateProxy12CleanupProxyEv
3681:__ZN9Scripting11UnityEngine10PlayerLoop11FixedUpdate34ScriptRunBehaviourFixedUpdateProxy9InitProxyEv
3682:__ZN9Scripting11UnityEngine10PlayerLoop11FixedUpdate34ScriptRunBehaviourFixedUpdateProxy12CleanupProxyEv
3683:__ZN9Scripting11UnityEngine10PlayerLoop11FixedUpdate23PhysicsFixedUpdateProxy9InitProxyEv
3684:__ZN9Scripting11UnityEngine10PlayerLoop11FixedUpdate23PhysicsFixedUpdateProxy12CleanupProxyEv
3685:__ZN9Scripting11UnityEngine10PlayerLoop11FixedUpdate28PhysicsClothFixedUpdateProxy9InitProxyEv
3686:__ZN9Scripting11UnityEngine10PlayerLoop11FixedUpdate28PhysicsClothFixedUpdateProxy12CleanupProxyEv
3687:__ZN9Scripting11UnityEngine10PlayerLoop11FixedUpdate25Physics2DFixedUpdateProxy9InitProxyEv
3688:__ZN9Scripting11UnityEngine10PlayerLoop11FixedUpdate25Physics2DFixedUpdateProxy12CleanupProxyEv
3689:__ZN9Scripting11UnityEngine10PlayerLoop11FixedUpdate24NewInputFixedUpdateProxy9InitProxyEv
3690:__ZN9Scripting11UnityEngine10PlayerLoop11FixedUpdate24NewInputFixedUpdateProxy12CleanupProxyEv
3691:__ZN9Scripting11UnityEngine10PlayerLoop11FixedUpdate31LegacyFixedAnimationUpdateProxy9InitProxyEv
3692:__ZN9Scripting11UnityEngine10PlayerLoop11FixedUpdate31LegacyFixedAnimationUpdateProxy12CleanupProxyEv
3693:__ZN9Scripting11UnityEngine10PlayerLoop11FixedUpdate35DirectorFixedUpdatePostPhysicsProxy9InitProxyEv
3694:__ZN9Scripting11UnityEngine10PlayerLoop11FixedUpdate35DirectorFixedUpdatePostPhysicsProxy12CleanupProxyEv
3695:__ZN9Scripting11UnityEngine10PlayerLoop11FixedUpdate24DirectorFixedUpdateProxy9InitProxyEv
3696:__ZN9Scripting11UnityEngine10PlayerLoop11FixedUpdate24DirectorFixedUpdateProxy12CleanupProxyEv
3697:__ZN9Scripting11UnityEngine10PlayerLoop11FixedUpdate28DirectorFixedSampleTimeProxy9InitProxyEv
3698:__ZN9Scripting11UnityEngine10PlayerLoop11FixedUpdate28DirectorFixedSampleTimeProxy12CleanupProxyEv
3699:__ZN9Scripting11UnityEngine10PlayerLoop11FixedUpdate15ClearLinesProxy9InitProxyEv
3700:__ZN9Scripting11UnityEngine10PlayerLoop11FixedUpdate15ClearLinesProxy12CleanupProxyEv
3701:__ZN9Scripting11UnityEngine10PlayerLoop11FixedUpdate21AudioFixedUpdateProxy9InitProxyEv
3702:__ZN9Scripting11UnityEngine10PlayerLoop11FixedUpdate21AudioFixedUpdateProxy12CleanupProxyEv
3703:__ZN9Scripting11UnityEngine10PlayerLoop16FixedUpdateProxy9InitProxyEv
3704:__ZN9Scripting11UnityEngine10PlayerLoop16FixedUpdateProxy12CleanupProxyEv
3705:__ZN9Scripting11UnityEngine10PlayerLoop11EarlyUpdate13XRUpdateProxy9InitProxyEv
3706:__ZN9Scripting11UnityEngine10PlayerLoop11EarlyUpdate13XRUpdateProxy12CleanupProxyEv
3707:__ZN9Scripting11UnityEngine10PlayerLoop11EarlyUpdate34UpdateTextureStreamingManagerProxy9InitProxyEv
3708:__ZN9Scripting11UnityEngine10PlayerLoop11EarlyUpdate34UpdateTextureStreamingManagerProxy12CleanupProxyEv
3709:__ZN9Scripting11UnityEngine10PlayerLoop11EarlyUpdate27UpdateStreamingManagerProxy9InitProxyEv
3710:__ZN9Scripting11UnityEngine10PlayerLoop11EarlyUpdate27UpdateStreamingManagerProxy12CleanupProxyEv
3711:__ZN9Scripting11UnityEngine10PlayerLoop11EarlyUpdate21UpdatePreloadingProxy9InitProxyEv
3712:__ZN9Scripting11UnityEngine10PlayerLoop11EarlyUpdate21UpdatePreloadingProxy12CleanupProxyEv
3713:__ZN9Scripting11UnityEngine10PlayerLoop11EarlyUpdate27UpdateMainGameViewRectProxy9InitProxyEv
3714:__ZN9Scripting11UnityEngine10PlayerLoop11EarlyUpdate27UpdateMainGameViewRectProxy12CleanupProxyEv
3715:__ZN9Scripting11UnityEngine10PlayerLoop11EarlyUpdate17UpdateKinectProxy9InitProxyEv
3716:__ZN9Scripting11UnityEngine10PlayerLoop11EarlyUpdate17UpdateKinectProxy12CleanupProxyEv
3717:__ZN9Scripting11UnityEngine10PlayerLoop11EarlyUpdate23UpdateInputManagerProxy9InitProxyEv
3718:__ZN9Scripting11UnityEngine10PlayerLoop11EarlyUpdate23UpdateInputManagerProxy12CleanupProxyEv
3719:__ZN9Scripting11UnityEngine10PlayerLoop11EarlyUpdate30UpdateCanvasRectTransformProxy9InitProxyEv
3720:__ZN9Scripting11UnityEngine10PlayerLoop11EarlyUpdate30UpdateCanvasRectTransformProxy12CleanupProxyEv
3721:__ZN9Scripting11UnityEngine10PlayerLoop11EarlyUpdate31UpdateAsyncReadbackManagerProxy9InitProxyEv
3722:__ZN9Scripting11UnityEngine10PlayerLoop11EarlyUpdate31UpdateAsyncReadbackManagerProxy12CleanupProxyEv
3723:__ZN9Scripting11UnityEngine10PlayerLoop11EarlyUpdate26UnityWebRequestUpdateProxy9InitProxyEv
3724:__ZN9Scripting11UnityEngine10PlayerLoop11EarlyUpdate26UnityWebRequestUpdateProxy12CleanupProxyEv
3725:__ZN9Scripting11UnityEngine10PlayerLoop11EarlyUpdate16TangoUpdateProxy9InitProxyEv
3726:__ZN9Scripting11UnityEngine10PlayerLoop11EarlyUpdate16TangoUpdateProxy12CleanupProxyEv
3727:__ZN9Scripting11UnityEngine10PlayerLoop11EarlyUpdate29SpriteAtlasManagerUpdateProxy9InitProxyEv
3728:__ZN9Scripting11UnityEngine10PlayerLoop11EarlyUpdate29SpriteAtlasManagerUpdateProxy12CleanupProxyEv
3729:__ZN9Scripting11UnityEngine10PlayerLoop11EarlyUpdate33ScriptRunDelayedStartupFrameProxy9InitProxyEv
3730:__ZN9Scripting11UnityEngine10PlayerLoop11EarlyUpdate33ScriptRunDelayedStartupFrameProxy12CleanupProxyEv
3731:__ZN9Scripting11UnityEngine10PlayerLoop11EarlyUpdate32ResetFrameStatsAfterPresentProxy9InitProxyEv
3732:__ZN9Scripting11UnityEngine10PlayerLoop11EarlyUpdate32ResetFrameStatsAfterPresentProxy12CleanupProxyEv
3733:__ZN9Scripting11UnityEngine10PlayerLoop11EarlyUpdate28RendererNotifyInvisibleProxy9InitProxyEv
3734:__ZN9Scripting11UnityEngine10PlayerLoop11EarlyUpdate28RendererNotifyInvisibleProxy12CleanupProxyEv
3735:__ZN9Scripting11UnityEngine10PlayerLoop11EarlyUpdate23ProfilerStartFrameProxy9InitProxyEv
3736:__ZN9Scripting11UnityEngine10PlayerLoop11EarlyUpdate23ProfilerStartFrameProxy12CleanupProxyEv
3737:__ZN9Scripting11UnityEngine10PlayerLoop11EarlyUpdate23ProcessRemoteInputProxy9InitProxyEv
3738:__ZN9Scripting11UnityEngine10PlayerLoop11EarlyUpdate23ProcessRemoteInputProxy12CleanupProxyEv
3739:__ZN9Scripting11UnityEngine10PlayerLoop11EarlyUpdate25ProcessMouseInWindowProxy9InitProxyEv
3740:__ZN9Scripting11UnityEngine10PlayerLoop11EarlyUpdate25ProcessMouseInWindowProxy12CleanupProxyEv
3741:__ZN9Scripting11UnityEngine10PlayerLoop11EarlyUpdate24PresentBeforeUpdateProxy9InitProxyEv
3742:__ZN9Scripting11UnityEngine10PlayerLoop11EarlyUpdate24PresentBeforeUpdateProxy12CleanupProxyEv
3743:__ZN9Scripting11UnityEngine10PlayerLoop11EarlyUpdate25PollPlayerConnectionProxy9InitProxyEv
3744:__ZN9Scripting11UnityEngine10PlayerLoop11EarlyUpdate25PollPlayerConnectionProxy12CleanupProxyEv
3745:__ZN9Scripting11UnityEngine10PlayerLoop11EarlyUpdate29PollHtcsPlayerConnectionProxy9InitProxyEv
3746:__ZN9Scripting11UnityEngine10PlayerLoop11EarlyUpdate29PollHtcsPlayerConnectionProxy12CleanupProxyEv
3747:__ZN9Scripting11UnityEngine10PlayerLoop11EarlyUpdate28PlayerCleanupCachedDataProxy9InitProxyEv
3748:__ZN9Scripting11UnityEngine10PlayerLoop11EarlyUpdate28PlayerCleanupCachedDataProxy12CleanupProxyEv
3749:__ZN9Scripting11UnityEngine10PlayerLoop11EarlyUpdate46PhysicsResetInterpolatedTransformPositionProxy9InitProxyEv
3750:__ZN9Scripting11UnityEngine10PlayerLoop11EarlyUpdate46PhysicsResetInterpolatedTransformPositionProxy12CleanupProxyEv
3751:__ZN9Scripting11UnityEngine10PlayerLoop11EarlyUpdate31PerformanceAnalyticsUpdateProxy9InitProxyEv
3752:__ZN9Scripting11UnityEngine10PlayerLoop11EarlyUpdate31PerformanceAnalyticsUpdateProxy12CleanupProxyEv
3753:__ZN9Scripting11UnityEngine10PlayerLoop11EarlyUpdate17GpuTimestampProxy9InitProxyEv
3754:__ZN9Scripting11UnityEngine10PlayerLoop11EarlyUpdate17GpuTimestampProxy12CleanupProxyEv
3755:__ZN9Scripting11UnityEngine10PlayerLoop11EarlyUpdate26ExecuteMainThreadJobsProxy9InitProxyEv
3756:__ZN9Scripting11UnityEngine10PlayerLoop11EarlyUpdate26ExecuteMainThreadJobsProxy12CleanupProxyEv
3757:__ZN9Scripting11UnityEngine10PlayerLoop11EarlyUpdate29DispatchEventQueueEventsProxy9InitProxyEv
3758:__ZN9Scripting11UnityEngine10PlayerLoop11EarlyUpdate29DispatchEventQueueEventsProxy12CleanupProxyEv
3759:__ZN9Scripting11UnityEngine10PlayerLoop11EarlyUpdate29DeliverIosPlatformEventsProxy9InitProxyEv
3760:__ZN9Scripting11UnityEngine10PlayerLoop11EarlyUpdate29DeliverIosPlatformEventsProxy12CleanupProxyEv
3761:__ZN9Scripting11UnityEngine10PlayerLoop11EarlyUpdate15ClearLinesProxy9InitProxyEv
3762:__ZN9Scripting11UnityEngine10PlayerLoop11EarlyUpdate15ClearLinesProxy12CleanupProxyEv
3763:__ZN9Scripting11UnityEngine10PlayerLoop11EarlyUpdate31ClearIntermediateRenderersProxy9InitProxyEv
3764:__ZN9Scripting11UnityEngine10PlayerLoop11EarlyUpdate31ClearIntermediateRenderersProxy12CleanupProxyEv
3765:__ZN9Scripting11UnityEngine10PlayerLoop11EarlyUpdate17ARCoreUpdateProxy9InitProxyEv
3766:__ZN9Scripting11UnityEngine10PlayerLoop11EarlyUpdate17ARCoreUpdateProxy12CleanupProxyEv
3767:__ZN9Scripting11UnityEngine10PlayerLoop11EarlyUpdate29AnalyticsCoreStatsUpdateProxy9InitProxyEv
3768:__ZN9Scripting11UnityEngine10PlayerLoop11EarlyUpdate29AnalyticsCoreStatsUpdateProxy12CleanupProxyEv
3769:__ZN9Scripting11UnityEngine10PlayerLoop16EarlyUpdateProxy9InitProxyEv
3770:__ZN9Scripting11UnityEngine10PlayerLoop16EarlyUpdateProxy12CleanupProxyEv
3771:__ZN9Scripting11UnityEngine9Playables25ScriptPlayableOutputProxy9InitProxyEv
3772:__ZN9Scripting11UnityEngine9Playables25ScriptPlayableOutputProxy12CleanupProxyEv
3773:__ZN9Scripting11UnityEngine9Playables25PlayableOutputHandleProxy9InitProxyEv
3774:__ZN9Scripting11UnityEngine9Playables25PlayableOutputHandleProxy12CleanupProxyEv
3775:__ZN9Scripting11UnityEngine9Playables19PlayableOutputProxy9InitProxyEv
3776:__ZN9Scripting11UnityEngine9Playables19PlayableOutputProxy12CleanupProxyEv
3777:__ZN9Scripting11UnityEngine9Playables19PlayableHandleProxy9InitProxyEv
3778:__ZN9Scripting11UnityEngine9Playables19PlayableHandleProxy12CleanupProxyEv
3779:__ZN9Scripting11UnityEngine9Playables18PlayableGraphProxy9InitProxyEv
3780:__ZN9Scripting11UnityEngine9Playables18PlayableGraphProxy12CleanupProxyEv
3781:__ZN9Scripting11UnityEngine9Playables22PlayableBehaviourProxy9InitProxyEv
3782:__ZN9Scripting11UnityEngine9Playables22PlayableBehaviourProxy12CleanupProxyEv
3783:__ZN9Scripting11UnityEngine9Playables18PlayableAssetProxy9InitProxyEv
3784:__ZN9Scripting11UnityEngine9Playables18PlayableAssetProxy12CleanupProxyEv
3785:__ZN9Scripting11UnityEngine9Playables13PlayableProxy9InitProxyEv
3786:__ZN9Scripting11UnityEngine9Playables13PlayableProxy12CleanupProxyEv
3787:__ZN9Scripting11UnityEngine10PlaneProxy9InitProxyEv
3788:__ZN9Scripting11UnityEngine10PlaneProxy12CleanupProxyEv
3789:__ZN9Scripting11UnityEngine10Networking16PlayerConnection21PlayerConnectionProxy9InitProxyEv
3790:__ZN9Scripting11UnityEngine10Networking16PlayerConnection21PlayerConnectionProxy12CleanupProxyEv
3791:__ZN9Scripting11UnityEngine21ScriptableObjectProxy9InitProxyEv
3792:__ZN9Scripting11UnityEngine21ScriptableObjectProxy12CleanupProxyEv
3793:__ZN9Scripting11UnityEngine18MonoBehaviourProxy9InitProxyEv
3794:__ZN9Scripting11UnityEngine18MonoBehaviourProxy12CleanupProxyEv
3795:__ZN9Scripting11UnityEngine17MeshRendererProxy9InitProxyEv
3796:__ZN9Scripting11UnityEngine17MeshRendererProxy12CleanupProxyEv
3797:__ZN9Scripting11UnityEngine13RendererProxy9InitProxyEv
3798:__ZN9Scripting11UnityEngine13RendererProxy12CleanupProxyEv
3799:__ZN9Scripting11UnityEngine15MeshFilterProxy9InitProxyEv
3800:__ZN9Scripting11UnityEngine15MeshFilterProxy12CleanupProxyEv
3801:__ZN9Scripting11UnityEngine9MeshProxy9InitProxyEv
3802:__ZN9Scripting11UnityEngine9MeshProxy12CleanupProxyEv
3803:__ZN9Scripting11UnityEngine14Matrix4x4Proxy9InitProxyEv
3804:__ZN9Scripting11UnityEngine14Matrix4x4Proxy12CleanupProxyEv
3805:__ZN9Scripting11UnityEngine13MaterialProxy9InitProxyEv
3806:__ZN9Scripting11UnityEngine13MaterialProxy12CleanupProxyEv
3807:__ZN9Scripting11UnityEngine25ManagedStreamHelpersProxy9InitProxyEv
3808:__ZN9Scripting11UnityEngine25ManagedStreamHelpersProxy12CleanupProxyEv
3809:__ZN9Scripting11UnityEngine8LowLevel29PlayerLoopSystemInternalProxy9InitProxyEv
3810:__ZN9Scripting11UnityEngine8LowLevel29PlayerLoopSystemInternalProxy12CleanupProxyEv
3811:__ZN9Scripting11UnityEngine24LowerResBlitTextureProxy9InitProxyEv
3812:__ZN9Scripting11UnityEngine24LowerResBlitTextureProxy12CleanupProxyEv
3813:__ZN9Scripting11UnityEngine8LODProxy9InitProxyEv
3814:__ZN9Scripting11UnityEngine8LODProxy12CleanupProxyEv
3815:__ZN9Scripting11UnityEngine17LightmapDataProxy9InitProxyEv
3816:__ZN9Scripting11UnityEngine17LightmapDataProxy12CleanupProxyEv
3817:__ZN9Scripting11UnityEngine21LightingSettingsProxy9InitProxyEv
3818:__ZN9Scripting11UnityEngine21LightingSettingsProxy12CleanupProxyEv
3819:__ZN9Scripting11UnityEngine14LayerMaskProxy9InitProxyEv
3820:__ZN9Scripting11UnityEngine14LayerMaskProxy12CleanupProxyEv
3821:__ZN9Scripting11UnityEngine13KeyframeProxy9InitProxyEv
3822:__ZN9Scripting11UnityEngine13KeyframeProxy12CleanupProxyEv
3823:__ZN9Scripting11UnityEngine33ImageEffectUsesCommandBufferProxy9InitProxyEv
3824:__ZN9Scripting11UnityEngine33ImageEffectUsesCommandBufferProxy12CleanupProxyEv
3825:__ZN9Scripting11UnityEngine31ImageEffectTransformsToLDRProxy9InitProxyEv
3826:__ZN9Scripting11UnityEngine31ImageEffectTransformsToLDRProxy12CleanupProxyEv
3827:__ZN9Scripting11UnityEngine22ImageEffectOpaqueProxy9InitProxyEv
3828:__ZN9Scripting11UnityEngine22ImageEffectOpaqueProxy12CleanupProxyEv
3829:__ZN9Scripting11UnityEngine26ImageEffectAfterScaleProxy9InitProxyEv
3830:__ZN9Scripting11UnityEngine26ImageEffectAfterScaleProxy12CleanupProxyEv
3831:__ZN9Scripting11UnityEngine20HideInInspectorProxy9InitProxyEv
3832:__ZN9Scripting11UnityEngine20HideInInspectorProxy12CleanupProxyEv
3833:__ZN9Scripting11UnityEngine21HelpURLAttributeProxy9InitProxyEv
3834:__ZN9Scripting11UnityEngine21HelpURLAttributeProxy12CleanupProxyEv
3835:__ZN9Scripting11UnityEngine22HDROutputSettingsProxy9InitProxyEv
3836:__ZN9Scripting11UnityEngine22HDROutputSettingsProxy12CleanupProxyEv
3837:__ZN9Scripting11UnityEngine12Hash128Proxy9InitProxyEv
3838:__ZN9Scripting11UnityEngine12Hash128Proxy12CleanupProxyEv
3839:__ZN9Scripting11UnityEngine19GraphicsBufferProxy9InitProxyEv
3840:__ZN9Scripting11UnityEngine19GraphicsBufferProxy12CleanupProxyEv
3841:__ZN9Scripting11UnityEngine21GradientColorKeyProxy9InitProxyEv
3842:__ZN9Scripting11UnityEngine21GradientColorKeyProxy12CleanupProxyEv
3843:__ZN9Scripting11UnityEngine21GradientAlphaKeyProxy9InitProxyEv
3844:__ZN9Scripting11UnityEngine21GradientAlphaKeyProxy12CleanupProxyEv
3845:__ZN9Scripting11UnityEngine13GradientProxy9InitProxyEv
3846:__ZN9Scripting11UnityEngine13GradientProxy12CleanupProxyEv
3847:__ZN9Scripting11UnityEngine15GameObjectProxy9InitProxyEv
3848:__ZN9Scripting11UnityEngine15GameObjectProxy12CleanupProxyEv
3849:__ZN9Scripting11UnityEngine29FailedToLoadScriptObjectProxy9InitProxyEv
3850:__ZN9Scripting11UnityEngine29FailedToLoadScriptObjectProxy12CleanupProxyEv
3851:__ZN9Scripting11UnityEngine36ExtensionOfNativeClassAttributeProxy9InitProxyEv
3852:__ZN9Scripting11UnityEngine36ExtensionOfNativeClassAttributeProxy12CleanupProxyEv
3853:__ZN9Scripting11UnityEngine23ExposedReference_1Proxy9InitProxyEv
3854:__ZN9Scripting11UnityEngine23ExposedReference_1Proxy12CleanupProxyEv
3855:__ZN9Scripting11UnityEngine12Experimental3U2D24SpriteRendererGroupProxy9InitProxyEv
3856:__ZN9Scripting11UnityEngine12Experimental3U2D24SpriteRendererGroupProxy12CleanupProxyEv
3857:__ZN9Scripting11UnityEngine12Experimental3U2D35SpriteIntermediateRendererInfoProxy9InitProxyEv
3858:__ZN9Scripting11UnityEngine12Experimental3U2D35SpriteIntermediateRendererInfoProxy12CleanupProxyEv
3859:__ZN9Scripting11UnityEngine12Experimental9Rendering45ScriptableRuntimeReflectionSystemWrapperProxy9InitProxyEv
3860:__ZN9Scripting11UnityEngine12Experimental9Rendering45ScriptableRuntimeReflectionSystemWrapperProxy12CleanupProxyEv
3861:__ZN9Scripting11UnityEngine12Experimental9Rendering46ScriptableRuntimeReflectionSystemSettingsProxy9InitProxyEv
3862:__ZN9Scripting11UnityEngine12Experimental9Rendering46ScriptableRuntimeReflectionSystemSettingsProxy12CleanupProxyEv
3863:__ZN9Scripting11UnityEngine12Experimental9Rendering36RayTracingAccelerationStructureProxy9InitProxyEv
3864:__ZN9Scripting11UnityEngine12Experimental9Rendering36RayTracingAccelerationStructureProxy12CleanupProxyEv
3865:__ZN9Scripting11UnityEngine12Experimental9Rendering35BuiltinRuntimeReflectionSystemProxy9InitProxyEv
3866:__ZN9Scripting11UnityEngine12Experimental9Rendering35BuiltinRuntimeReflectionSystemProxy12CleanupProxyEv
3867:__ZN9Scripting11UnityEngine12Experimental9Playables26TexturePlayableOutputProxy9InitProxyEv
3868:__ZN9Scripting11UnityEngine12Experimental9Playables26TexturePlayableOutputProxy12CleanupProxyEv
3869:__ZN9Scripting11UnityEngine12Experimental9Playables25TextureMixerPlayableProxy9InitProxyEv
3870:__ZN9Scripting11UnityEngine12Experimental9Playables25TextureMixerPlayableProxy12CleanupProxyEv
3871:__ZN9Scripting11UnityEngine12Experimental9Playables27MaterialEffectPlayableProxy9InitProxyEv
3872:__ZN9Scripting11UnityEngine12Experimental9Playables27MaterialEffectPlayableProxy12CleanupProxyEv
3873:__ZN9Scripting11UnityEngine12Experimental9Playables19CameraPlayableProxy9InitProxyEv
3874:__ZN9Scripting11UnityEngine12Experimental9Playables19CameraPlayableProxy12CleanupProxyEv
3875:__ZN9Scripting11UnityEngine12Experimental18GlobalIllumination17LightmappingProxy9InitProxyEv
3876:__ZN9Scripting11UnityEngine12Experimental18GlobalIllumination17LightmappingProxy12CleanupProxyEv
3877:__ZN9Scripting11UnityEngine12Experimental18GlobalIllumination16LightDataGIProxy9InitProxyEv
3878:__ZN9Scripting11UnityEngine12Experimental18GlobalIllumination16LightDataGIProxy12CleanupProxyEv
3879:__ZN9Scripting11UnityEngine22ExecuteInEditModeProxy9InitProxyEv
3880:__ZN9Scripting11UnityEngine22ExecuteInEditModeProxy12CleanupProxyEv
3881:__ZN9Scripting11UnityEngine18ExecuteAlwaysProxy9InitProxyEv
3882:__ZN9Scripting11UnityEngine18ExecuteAlwaysProxy12CleanupProxyEv
3883:__ZN9Scripting11UnityEngine31ExcludeFromPresetAttributeProxy9InitProxyEv
3884:__ZN9Scripting11UnityEngine31ExcludeFromPresetAttributeProxy12CleanupProxyEv
3885:__ZN9Scripting11UnityEngine38ExcludeFromObjectFactoryAttributeProxy9InitProxyEv
3886:__ZN9Scripting11UnityEngine38ExcludeFromObjectFactoryAttributeProxy12CleanupProxyEv
3887:__ZN9Scripting11UnityEngine6Events17UnityEvent_4Proxy9InitProxyEv
3888:__ZN9Scripting11UnityEngine6Events17UnityEvent_4Proxy12CleanupProxyEv
3889:__ZN9Scripting11UnityEngine6Events17UnityEvent_3Proxy9InitProxyEv
3890:__ZN9Scripting11UnityEngine6Events17UnityEvent_3Proxy12CleanupProxyEv
3891:__ZN9Scripting11UnityEngine6Events17UnityEvent_2Proxy9InitProxyEv
3892:__ZN9Scripting11UnityEngine6Events17UnityEvent_2Proxy12CleanupProxyEv
3893:__ZN9Scripting11UnityEngine6Events17UnityEvent_1Proxy9InitProxyEv
3894:__ZN9Scripting11UnityEngine6Events17UnityEvent_1Proxy12CleanupProxyEv
3895:__ZN9Scripting11UnityEngine6Events15UnityEventProxy9InitProxyEv
3896:__ZN9Scripting11UnityEngine6Events15UnityEventProxy12CleanupProxyEv
3897:__ZN9Scripting11UnityEngine6Events19UnityEventBaseProxy9InitProxyEv
3898:__ZN9Scripting11UnityEngine6Events19UnityEventBaseProxy12CleanupProxyEv
3899:__ZN9Scripting11UnityEngine13EnumInfoProxy9InitProxyEv
3900:__ZN9Scripting11UnityEngine13EnumInfoProxy12CleanupProxyEv
3901:__ZN9Scripting11UnityEngine12DisplayProxy9InitProxyEv
3902:__ZN9Scripting11UnityEngine12DisplayProxy12CleanupProxyEv
3903:__ZN9Scripting11UnityEngine30DisallowMultipleComponentProxy9InitProxyEv
3904:__ZN9Scripting11UnityEngine30DisallowMultipleComponentProxy12CleanupProxyEv
3905:__ZN9Scripting11UnityEngine21DiagnosticSwitchProxy9InitProxyEv
3906:__ZN9Scripting11UnityEngine21DiagnosticSwitchProxy12CleanupProxyEv
3907:__ZN9Scripting11UnityEngine26DefaultExecutionOrderProxy9InitProxyEv
3908:__ZN9Scripting11UnityEngine26DefaultExecutionOrderProxy12CleanupProxyEv
3909:__ZN9Scripting11UnityEngine10DebugProxy9InitProxyEv
3910:__ZN9Scripting11UnityEngine10DebugProxy12CleanupProxyEv
3911:__ZN9Scripting11UnityEngine34CustomRenderTextureUpdateZoneProxy9InitProxyEv
3912:__ZN9Scripting11UnityEngine34CustomRenderTextureUpdateZoneProxy12CleanupProxyEv
3913:__ZN9Scripting11UnityEngine31CustomRenderTextureManagerProxy9InitProxyEv
3914:__ZN9Scripting11UnityEngine31CustomRenderTextureManagerProxy12CleanupProxyEv
3915:__ZN9Scripting11UnityEngine24CustomRenderTextureProxy9InitProxyEv
3916:__ZN9Scripting11UnityEngine24CustomRenderTextureProxy12CleanupProxyEv
3917:__ZN9Scripting11UnityEngine18RenderTextureProxy9InitProxyEv
3918:__ZN9Scripting11UnityEngine18RenderTextureProxy12CleanupProxyEv
3919:__ZN9Scripting11UnityEngine17CullingGroupProxy9InitProxyEv
3920:__ZN9Scripting11UnityEngine17CullingGroupProxy12CleanupProxyEv
3921:__ZN9Scripting11UnityEngine17CubemapArrayProxy9InitProxyEv
3922:__ZN9Scripting11UnityEngine17CubemapArrayProxy12CleanupProxyEv
3923:__ZN9Scripting11UnityEngine12CubemapProxy9InitProxyEv
3924:__ZN9Scripting11UnityEngine12CubemapProxy12CleanupProxyEv
3925:__ZN9Scripting11UnityEngine12TextureProxy9InitProxyEv
3926:__ZN9Scripting11UnityEngine12TextureProxy12CleanupProxyEv
3927:__ZN9Scripting11UnityEngine14CoroutineProxy9InitProxyEv
3928:__ZN9Scripting11UnityEngine14CoroutineProxy12CleanupProxyEv
3929:__ZN9Scripting11UnityEngine16ContextMenuProxy9InitProxyEv
3930:__ZN9Scripting11UnityEngine16ContextMenuProxy12CleanupProxyEv
3931:__ZN9Scripting11UnityEngine18ComputeShaderProxy9InitProxyEv
3932:__ZN9Scripting11UnityEngine18ComputeShaderProxy12CleanupProxyEv
3933:__ZN9Scripting11UnityEngine18ComputeBufferProxy9InitProxyEv
3934:__ZN9Scripting11UnityEngine18ComputeBufferProxy12CleanupProxyEv
3935:__ZN9Scripting11UnityEngine15ColorGamutProxy9InitProxyEv
3936:__ZN9Scripting11UnityEngine15ColorGamutProxy12CleanupProxyEv
3937:__ZN9Scripting11UnityEngine12Color32Proxy9InitProxyEv
3938:__ZN9Scripting11UnityEngine12Color32Proxy12CleanupProxyEv
3939:__ZN9Scripting11UnityEngine10ColorProxy9InitProxyEv
3940:__ZN9Scripting11UnityEngine10ColorProxy12CleanupProxyEv
3941:__ZN9Scripting11UnityEngine28ClassLibraryInitializerProxy9InitProxyEv
3942:__ZN9Scripting11UnityEngine28ClassLibraryInitializerProxy12CleanupProxyEv
3943:__ZN9Scripting11UnityEngine11CameraProxy9InitProxyEv
3944:__ZN9Scripting11UnityEngine11CameraProxy12CleanupProxyEv
3945:__ZN9Scripting11UnityEngine15CacheIndexProxy9InitProxyEv
3946:__ZN9Scripting11UnityEngine15CacheIndexProxy12CleanupProxyEv
3947:__ZN9Scripting11UnityEngine22CachedAssetBundleProxy9InitProxyEv
3948:__ZN9Scripting11UnityEngine22CachedAssetBundleProxy12CleanupProxyEv
3949:__ZN9Scripting11UnityEngine14BoundsIntProxy9InitProxyEv
3950:__ZN9Scripting11UnityEngine14BoundsIntProxy12CleanupProxyEv
3951:__ZN9Scripting11UnityEngine11BoundsProxy9InitProxyEv
3952:__ZN9Scripting11UnityEngine11BoundsProxy12CleanupProxyEv
3953:__ZN9Scripting11UnityEngine12Vector3Proxy9InitProxyEv
3954:__ZN9Scripting11UnityEngine12Vector3Proxy12CleanupProxyEv
3955:__ZN9Scripting11UnityEngine19BootConfigDataProxy9InitProxyEv
3956:__ZN9Scripting11UnityEngine19BootConfigDataProxy12CleanupProxyEv
3957:__ZN9Scripting11UnityEngine16BoneWeight1Proxy9InitProxyEv
3958:__ZN9Scripting11UnityEngine16BoneWeight1Proxy12CleanupProxyEv
3959:__ZN9Scripting11UnityEngine15BoneWeightProxy9InitProxyEv
3960:__ZN9Scripting11UnityEngine15BoneWeightProxy12CleanupProxyEv
3961:__ZN9Scripting11UnityEngine14BehaviourProxy9InitProxyEv
3962:__ZN9Scripting11UnityEngine14BehaviourProxy12CleanupProxyEv
3963:__ZN9Scripting11UnityEngine14ComponentProxy9InitProxyEv
3964:__ZN9Scripting11UnityEngine14ComponentProxy12CleanupProxyEv
3965:__ZN9Scripting11UnityEngine11ObjectProxy9InitProxyEv
3966:__ZN9Scripting11UnityEngine11ObjectProxy12CleanupProxyEv
3967:__ZN9Scripting11UnityEngine26AttributeHelperEngineProxy9InitProxyEv
3968:__ZN9Scripting11UnityEngine26AttributeHelperEngineProxy12CleanupProxyEv
3969:__ZN9Scripting11UnityEngine19AsyncOperationProxy9InitProxyEv
3970:__ZN9Scripting11UnityEngine19AsyncOperationProxy12CleanupProxyEv
3971:__ZN9Scripting11UnityEngine21YieldInstructionProxy9InitProxyEv
3972:__ZN9Scripting11UnityEngine21YieldInstructionProxy12CleanupProxyEv
3973:__ZN9Scripting11UnityEngine29AssemblyIsEditorAssemblyProxy9InitProxyEv
3974:__ZN9Scripting11UnityEngine29AssemblyIsEditorAssemblyProxy12CleanupProxyEv
3975:__ZN9Scripting11UnityEngine16ApplicationProxy9InitProxyEv
3976:__ZN9Scripting11UnityEngine16ApplicationProxy12CleanupProxyEv
3977:__ZN9Scripting11UnityEngine19AnimationCurveProxy9InitProxyEv
3978:__ZN9Scripting11UnityEngine19AnimationCurveProxy12CleanupProxyEv
3979:__ZN9Scripting11UnityEngine10_Scripting11APIUpdating29APIUpdaterRuntimeHelpersProxy9InitProxyEv
3980:__ZN9Scripting11UnityEngine10_Scripting11APIUpdating29APIUpdaterRuntimeHelpersProxy12CleanupProxyEv
3981:__ZN9Scripting5Unity9Profiling27ProfilerRecorderSampleProxy9InitProxyEv
3982:__ZN9Scripting5Unity9Profiling27ProfilerRecorderSampleProxy12CleanupProxyEv
3983:__ZN9Scripting5Unity9Profiling21ProfilerRecorderProxy9InitProxyEv
3984:__ZN9Scripting5Unity9Profiling21ProfilerRecorderProxy12CleanupProxyEv
3985:__ZN9Scripting5Unity9Profiling14ProfilerMarker14AutoScopeProxy9InitProxyEv
3986:__ZN9Scripting5Unity9Profiling14ProfilerMarker14AutoScopeProxy12CleanupProxyEv
3987:__ZN9Scripting5Unity9Profiling19ProfilerMarkerProxy9InitProxyEv
3988:__ZN9Scripting5Unity9Profiling19ProfilerMarkerProxy12CleanupProxyEv
3989:__ZN9Scripting5Unity9Profiling21ProfilerCategoryProxy9InitProxyEv
3990:__ZN9Scripting5Unity9Profiling21ProfilerCategoryProxy12CleanupProxyEv
3991:__ZN9Scripting5Unity9Profiling8LowLevel6Unsafe26ProfilerUnsafeUtilityProxy9InitProxyEv
3992:__ZN9Scripting5Unity9Profiling8LowLevel6Unsafe26ProfilerUnsafeUtilityProxy12CleanupProxyEv
3993:__ZN9Scripting5Unity9Profiling8LowLevel6Unsafe27ProfilerRecorderHandleProxy9InitProxyEv
3994:__ZN9Scripting5Unity9Profiling8LowLevel6Unsafe27ProfilerRecorderHandleProxy12CleanupProxyEv
3995:__ZN9Scripting5Unity9Profiling8LowLevel6Unsafe32ProfilerRecorderDescriptionProxy9InitProxyEv
3996:__ZN9Scripting5Unity9Profiling8LowLevel6Unsafe32ProfilerRecorderDescriptionProxy12CleanupProxyEv
3997:__ZN9Scripting5Unity2IO8LowLevel6Unsafe13PriorityProxy9InitProxyEv
3998:__ZN9Scripting5Unity2IO8LowLevel6Unsafe13PriorityProxy12CleanupProxyEv
3999:__ZN9Scripting5Unity2IO8LowLevel6Unsafe34AsyncReadManagerRequestMetricProxy9InitProxyEv
4000:__ZN9Scripting5Unity2IO8LowLevel6Unsafe34AsyncReadManagerRequestMetricProxy12CleanupProxyEv
4001:__ZN9Scripting5Unity2IO8LowLevel6Unsafe35AsyncReadManagerMetricsFiltersProxy9InitProxyEv
4002:__ZN9Scripting5Unity2IO8LowLevel6Unsafe35AsyncReadManagerMetricsFiltersProxy12CleanupProxyEv
4003:__ZN9Scripting5Unity11Collections23WriteOnlyAttributeProxy9InitProxyEv
4004:__ZN9Scripting5Unity11Collections23WriteOnlyAttributeProxy12CleanupProxyEv
4005:__ZN9Scripting5Unity11Collections22ReadOnlyAttributeProxy9InitProxyEv
4006:__ZN9Scripting5Unity11Collections22ReadOnlyAttributeProxy12CleanupProxyEv
4007:__ZN9Scripting5Unity11Collections44NativeMatchesParallelForLengthAttributeProxy9InitProxyEv
4008:__ZN9Scripting5Unity11Collections44NativeMatchesParallelForLengthAttributeProxy12CleanupProxyEv
4009:__ZN9Scripting5Unity11Collections31NativeFixedLengthAttributeProxy9InitProxyEv
4010:__ZN9Scripting5Unity11Collections31NativeFixedLengthAttributeProxy12CleanupProxyEv
4011:__ZN9Scripting5Unity11Collections49NativeDisableParallelForRestrictionAttributeProxy9InitProxyEv
4012:__ZN9Scripting5Unity11Collections49NativeDisableParallelForRestrictionAttributeProxy12CleanupProxyEv
4013:__ZN9Scripting5Unity11Collections8LowLevel6Unsafe34NativeSetThreadIndexAttributeProxy9InitProxyEv
4014:__ZN9Scripting5Unity11Collections8LowLevel6Unsafe34NativeSetThreadIndexAttributeProxy12CleanupProxyEv
4015:__ZN9Scripting5Unity11Collections8LowLevel6Unsafe48NativeSetClassTypeToNullOnScheduleAttributeProxy9InitProxyEv
4016:__ZN9Scripting5Unity11Collections8LowLevel6Unsafe48NativeSetClassTypeToNullOnScheduleAttributeProxy12CleanupProxyEv
4017:__ZN9Scripting5Unity11Collections8LowLevel6Unsafe47NativeDisableUnsafePtrRestrictionAttributeProxy9InitProxyEv
4018:__ZN9Scripting5Unity11Collections8LowLevel6Unsafe47NativeDisableUnsafePtrRestrictionAttributeProxy12CleanupProxyEv
4019:__ZN9Scripting5Unity11Collections8LowLevel6Unsafe53NativeDisableContainerSafetyRestrictionAttributeProxy9InitProxyEv
4020:__ZN9Scripting5Unity11Collections8LowLevel6Unsafe53NativeDisableContainerSafetyRestrictionAttributeProxy12CleanupProxyEv
4021:__ZN9Scripting5Unity11Collections8LowLevel6Unsafe59NativeContainerSupportsMinMaxWriteRestrictionAttributeProxy9InitProxyEv
4022:__ZN9Scripting5Unity11Collections8LowLevel6Unsafe59NativeContainerSupportsMinMaxWriteRestrictionAttributeProxy12CleanupProxyEv
4023:__ZN9Scripting5Unity11Collections8LowLevel6Unsafe54NativeContainerSupportsDeferredConvertListToArrayProxy9InitProxyEv
4024:__ZN9Scripting5Unity11Collections8LowLevel6Unsafe54NativeContainerSupportsDeferredConvertListToArrayProxy12CleanupProxyEv
4025:__ZN9Scripting5Unity11Collections8LowLevel6Unsafe62NativeContainerSupportsDeallocateOnJobCompletionAttributeProxy9InitProxyEv
4026:__ZN9Scripting5Unity11Collections8LowLevel6Unsafe62NativeContainerSupportsDeallocateOnJobCompletionAttributeProxy12CleanupProxyEv
4027:__ZN9Scripting5Unity11Collections8LowLevel6Unsafe45NativeContainerNeedsThreadIndexAttributeProxy9InitProxyEv
4028:__ZN9Scripting5Unity11Collections8LowLevel6Unsafe45NativeContainerNeedsThreadIndexAttributeProxy12CleanupProxyEv
4029:__ZN9Scripting5Unity11Collections8LowLevel6Unsafe39NativeContainerIsReadOnlyAttributeProxy9InitProxyEv
4030:__ZN9Scripting5Unity11Collections8LowLevel6Unsafe39NativeContainerIsReadOnlyAttributeProxy12CleanupProxyEv
4031:__ZN9Scripting5Unity11Collections8LowLevel6Unsafe46NativeContainerIsAtomicWriteOnlyAttributeProxy9InitProxyEv
4032:__ZN9Scripting5Unity11Collections8LowLevel6Unsafe46NativeContainerIsAtomicWriteOnlyAttributeProxy12CleanupProxyEv
4033:__ZN9Scripting5Unity11Collections8LowLevel6Unsafe29NativeContainerAttributeProxy9InitProxyEv
4034:__ZN9Scripting5Unity11Collections8LowLevel6Unsafe29NativeContainerAttributeProxy12CleanupProxyEv
4035:__ZN9Scripting5Unity11Collections39DeallocateOnJobCompletionAttributeProxy9InitProxyEv
4036:__ZN9Scripting5Unity11Collections39DeallocateOnJobCompletionAttributeProxy12CleanupProxyEv
4037:__ZN9Scripting5Unity11Collections14AllocatorProxy9InitProxyEv
4038:__ZN9Scripting5Unity11Collections14AllocatorProxy12CleanupProxyEv
4039:__ZN10BufferGLESD2Ev
4040:__ZN10BufferGLESD0Ev
4041:__ZNK9GfxBuffer6IsBusyEPb
4042:__ZN17BufferManagerGLES13ReleaseBufferEP14DataBufferGLES
4043:__ZNK4core8hash_setINS_4pairIK15ComputeBufferIDP10BufferGLESLb0EEENS_9hash_pairINS_4hashIS2_EES3_S5_EENS_10equal_pairINSt3__28equal_toIS2_EES3_S5_EEE6lookupIS2_SF_EEPNSG_4nodeERKT_RKT0_
4044:__ZN22FrameTimingManagerGLESD2Ev
4045:__ZN22FrameTimingManagerGLESD0Ev
4046:__ZN20PendingFramesManagerIN4gles12PendingFrameELi4EE19CaptureFrameTimingsEv
4047:__ZN20PendingFramesManagerIN4gles12PendingFrameELi4EE19CaptureFrameTimingsEj
4048:__ZN22FrameTimingManagerGLES18GetVSyncsPerSecondEv
4049:__ZN22FrameTimingManagerGLES20GetGpuTimerFrequencyEv
4050:__ZN22FrameTimingManagerGLES20GetCpuTimerFrequencyEv
4051:__ZN22FrameTimingManagerGLES17GetGPUFrameEventsERKN4gles12PendingFrameEjRN20PendingFramesManagerIS1_Li4EE14GPUFrameEventsE
4052:__ZN22FrameTimingManagerGLES17CreateFrameTimingERKN4gles12PendingFrameERKN20PendingFramesManagerIS1_Li4EE14GPUFrameEventsE
4053:_glGetQueryObjectui64v
4054:__ZNK7ApiGLES3GetEj
4055:__ZN20PendingFramesManagerIN4gles12PendingFrameELi4EED2Ev
4056:__ZN18FrameTimingManager18GetVSyncsPerSecondEv
4057:__ZN18FrameTimingManager20GetGpuTimerFrequencyEv
4058:__ZN13GfxDeviceGLESD2Ev
4059:__ZN13GfxDeviceGLESD0Ev
4060:__ZN13GfxDeviceGLES15InvalidateStateEv
4061:__ZN13GfxDeviceGLES18BeforePluginRenderEv
4062:__ZN13GfxDeviceGLES17AfterPluginRenderEv
4063:__ZNK13GfxDeviceGLES14GetDeviceLevelEv
4064:__ZN9GfxDevice13SetActiveTierE12GraphicsTier
4065:__ZN9GfxDevice20SetMaxBufferedFramesEi
4066:__ZN9GfxDevice20GetHDROutputSettingsEv
4067:__ZN13GfxDeviceGLES5ClearE13GfxClearFlagsRK10ColorRGBAffj
4068:__ZN13GfxDeviceGLES8ClearMRTE13GfxClearFlagsPK10ColorRGBAfijfj
4069:__ZN13GfxDeviceGLES19RenderTargetBarrierEv
4070:__ZN9GfxDevice29GetMinimumNodesPerGraphicsJobEv
4071:__ZN13GfxDeviceGLES16CreateBlendStateERK13GfxBlendState
4072:__ZN13GfxDeviceGLES16CreateDepthStateERK13GfxDepthState
4073:__ZN13GfxDeviceGLES18CreateStencilStateERK15GfxStencilState
4074:__ZN13GfxDeviceGLES17CreateRasterStateERK14GfxRasterState
4075:__ZN13GfxDeviceGLES13SetBlendStateEPK16DeviceBlendState
4076:__ZN13GfxDeviceGLES14SetRasterStateEPK17DeviceRasterState
4077:__ZN13GfxDeviceGLES13SetDepthStateEPK16DeviceDepthState
4078:__ZN13GfxDeviceGLES15SetStencilStateEPK18DeviceStencilStatei
4079:__ZN9GfxDevice34SetStencilRefWhenStencilWasSkippedEi
4080:__ZN13GfxDeviceGLES12SetSRGBWriteEb
4081:__ZN13GfxDeviceGLES12GetSRGBWriteEv
4082:__ZN13GfxDeviceGLES19SetUserBackfaceModeEb
4083:__ZN13GfxDeviceGLES16SetForceCullModeE8CullMode
4084:__ZN9GfxDevice21SetWorldMatrixAndTypeERK10Matrix4x4f13TransformTypePK13TransformInfo
4085:__ZN13GfxDeviceGLES14SetWorldMatrixERK10Matrix4x4f
4086:__ZN13GfxDeviceGLES13SetViewMatrixERK10Matrix4x4f
4087:__ZN13GfxDeviceGLES19SetProjectionMatrixERK10Matrix4x4f
4088:__ZN13GfxDeviceGLES26UpdateViewProjectionMatrixEv
4089:__ZN9GfxDevice32UpdateStereoViewProjectionMatrixE21MonoOrStereoscopicEye
4090:__ZN9GfxDevice15SetStereoMatrixE21MonoOrStereoscopicEye24BuiltinShaderMatrixParamRK10Matrix4x4f
4091:__ZN9GfxDevice15GetStereoMatrixE21MonoOrStereoscopicEye24BuiltinShaderMatrixParamR10Matrix4x4f
4092:__ZN9GfxDevice17SetStereoViewportE15StereoscopicEyeRK5RectTIiE
4093:__ZN9GfxDevice21SetStereoScissorRectsEPK5RectTIiE
4094:__ZN9GfxDevice26SetSinglePassStereoEyeMaskE13TargetEyeMask
4095:__ZN9GfxDevice19SaveStereoConstantsEv
4096:__ZN9GfxDevice22RestoreStereoConstantsEv
4097:__ZNK9GfxDevice18GetWorldViewMatrixEv
4098:__ZNK9GfxDevice14GetWorldMatrixEv
4099:__ZNK9GfxDevice13GetViewMatrixEv
4100:__ZNK9GfxDevice19GetProjectionMatrixEv
4101:__ZNK9GfxDevice25GetDeviceProjectionMatrixEv
4102:__ZNK9GfxDevice31CalculateDeviceProjectionMatrixER10Matrix4x4fbb
4103:__ZN13GfxDeviceGLES15SetBackfaceModeEb
4104:__ZN13GfxDeviceGLES11SetViewportERK5RectTIiE
4105:__ZNK13GfxDeviceGLES11GetViewportEv
4106:__ZNK9GfxDevice27GetPlatformAdjustedViewportEv
4107:__ZN13GfxDeviceGLES14SetScissorRectERK5RectTIiE
4108:__ZN13GfxDeviceGLES14DisableScissorEv
4109:__ZNK13GfxDeviceGLES16IsScissorEnabledEv
4110:__ZNK13GfxDeviceGLES14GetScissorRectEv
4111:__ZN13GfxDeviceGLES11SetTexturesE10ShaderTypeiPK15GfxTextureParam
4112:__ZN9GfxDevice11SetSamplersE10ShaderTypeiPK15GfxSamplerParam
4113:__ZN13GfxDeviceGLES24SetTextureSamplingParamsE9TextureIDRK24GfxTextureSamplingParams
4114:__ZN13GfxDeviceGLES25SetShaderPropertiesCopiedERK19ShaderPropertySheet
4115:__ZN9GfxDevice25SetShaderPropertiesSharedERK19ShaderPropertySheet
4116:__ZN9GfxDevice16CreateGpuProgramE20ShaderGpuProgramTypeRK13dynamic_arrayIhLm0EER22CreateGpuProgramOutput
4117:__ZN19GfxThreadableDevice20SetShadersMainThreadERKN9ShaderLab11SubProgramsEPK19ShaderPropertySheetS6_
4118:__ZNK13GfxDeviceGLES14IsShaderActiveE10ShaderType
4119:__ZN13GfxDeviceGLES17DestroySubProgramEPN9ShaderLab10SubProgramE
4120:__ZN13GfxDeviceGLES17DestroyGpuProgramEPK10GpuProgram
4121:__ZN13GfxDeviceGLES20UpdateConstantBufferE5CbKeyPKvm
4122:__ZN13GfxDeviceGLES38AdjustInstancingConstantBufferBindingsEPK5CbKeyS2_mj
4123:__ZN9GfxDevice18MapConstantBuffersEPPvPK5CbKeyPmm
4124:__ZN9GfxDevice20UnmapConstantBuffersER8JobFencePPvPK5CbKeyPmm
4125:__ZN13GfxDeviceGLES22AllocateBufferInternalERK13GfxBufferDesc
4126:__ZN13GfxDeviceGLES24InitializeBufferInternalEP9GfxBufferPKv20GfxUpdateBufferFlags
4127:__ZN9GfxDevice22CreateDynamicVBOBufferERP23DynamicVBOScratchMemorym15GfxBufferTarget13GfxBufferMode
4128:__ZN9GfxDevice23ReserveDynamicVBOBufferEP23DynamicVBOScratchMemoryP9GfxBufferj
4129:__ZN9GfxDevice26BeginDynamicVBOBufferWriteEP9GfxBuffer
4130:__ZN13GfxDeviceGLES12UpdateBufferEP9GfxBufferPKv20GfxUpdateBufferFlags
4131:__ZN9GfxDevice18UpdateBufferRangesEP9GfxBufferPK20GfxUpdateBufferRangeimm20GfxUpdateBufferFlags
4132:__ZN13GfxDeviceGLES16BeginBufferWriteEP9GfxBuffermm
4133:__ZN13GfxDeviceGLES14EndBufferWriteEP9GfxBufferm
4134:__ZN13GfxDeviceGLES12DeleteBufferEP9GfxBuffer
4135:__ZN13GfxDeviceGLES20DrawBuffersBatchModeERK14GfxBatchHeader
4136:__ZN13GfxDeviceGLES20GetVertexDeclarationERK18VertexChannelsInfo
4137:__ZN9GfxDevice22GetDefaultVertexBufferE26GfxDefaultVertexBufferTypem
4138:__ZN13GfxDeviceGLES11DrawBuffersEP9GfxBufferjPKS1_PKjiPK16DrawBuffersRangeiP17VertexDeclaration
4139:__ZN13GfxDeviceGLES19DrawBuffersIndirectEP9GfxBufferjPKS1_PKjiP17VertexDeclaration16GfxPrimitiveType15ComputeBufferIDj
4140:__ZN9GfxDevice28AcquireSharedDynamicVBOChunkE15GfxBufferTargetmj
4141:__ZN9GfxDevice22DrawSharedGeometryJobsERK16DynamicVBOBufferjS2_j16GeometryJobFencePK16DrawBuffersRangemP17VertexDeclaration
4142:__ZN9GfxDevice28ScheduleGeometryJobsInternalEPFvP15GeometryJobDataEPK22GeometryJobInstructionj
4143:__ZN9GfxDevice34ScheduleSharedGeometryJobsInternalE16GeometryJobFencePFvP21SharedGeometryJobDatajEPFvS2_EPFvRK8JobFenceES2_jPK16DynamicVBOBufferSE_
4144:__ZN9GfxDevice19PutGeometryJobFenceER16GeometryJobFence
4145:__ZN9GfxDevice16EndAsyncJobFrameEv
4146:__ZN9GfxDevice19EndGeometryJobFrameEv
4147:__ZN9GfxDevice14AddSetPassStatEv
4148:__ZN9GfxDevice20AddShadowCastersStatEi
4149:__ZN9GfxDevice21ReleaseSharedMeshDataEPK14SharedMeshData
4150:__ZN9GfxDevice24ReleaseSharedTextureDataEPK17SharedTextureData
4151:__ZN9GfxDevice25ReleaseAsyncCommandHeaderEPN21GfxDeviceAsyncCommand3ArgE
4152:__ZN9GfxDevice23CreateGPUSkinPoseBufferEv
4153:__ZN9GfxDevice9SkinOnGPUEPKP9GfxBufferiP17GPUSkinPoseBufferS1_iiP17VertexDeclaration17ShaderChannelMask
4154:__ZN9GfxDevice15ComputeSkinningEPKP9GfxBufferiS1_S1_ii17ShaderChannelMask
4155:__ZN9GfxDevice15ApplyBlendShapeEP9GfxBufferS1_ii17ShaderChannelMaskf
4156:__ZN9GfxDevice27UpdateComputeSkinPoseBufferEP9GfxBufferP20MatrixArrayJobOutput
4157:__ZN9GfxDevice33GpuRecorderReadTimestampsInternalEPyjj
4158:__ZN9GfxDevice24CreateRenderColorSurfaceE9TextureIDiiii16TextureDimension14GraphicsFormat18SurfaceCreateFlags
4159:__ZN9GfxDevice31CreateResolveRenderColorSurfaceE9TextureID12ObjectHandleI17RenderSurface_TagP17RenderSurfaceBaseEiiii16TextureDimension14GraphicsFormat18SurfaceCreateFlags
4160:__ZN9GfxDevice24CreateRenderColorSurfaceE9TextureIDiiiii16TextureDimension14GraphicsFormat18SurfaceCreateFlags
4161:__ZN9GfxDevice24CreateRenderDepthSurfaceE9TextureIDiiii16TextureDimension17DepthBufferFormat18SurfaceCreateFlags
4162:__ZN9GfxDevice20CreateStencilTextureE9TextureIDR12ObjectHandleI17RenderSurface_TagP17RenderSurfaceBaseE14GraphicsFormat
4163:__ZN9GfxDevice20DestroyRenderSurfaceER12ObjectHandleI17RenderSurface_TagP17RenderSurfaceBaseE
4164:__ZN13GfxDeviceGLES19ResolveColorSurfaceE12ObjectHandleI17RenderSurface_TagP17RenderSurfaceBaseES4_
4165:__ZN13GfxDeviceGLES23ResolveDepthIntoTextureE12ObjectHandleI17RenderSurface_TagP17RenderSurfaceBaseES4_
4166:__ZN13GfxDeviceGLES15DiscardContentsER12ObjectHandleI17RenderSurface_TagP17RenderSurfaceBaseE
4167:__ZNK13GfxDeviceGLES27GetActiveRenderColorSurfaceEi
4168:__ZNK13GfxDeviceGLES27GetActiveRenderDepthSurfaceEv
4169:__ZNK13GfxDeviceGLES26GetActiveRenderTargetCountEv
4170:__ZNK9GfxDevice22GetActiveRenderTargetsERA8_12ObjectHandleI17RenderSurface_TagP17RenderSurfaceBaseERS4_
4171:__ZNK9GfxDevice27GetActiveRenderSurfaceWidthEv
4172:__ZNK9GfxDevice28GetActiveRenderSurfaceHeightEv
4173:__ZNK9GfxDevice23IsRenderingToBackBufferEv
4174:__ZN9GfxDevice25GetBackBufferColorSurfaceEv
4175:__ZN9GfxDevice25GetBackBufferDepthSurfaceEv
4176:__ZN13GfxDeviceGLES30SetBackBufferColorDepthSurfaceEP17RenderSurfaceBaseS1_
4177:__ZN13GfxDeviceGLES29RenderSurfaceStructMemorySizeEb
4178:__ZN9GfxDevice18AllocRenderSurfaceEb
4179:__ZN9GfxDevice20DeallocRenderSurfaceEP17RenderSurfaceBase
4180:__ZN13GfxDeviceGLES32CreateColorRenderSurfacePlatformEP17RenderSurfaceBase14GraphicsFormat
4181:__ZN13GfxDeviceGLES32CreateDepthRenderSurfacePlatformEP17RenderSurfaceBase17DepthBufferFormat
4182:__ZN9GfxDevice39CreateResolveColorRenderSurfacePlatformEP17RenderSurfaceBasePKS0_14GraphicsFormat
4183:__ZN9GfxDevice46SwitchColorRenderSurfaceIntoFastMemoryPlatformEP17RenderSurfaceBase12SurfaceUsage15FastMemoryFlagsbf
4184:__ZN9GfxDevice46SwitchDepthRenderSurfaceIntoFastMemoryPlatformEP17RenderSurfaceBaseb12SurfaceUsage15FastMemoryFlagsbf
4185:__ZN9GfxDevice19ResizeRenderSurfaceEP17RenderSurfaceBaseff
4186:__ZNK9GfxDevice36GetSupportedRenderSurfaceScaleFactorEffPfS0_
4187:__ZN13GfxDeviceGLES28DestroyRenderSurfacePlatformEP17RenderSurfaceBase
4188:__ZN9GfxDevice21CopyRenderSurfaceDescEP17RenderSurfaceBasePKS0_
4189:__ZN13GfxDeviceGLES26AliasRenderSurfacePlatformEP17RenderSurfaceBase9TextureID
4190:__ZN9GfxDevice15CreateTextureIDEv
4191:__ZN13GfxDeviceGLES23CreateTextureIdIfNeededEP17RenderSurfaceBase
4192:__ZN9GfxDevice13FreeTextureIDE9TextureID
4193:__ZN13GfxDeviceGLES21RegisterNativeTextureE9TextureIDl16TextureDimension
4194:__ZN9GfxDevice31RegisterNativeTextureWithParamsE9TextureIDl16TextureDimension14GraphicsFormatiii
4195:__ZN13GfxDeviceGLES23UnregisterNativeTextureE9TextureID
4196:__ZN9GfxDevice21TransferNativeTextureE16TextureDimension9TextureIDS1_
4197:__ZN9GfxDevice26CanCreateTexture2DThreadedE9TextureID16TextureDimensioniii14GraphicsFormatbR31ThreadedTextureCreationSettings
4198:__ZN9GfxDevice23CreateTexture2DThreadedE9TextureID16TextureDimensionPKhmii14GraphicsFormati18TextureUploadFlags16TextureUsageModePK23TexturePlatformMetaData
4199:__ZN9GfxDevice28AcquireTexture2DUploadMemoryER17TextureCreateDataRP19TextureUploadMemory
4200:__ZN9GfxDevice17BeginTextureWriteEP17TextureCreateData
4201:__ZN13GfxDeviceGLES15UploadTexture2DE9TextureID16TextureDimensionPKhmii14GraphicsFormati18TextureUploadFlags16TextureUsageMode
4202:__ZN9GfxDevice22UploadTextureSubData2DE9TextureIDPKhmiiiii14GraphicsFormat18TextureUploadFlags
4203:__ZN13GfxDeviceGLES17UploadTextureCubeE9TextureIDPKhmii14GraphicsFormati18TextureUploadFlags
4204:__ZN13GfxDeviceGLES15UploadTexture3DE9TextureIDPKhmiii14GraphicsFormati18TextureUploadFlags
4205:__ZN13GfxDeviceGLES13DeleteTextureE9TextureID
4206:__ZNK9GfxDevice29GetTextureResourceMipDataInfoE16TextureDimensioniiii13TextureFormatbPK23TexturePlatformMetaData
4207:__ZN13GfxDeviceGLES20UploadTexture2DArrayE9TextureIDPKhmiii14GraphicsFormati18TextureUploadFlags
4208:__ZN13GfxDeviceGLES22UploadTextureCubeArrayE9TextureIDPKhmii14GraphicsFormati18TextureUploadFlags
4209:__ZN9GfxDevice16MapUploadSurfaceE15UploadSurfaceID
4210:__ZN9GfxDevice21CreateUploadSurfaceIDEv
4211:__ZN13GfxDeviceGLES25GenerateRenderSurfaceMipsEP17RenderSurfaceBase
4212:__ZN13GfxDeviceGLES11CopyTextureE9TextureIDS0_
4213:__ZN13GfxDeviceGLES11CopyTextureE9TextureIDiiiS0_iii
4214:__ZN13GfxDeviceGLES11CopyTextureE9TextureIDiiiiiiiiiS0_iiiiii
4215:__ZN13GfxDeviceGLES19CreateSparseTextureE9TextureIDii14GraphicsFormati
4216:__ZN13GfxDeviceGLES23UploadSparseTextureTileE9TextureIDiiiPKhii
4217:__ZN13GfxDeviceGLES18EndBatchModeUpdateEv
4218:__ZN13GfxDeviceGLES10BeginFrameEv
4219:__ZN13GfxDeviceGLES8EndFrameEv
4220:__ZN9GfxDevice15ExecuteCallbackEPFvRS_23GfxDeviceCallbackThreadPvES2_
4221:__ZN13GfxDeviceGLES12PresentFrameEv
4222:__ZN9GfxDevice12PresentFrameE17ShaderChannelMask
4223:__ZN9GfxDevice38WaitForLastPresentationAndGetTimestampEv
4224:__ZN13GfxDeviceGLES12IsValidStateEv
4225:__ZN13GfxDeviceGLES18HandleInvalidStateEv
4226:__ZN13GfxDeviceGLES5FlushEv
4227:__ZN13GfxDeviceGLES15FinishRenderingEv
4228:__ZNK19GfxThreadableDevice16IsCPUFencePassedEj
4229:__ZN13GfxDeviceGLES22AcquireThreadOwnershipEv
4230:__ZN13GfxDeviceGLES22ReleaseThreadOwnershipEv
4231:__ZN9GfxDevice15ImmediateVertexEfff
4232:__ZN9GfxDevice15ImmediateNormalEfff
4233:__ZN9GfxDevice14ImmediateColorEffff
4234:__ZN9GfxDevice20ImmediateTexCoordAllEfff
4235:__ZN9GfxDevice17ImmediateTexCoordEifff
4236:__ZN9GfxDevice14ImmediateBeginE16GfxPrimitiveType16VertexInputMasks
4237:__ZN9GfxDevice12ImmediateEndEv
4238:__ZN13GfxDeviceGLES17CaptureScreenshotEiiiiPh
4239:__ZN13GfxDeviceGLES13ReadbackImageER14ImageReferenceiiiiii
4240:__ZN13GfxDeviceGLES21GrabIntoRenderTextureE12ObjectHandleI17RenderSurface_TagP17RenderSurfaceBaseES4_iiii
4241:__ZN13GfxDeviceGLES14BeforeDrawCallEv
4242:__ZN13GfxDeviceGLES16SetActiveContextEPv
4243:__ZN9GfxDevice15ResetFrameStatsEv
4244:__ZN9GfxDevice15BeginFrameStatsEv
4245:__ZN9GfxDevice13EndFrameStatsEv
4246:__ZN9GfxDevice16SynchronizeStatsEv
4247:__ZN9GfxDevice18SetGlobalDepthBiasEff
4248:__ZNK9GfxDevice18GetGlobalDepthBiasERfS0_
4249:__ZN13GfxDeviceGLES14SetTextureNameE9TextureIDPKc
4250:__ZN13GfxDeviceGLES20SetRenderSurfaceNameEP17RenderSurfaceBasePKc
4251:__ZN13GfxDeviceGLES13SetBufferNameEP9GfxBufferPKc
4252:__ZN13GfxDeviceGLES17SetGpuProgramNameEP10GpuProgramPKc
4253:__ZN13GfxDeviceGLES23GetNativeTexturePointerE9TextureID
4254:__ZN13GfxDeviceGLES22GetNativeBufferPointerEP9GfxBuffer
4255:__ZN9GfxDevice33InsertCustomMarkerCallbackAndDataEPFviPvEiS0_m
4256:__ZN9GfxDevice31InsertCustomBlitCallbackAndDataEPFviPvER33UnityRenderingExtCustomBlitParams
4257:__ZN13GfxDeviceGLES33InsertPluginTextureUpdateCallbackEPFviPvER44UnityRenderingExtTextureUpdateParamsInternal
4258:__ZN9GfxDevice25InsertXRGfxCustomCallbackEPFviPvEiS0_
4259:__ZN9GfxDevice18InsertCustomMarkerEi
4260:__ZN9GfxDevice26InsertCustomMarkerCallbackEPFviEi
4261:__ZN9GfxDevice21CreateComputeBufferIDEv
4262:__ZN13GfxDeviceGLES20SetComputeBufferDataEP9GfxBufferPKvmm
4263:__ZN13GfxDeviceGLES20GetComputeBufferDataEP9GfxBufferPvmm
4264:__ZN13GfxDeviceGLES28SetComputeBufferCounterValueE15ComputeBufferIDj
4265:__ZN13GfxDeviceGLES22CopyComputeBufferCountE15ComputeBufferIDS0_j
4266:__ZN13GfxDeviceGLES10CopyBufferEP9GfxBufferS1_
4267:__ZN9GfxDevice23CreateAsyncReadbackDataEv
4268:__ZN9GfxDevice23DeleteAsyncReadbackDataEP20GfxAsyncReadbackData
4269:__ZN9GfxDevice24RequestAsyncReadbackDataEP20GfxAsyncReadbackDataRK27GfxAsyncReadbackRequestDesc
4270:__ZN13GfxDeviceGLES27SetRandomWriteTargetTextureEi9TextureID
4271:__ZN13GfxDeviceGLES26SetRandomWriteTargetBufferEi15ComputeBufferID
4272:__ZN13GfxDeviceGLES23ClearRandomWriteTargetsEv
4273:__ZNK13GfxDeviceGLES26HasActiveRandomWriteTargetEv
4274:__ZN13GfxDeviceGLES20CreateComputeProgramEPKhmPKc
4275:__ZN13GfxDeviceGLES21DestroyComputeProgramER12ObjectHandleI18ComputeProgram_TagPvE
4276:__ZN13GfxDeviceGLES30ResolveComputeProgramResourcesE12ObjectHandleI18ComputeProgram_TagPvER19ComputeShaderKernelR13dynamic_arrayI15ComputeShaderCBLm0EERS6_I18ComputeShaderParamLm0EEb
4277:__ZN13GfxDeviceGLES28CreateComputeConstantBuffersEjPKjP20ConstantBufferHandle
4278:__ZN13GfxDeviceGLES29DestroyComputeConstantBuffersEjP20ConstantBufferHandle
4279:__ZN13GfxDeviceGLES17SetComputeUniformE12ObjectHandleI18ComputeProgram_TagPvER18ComputeShaderParammPKv
4280:__ZN13GfxDeviceGLES28UpdateComputeConstantBuffersEjP20ConstantBufferHandlejmPKhPKjS5_PKi
4281:__ZN13GfxDeviceGLES22UpdateComputeResourcesERK22ComputeShaderResources
4282:__ZN13GfxDeviceGLES22DispatchComputeProgramE12ObjectHandleI18ComputeProgram_TagPvEjjj
4283:__ZN13GfxDeviceGLES22DispatchComputeProgramE12ObjectHandleI18ComputeProgram_TagPvE15ComputeBufferIDj
4284:__ZN9GfxDevice25DispatchRayTracingProgramER12ObjectHandleI21RayTracingProgram_TagPvEPKcjjj
4285:__ZN9GfxDevice33SetRayTracingShaderConstantBufferER12ObjectHandleI21RayTracingProgram_TagPvE29RayTracingShaderResourceScopeRK20ConstantBufferHandlePKvmi
4286:__ZN13GfxDeviceGLES16DrawNullGeometryE16GfxPrimitiveTypeii
4287:__ZN13GfxDeviceGLES24DrawNullGeometryIndirectE16GfxPrimitiveType15ComputeBufferIDj
4288:__ZN13GfxDeviceGLES23DrawIndexedNullGeometryE16GfxPrimitiveTypeP9GfxBufferiii
4289:__ZN13GfxDeviceGLES31DrawIndexedNullGeometryIndirectE16GfxPrimitiveTypeP9GfxBuffer15ComputeBufferIDj
4290:__ZN13GfxDeviceGLES15SetStereoTargetE15StereoscopicEye
4291:__ZN13GfxDeviceGLES12EndStereoEyeE15StereoscopicEye
4292:__ZN9GfxDevice19SetSinglePassStereoE16SinglePassStereo
4293:__ZN9GfxDevice32UpdateLateLatchWorldMatrixParamsEiii
4294:__ZN9GfxDevice26SetInstanceCountMultiplierEi
4295:__ZN9GfxDevice19AsyncResourceUploadEiRK26AsyncUploadManagerSettings
4296:__ZN9GfxDevice23SyncAsyncResourceUploadE10AsyncFenceRK26AsyncUploadManagerSettings
4297:__ZNK9GfxDevice16StoreContextDataEP14GfxContextData
4298:__ZN9GfxDevice16ApplyContextDataEPK14GfxContextData
4299:__ZN9GfxDevice19CopyContextDataFromEPKS_
4300:__ZN9GfxDevice20UpdateDeviceThreadIDEy
4301:__ZN9GfxDevice12ExecuteAsyncEiPFvPN21GfxDeviceAsyncCommand10ArgScratchEPKNS0_3ArgEEPS2_S5_RK8JobFence
4302:__ZN9GfxDevice31GetPreparedThreadedDeviceClientEv
4303:__ZN9GfxDevice16SetDebugSettingsERKNS_13DebugSettingsE
4304:__ZN9GfxDevice26UpdateRenderSurfaceWrapperER12ObjectHandleI17RenderSurface_TagP17RenderSurfaceBaseES3_17DepthBufferFormat
4305:__ZN9GfxDevice27CleanupRenderSurfaceWrapperER12ObjectHandleI17RenderSurface_TagP17RenderSurfaceBaseE
4306:__ZN13GfxDeviceGLES14CreateGPUFenceEP17GPUFenceInternals12GPUFenceType20SynchronisationStage
4307:__ZN9GfxDevice27SubmitPresentFrameCallbacksEv
4308:__ZN13GfxDeviceGLES20SetRenderTargetsImplERK20GfxRenderTargetSetup
4309:__ZN13GfxDeviceGLES26UploadTextureSubData2DImplE9TextureIDPKhmiiiii14GraphicsFormat18TextureUploadFlags
4310:__ZNK13GfxDeviceGLES21HasGPUFencePassedImplEPv
4311:__ZN9GfxDevice19BeginRenderPassImplERK15RenderPassSetup
4312:__ZN9GfxDevice15NextSubPassImplEv
4313:__ZN9GfxDevice17EndRenderPassImplEv
4314:__ZN13GfxDeviceGLES20SetShadersThreadableEPP10GpuProgramPPK20GpuProgramParametersPKPKh
4315:__ZN19GfxThreadableDevice37SetGeometryRayTracingShaderMainThreadER12ObjectHandleI21RayTracingProgram_TagPvEjPKN9ShaderLab10SubProgramEPK19ShaderPropertySheetSB_
4316:__ZN13GfxDeviceGLES4InitE16GfxDeviceLevelGL
4317:__ZN13GfxDeviceGLES19SetViewportPlatformERK5RectTIiE
4318:__ZN13GfxDeviceGLES26EnableScissorRectsPlatformEv
4319:__ZN13GfxDeviceGLES22SetScissorRectPlatformERK5RectTIiE
4320:__ZN13GfxDeviceGLES35UpdateActiveConstantBuffersPlatformE21MonoOrStereoscopicEyeb
4321:__ZN13GfxDeviceGLES24DrawBufferRangesPlatformEP9GfxBufferjPKS1_PKjiPK16DrawBuffersRangeiP17VertexDeclarationmi
4322:__ZN13GfxDeviceGLES16SetUniformBufferEiiii
4323:__ZN13GfxDeviceGLES16SetUniformBufferEi15ComputeBufferIDii
4324:__ZThn8920_N13GfxDeviceGLES19SetViewportPlatformERK5RectTIiE
4325:__ZThn8920_N13GfxDeviceGLES26EnableScissorRectsPlatformEv
4326:__ZThn8920_N13GfxDeviceGLES22SetScissorRectPlatformERK5RectTIiE
4327:__ZThn8920_N13GfxDeviceGLES35UpdateActiveConstantBuffersPlatformE21MonoOrStereoscopicEyeb
4328:__ZThn8920_N13GfxDeviceGLES24DrawBufferRangesPlatformEP9GfxBufferjPKS1_PKjiPK16DrawBuffersRangeiP17VertexDeclarationmi
4329:__ZN13GfxDeviceGLES16DrawBufferRangesEP9GfxBufferjPKS1_PKjiPK16DrawBuffersRangeiP17VertexDeclarationmi
4330:__Z18SetVertexStateGLES17ShaderChannelMaskRK18VertexChannelsInfoPKP9GfxBufferPKjijm
4331:__ZN7ApiGLES22BindElementArrayBufferEj
4332:__ZN7ApiGLES12DrawElementsE16GfxPrimitiveTypePKvjjjj
4333:__ZN7ApiGLES10DrawArraysE16GfxPrimitiveTypejjj
4334:__ZN7ApiGLES20SetVertexArrayAttribEjj12VertexFormathjPKv
4335:__ZN7ApiGLES24DisableVertexArrayAttribEj
4336:__ZN19ConstantBuffersGLES13UpdateBuffersEv
4337:__ZN14DataBufferGLES7ReleaseEv
4338:__Z20GetBufferManagerGLESv
4339:__ZN17BufferManagerGLES13AcquireBufferEmN14DataBufferGLES11BufferUsageEb
4340:__ZN14DataBufferGLES6UploadEmmPKv
4341:__ZN7ApiGLES17BindUniformBufferEjj
4342:__ZN14DataBufferGLES16RecreateWithDataEmPKv
4343:__ZN7ApiGLES19UploadBufferSubDataEjN2gl12BufferTargetEllPKv
4344:__ZN7ApiGLES12CreateBufferEN2gl12BufferTargetElPKvj
4345:__ZN7ApiGLES14RecreateBufferEjN2gl12BufferTargetElPKvj
4346:__ZN7ApiGLES18ClearBufferSubDataEjN2gl12BufferTargetEll
4347:__ZN14DataBufferGLESC2ER17BufferManagerGLESmNS_11BufferUsageEb
4348:__ZN18GfxFramebufferGLES10SetScissorERK5RectTIiE
4349:__ZN18GfxFramebufferGLES11SetViewportERK5RectTIiE
4350:__ZN7ApiGLES17BindUniformBufferEjjll
4351:__ZN11ContextGLES6CreateEi
4352:__ZN7ApiGLES4InitERK14GfxContextGLESR16GfxDeviceLevelGL
4353:__ZN13GfxDeviceGLES15InitCommonStateER15DeviceStateGLES
4354:__ZN26SinglePassStereoSupportExt27InitSinglePassStereoSupportEP21ISinglePassStereoImplP9GfxDevice
4355:__ZN9GfxDevice26CreateDefaultVertexBuffersEv
4356:__Z24PluginsSetGraphicsDevicePvi18GfxDeviceEventType
4357:__ZN22FrameTimingManagerGLES10FrameStartEv
4358:__ZN9GfxDevice25CreateDefaultVertexBufferE26GfxDefaultVertexBufferTypem
4359:__ZNSt3__26__treeI20DeviceBlendStateGLES14MemoryCompLessI16DeviceBlendStateENS_9allocatorIS1_EEE25__emplace_unique_key_argsIS1_JS1_EEENS_4pairINS_15__tree_iteratorIS1_PNS_11__tree_nodeIS1_PvEElEEbEERKT_DpOT0_
4360:__ZN4gles24InvalidatePipelineStatesERK14GfxContextGLESR15DeviceStateGLES
4361:__ZN7ApiGLES10InvalidateERK14GfxContextGLES
4362:__ZN4gles16CreateBlendStateER15DeviceStateGLESRK13GfxBlendState
4363:__ZN4gles18CreateStencilStateER15DeviceStateGLESRK15GfxStencilState
4364:__ZN4gles17CreateRasterStateER15DeviceStateGLESRK14GfxRasterState
4365:__ZNSt3__26__treeI17DeviceRasterState14MemoryCompLessIS1_ENS_9allocatorIS1_EEE25__emplace_unique_key_argsIS1_JS1_EEENS_4pairINS_15__tree_iteratorIS1_PNS_11__tree_nodeIS1_PvEElEEbEERKT_DpOT0_
4366:__ZNSt3__26__treeI22DeviceStencilStateGLES14MemoryCompLessI18DeviceStencilStateENS_9allocatorIS1_EEE25__emplace_unique_key_argsIS1_JS1_EEENS_4pairINS_15__tree_iteratorIS1_PNS_11__tree_nodeIS1_PvEElEEbEERKT_DpOT0_
4367:__ZN22DeviceStencilStateGLESC2ERK15GfxStencilState
4368:__ZNK14GfxContextGLES21GetDefaultVertexArrayEv
4369:__ZN7ApiGLES13IsVertexArrayEN2gl6HandleILNS0_10ObjectTypeE3EEE
4370:__ZN7ApiGLES17CreateVertexArrayEv
4371:__ZN20DeviceBlendStateGLESC2ERK13GfxBlendState
4372:__ZN22FrameTimingManagerGLESC2ER7ApiGLES
4373:__Z35GetTimeToNanosecondsConversionRatiov
4374:_glDebugMessageInsert
4375:__ZN7ApiGLES14FillExtensionsER13dynamic_arrayIN4core16basic_string_refIcEELm0EE
4376:__Z20InitializeExtensionsRK13dynamic_arrayIN4core16basic_string_refIcEELm0EE
4377:__ZN7ApiGLES4LoadE16GfxDeviceLevelGL
4378:__ZN4gles8InitCapsEP7ApiGLESP12GraphicsCapsR16GfxDeviceLevelGLRK13dynamic_arrayIN4core16basic_string_refIcEELm0EE
4379:__ZN13TranslateGLES4InitERK12GraphicsCaps16GfxDeviceLevelGL
4380:__ZN4gles23InitRenderTextureAACapsEP7ApiGLESP12GraphicsCaps
4381:__ZN13TranslateGLES10InitFormatERK12GraphicsCaps
4382:__ZN13TranslateGLES18InitTextureSamplerERK12GraphicsCaps
4383:__ZNSt3__26vectorINS_4pairIj16TextureDimensionEENS_9allocatorIS3_EEE6insertENS_11__wrap_iterIPKS3_EEOS3_
4384:__ZNSt3__214__split_bufferINS_4pairIj16TextureDimensionEERNS_9allocatorIS3_EEE9push_backEOS3_
4385:__ZN2gl12GetLevelDescE16GfxDeviceLevelGL
4386:__ZN4core5SplitENS_16basic_string_refIcEEcR13dynamic_arrayINS_12basic_stringIcNS_20StringStorageDefaultIcEEEELm0EEm
4387:__Z19GetExtensionsStringRK13dynamic_arrayIN4core16basic_string_refIcEELm0EE
4388:__Z19DebugTextLineByLinePKci
4389:__ZN13string_traitsIA24_cE8get_sizeERA24_Kc
4390:__ZNK12GraphicsCaps27SupportsFormatUsageReadbackE14GraphicsFormat
4391:__ZN12GraphicsCaps17InitDefaultFormatEv
4392:__ZNK12GraphicsCaps17IsFormatSupportedE14GraphicsFormat11FormatUsage13FormatSupport
4393:__Z19GetActiveColorGamutv
4394:__ZNK12GraphicsCaps17GetGraphicsFormatE13DefaultFormat10ColorSpace
4395:__Z9SplitImplIN4core12basic_stringIcNS0_20StringStorageDefaultIcEEEEEvNS0_16basic_string_refIcEEcR13dynamic_arrayIT_Lm0EEm
4396:__Z10BeginsWithPKcS0_
4397:__ZN18GlslGpuProgramGLES19ApplyGpuProgramGLESEjRK20GpuProgramParametersPKhb
4398:__ZN21GLESGpuProgramApplier10ApplyFloatERKN20GpuProgramParameters14ValueParameterEPKft
4399:__ZN21GLESGpuProgramApplier11ApplyVectorERKN20GpuProgramParameters14ValueParameterEPK8Vector4ft
4400:__ZN21GLESGpuProgramApplier11ApplyMatrixERKN20GpuProgramParameters14ValueParameterEPK10Matrix4x4ft
4401:__ZN19ConstantBuffersGLES6FindCBE5CbKey
4402:__ZN19ConstantBuffersGLES6BindCBEii
4403:__ZN10GpuProgram22ApplyTextureParametersEPKhR9GfxDevice10ShaderType
4404:__ZN13GfxDeviceGLES16SetComputeBufferE15ComputeBufferIDi20ComputeBufferCounterbb
4405:__ZN10GpuProgram22ApplySamplerParametersEPKhR9GfxDevice10ShaderType
4406:__ZN19ConstantBuffersGLES9DisableCBE5CbKey
4407:__Z29TextureIdMapGLES_QueryOrAlloc9TextureID
4408:__ZN7ApiGLES10GenTextureEj
4409:__ZN7ApiGLES19CreateBufferTextureEj14GraphicsFormatj
4410:__ZN4gles10SetTextureER15DeviceStateGLESjjj17InlineSamplerType
4411:__ZN13GfxDeviceGLES15SetImageTextureE9TextureIDii
4412:__ZN7ApiGLES23BindShaderStorageBufferEjj
4413:_glMemoryBarrier
4414:__ZN14DataBufferGLES11CopySubDataEPKS_mmm
4415:__ZN7ApiGLES23BindAtomicCounterBufferEjj
4416:__ZN7ApiGLES17CopyBufferSubDataEjjlll
4417:_glTextureView
4418:_glBindImageTexture
4419:__ZN7ApiGLES17ActiveTextureUnitEj
4420:__ZN7ApiGLES13CreateSamplerEj17TextureFilterMode15TextureWrapModeS1_S1_i17TextureColorSpace
4421:__ZN7ApiGLES11BindSamplerEij
4422:__ZN7ApiGLES11BindTextureEjj
4423:__ZN16GfxResourceIDMap18CreatePageIfNeededEj
4424:__ZN19ConstantBuffersGLES13SetCBConstantEiiPKvi
4425:__ZN10Matrix3x3faSERK10Matrix4x4f
4426:__ZN9GfxDevice16SetRenderTargetsERK20GfxRenderTargetSetup
4427:__ZN7Texture15FindTextureByIDE9TextureID
4428:__ZN19ShaderPropertySheet24SetTextureWithExplicitIDERK23FastTexturePropertyNamePK7Texture9TextureID
4429:__ZN13dynamic_arrayIN12_GLOBAL__N_114AttachmentInfoELm0EEC2Em10MemLabelId
4430:__ZNSt3__26vectorIN9GfxDevice14SubPassActionsENS_9allocatorIS2_EEE8__appendEm
4431:__ZNSt3__26vectorIN9GfxDevice14SubPassActionsENS_9allocatorIS2_EEE26__swap_out_circular_bufferERNS_14__split_bufferIS2_RS4_EE
4432:__ZN4gles22UploadTexture2DSubDataEP7ApiGLESj14GraphicsFormatPKviiiii
4433:__ZNK12GraphicsCaps16FindUploadFormatE14GraphicsFormat11FormatUsage
4434:__Z17ComputeMipmapSizeii14GraphicsFormat
4435:__ZN13dynamic_arrayIhLm0EEC2Em10MemLabelId
4436:__Z13ConvertMipmap14GraphicsFormatPKvS_Pviii
4437:__ZN7ApiGLES15TextureSubImageEjj14GraphicsFormatiiiiiiiiPKv
4438:__ZNK13TranslateGLES25GetTextureTargetDimensionEj
4439:__Z13ConvertMipmap14GraphicsFormatPKvS_Pviiii
4440:__ZN14ImageReference9BlitImageERKS_13ImageBlitMode
4441:__Z29DecompressNativeTextureFormat14GraphicsFormatS_iiPKjiiPj
4442:__Z19GetColorBlockColorsPK11DXTColBlockP9Color8888
4443:__Z16DecodeColorBlockPjRK11DXTColBlockiPKj
4444:__Z19DecodeAlphaExplicitPjRK21DXTAlphaBlockExplicitij
4445:__Z21DecodeAlpha3BitLinearPjRK23DXTAlphaBlock3BitLineariji
4446:__Z14DecompressBC6HiiiPKjPj14GraphicsFormat
4447:__Z13DecompressBC7iiiPKjPj
4448:__Z14DecodeBC7BlockP9HDRColorAPKh
4449:__Z15DecodeBC6HBlockP9HDRColorAPKh
4450:__ZL13BlitImageImplR14ImageReferenceiiRKS_17TextureColorSpace13ImageBlitModeb
4451:__ZN6prcore14BlitImageFlipYERK14ImageReferenceRS0_ii
4452:__ZN6prcore9BlitImageERK14ImageReferenceRS0_ii
4453:__ZN6prcore14BlitImageFlipYERK14ImageReferenceRS0_13ImageBlitMode
4454:__ZN6prcore9BlitImageERK14ImageReferenceRS0_13ImageBlitMode
4455:__Z10GetRowSizei14GraphicsFormat
4456:__ZL21BlitScaleStbImageImplRK14ImageReferenceRS_17TextureColorSpace
4457:__ZN6prcore10FlipImageYER14ImageReference
4458:__Z20GetTextureFormatInfo14GraphicsFormat
4459:__ZN6prcoreL10inner_flipILj2EEEvPhS1_m
4460:__ZN6prcoreL10inner_flipILj4EEEvPhS1_m
4461:__ZN6prcoreL10inner_flipILj8EEEvPhS1_m
4462:__ZN6prcoreL10inner_flipILj6EEEvPhS1_m
4463:__ZN6prcoreL10inner_flipILj3EEEvPhS1_m
4464:__ZN6prcoreL10inner_flipILj1EEEvPhS1_m
4465:__Z11IsHDRFormat14GraphicsFormat
4466:__ZL8StbAllocmPv
4467:__ZL7StbFreePvS_
4468:_stbir_resize
4469:__ZL23stbir__resize_arbitraryPvPKviiiS_iiiffffPfiij14stbir_datatype12stbir_filterS4_10stbir_edgeS5_16stbir_colorspace
4470:__ZL23stbir__calculate_memoryP11stbir__info
4471:__ZL24stbir__calculate_filtersP19stbir__contributorsPf12stbir_filterffii
4472:__ZL22stbir__decode_scanlineP11stbir__infoi
4473:__ZL35stbir__resample_horizontal_upsampleP11stbir__infoPf
4474:__ZL37stbir__resample_horizontal_downsampleP11stbir__infoPf
4475:__ZL22stbir__encode_scanlineP11stbir__infoiPvPfiii
4476:__ZL19stbir__support_zerof
4477:__ZL23stbir__filter_trapezoidff
4478:__ZL24stbir__support_trapezoidf
4479:__ZL22stbir__filter_triangleff
4480:__ZL18stbir__support_onef
4481:__ZL19stbir__filter_cubicff
4482:__ZL18stbir__support_twof
4483:__ZL24stbir__filter_catmullromff
4484:__ZL22stbir__filter_mitchellff
4485:__ZL31stbir__filter_mitchell_modifiedff
4486:__ZN6prcoreL21InitRemapBlitterTableEv
4487:__ZN6prcore21BlitImageRemapNoScaleERK14ImageReferenceRS0_
4488:__ZN6prcore24BlitImageFloatRemapScaleERK14ImageReferenceRS0_13ImageBlitMode
4489:__ZN6prcore19BlitImageRemapScaleERK14ImageReferenceRS0_13ImageBlitMode
4490:__ZN6prcore17GetIntegerBlitterE14GraphicsFormatS0_13ImageBlitMode
4491:__ZN6prcore21CreateRemapAnyBlitterE14GraphicsFormatS0_
4492:__ZN6prcore15BlitterRemapAny4BlitEPKNS_9InnerInfoE
4493:__ZNK6prcore16BlitFuncInfoSIMD10GetBlitterEv
4494:__ZN6prcore34GetIntermediateFormatFor2StepRemapE14GraphicsFormatS0_
4495:__ZN6prcoreL29BlitFuncExecuteFromSelectInfoEPKNS_9InnerInfoEPKv
4496:__ZN6prcore16BlitFuncInfoSIMD19BlitFuncExecuteSIMDEPKNS_9InnerInfoEPKv
4497:__ZN6prcore22GetIntegerBlitterScaleE14GraphicsFormatS0_
4498:__ZN6prcore30GetIntegerBlitterBilinearScaleE14GraphicsFormatS0_
4499:__ZN6prcoreL23StretchBilinearARGB8888EPKNS_9InnerInfoE
4500:__ZN6prcoreL17StretchBilinearI8EPKNS_9InnerInfoE
4501:__ZN6prcoreL21StretchBilinearRGB565EPKNS_9InnerInfoE
4502:__ZN6prcoreL21StretchBilinearRGB888EPKNS_9InnerInfoE
4503:__ZN6prcoreL23StretchBilinearARGB4444EPKNS_9InnerInfoE
4504:__ZN6prcoreL19StretchBilinearRG88EPKNS_9InnerInfoE
4505:__ZN6prcoreL18StretchBilinearR16EPKNS_9InnerInfoE
4506:__ZN6prcoreL21StretchBilinearR16G16EPKNS_9InnerInfoE
4507:__ZN6prcoreL24StretchBilinearR16G16B16EPKNS_9InnerInfoE
4508:__ZN6prcoreL27StretchBilinearR16G16B16A16EPKNS_9InnerInfoE
4509:__ZN6prcoreL13inner_stretchILj1ELj1EEEvPKNS_9InnerInfoE
4510:__ZN6prcoreL13inner_stretchILj2ELj2EEEvPKNS_9InnerInfoE
4511:__ZN6prcoreL13inner_stretchILj3ELj3EEEvPKNS_9InnerInfoE
4512:__ZN6prcoreL13inner_stretchILj4ELj4EEEvPKNS_9InnerInfoE
4513:__ZN6prcoreL13inner_stretchILj6ELj6EEEvPKNS_9InnerInfoE
4514:__ZN6prcoreL13inner_stretchILj8ELj8EEEvPKNS_9InnerInfoE
4515:__ZN6prcore17BlitBilinearFloatERK14ImageReferenceRS0_
4516:__ZN5ImageD2Ev
4517:__ZN6prcoreL27StretchGenericFloatBilinearI15TexFormatRFloatEEvPKNS_9InnerInfoE
4518:__ZN6prcoreL27StretchGenericFloatBilinearI16TexFormatRGFloatEEvPKNS_9InnerInfoE
4519:__ZN6prcoreL27StretchGenericFloatBilinearI17TexFormatRGBFloatEEvPKNS_9InnerInfoE
4520:__ZN6prcoreL27StretchGenericFloatBilinearI18TexFormatRGBAFloatEEvPKNS_9InnerInfoE
4521:__ZN6prcoreL27StretchGenericFloatBilinearI14TexFormatRHalfEEvPKNS_9InnerInfoE
4522:__ZN6prcoreL27StretchGenericFloatBilinearI15TexFormatRGHalfEEvPKNS_9InnerInfoE
4523:__ZN6prcoreL27StretchGenericFloatBilinearI17TexFormatRGBAHalfEEvPKNS_9InnerInfoE
4524:__ZN6prcoreL21StretchRGB9e5BilinearEPKNS_9InnerInfoE
4525:__Z16rgb9e5_to_float36rgb9e5P10ColorRGBAf
4526:__Z16float3_to_rgb9e5RK10ColorRGBAfP6rgb9e5
4527:__ZN5ImageC2Eii14GraphicsFormat
4528:__ZN6prcoreL21RemapGenericInteger32I17TexFormatARGB888811TexFormatA8EEvPKNS_9InnerInfoE
4529:__ZN6prcoreL21RemapGenericInteger32I17TexFormatARGB888815TexFormatRGB565EEvPKNS_9InnerInfoE
4530:__ZN6prcoreL21RemapGenericInteger32I17TexFormatARGB888815TexFormatRGB888EEvPKNS_9InnerInfoE
4531:__ZN6prcoreL21RemapGenericInteger32I17TexFormatARGB888817TexFormatARGB4444EEvPKNS_9InnerInfoE
4532:__ZN6prcoreL21RemapGenericInteger32I17TexFormatARGB888815TexFormatBGR888EEvPKNS_9InnerInfoE
4533:__ZN6prcoreL21RemapGenericInteger32I17TexFormatARGB888817TexFormatRGBA4444EEvPKNS_9InnerInfoE
4534:__ZN6prcoreL21RemapGenericInteger32I17TexFormatARGB888817TexFormatBGRA8888EEvPKNS_9InnerInfoE
4535:__ZN6prcoreL22RemapFastARGB32_RGBA32EPKNS_9InnerInfoE
4536:__ZN6prcoreL21RemapGenericInteger32I17TexFormatARGB888811TexFormatR8EEvPKNS_9InnerInfoE
4537:__ZN6prcoreL21RemapGenericInteger32I17TexFormatARGB888813TexFormatRG88EEvPKNS_9InnerInfoE
4538:__ZN6prcoreL21RemapGenericInteger32I17TexFormatARGB888812TexFormatR16EEvPKNS_9InnerInfoE
4539:__ZN6prcoreL21RemapGenericInteger32I11TexFormatA817TexFormatARGB8888EEvPKNS_9InnerInfoE
4540:__ZN6prcoreL21RemapGenericInteger32I15TexFormatRGB56517TexFormatARGB8888EEvPKNS_9InnerInfoE
4541:__ZN6prcoreL21RemapGenericInteger32I15TexFormatRGB56515TexFormatRGB888EEvPKNS_9InnerInfoE
4542:__ZN6prcoreL21RemapGenericInteger32I15TexFormatRGB56517TexFormatARGB4444EEvPKNS_9InnerInfoE
4543:__ZN6prcoreL21RemapGenericInteger32I15TexFormatRGB56515TexFormatBGR888EEvPKNS_9InnerInfoE
4544:__ZN6prcoreL21RemapGenericInteger32I15TexFormatRGB56512TexFormatR16EEvPKNS_9InnerInfoE
4545:__ZN6prcoreL21RemapGenericInteger32I15TexFormatRGB88817TexFormatARGB8888EEvPKNS_9InnerInfoE
4546:__ZN6prcoreL21RemapGenericInteger32I15TexFormatRGB88815TexFormatRGB565EEvPKNS_9InnerInfoE
4547:__ZN6prcoreL21RemapGenericInteger32I15TexFormatRGB88817TexFormatARGB4444EEvPKNS_9InnerInfoE
4548:__ZN6prcoreL21RemapGenericInteger32I17TexFormatARGB444417TexFormatARGB8888EEvPKNS_9InnerInfoE
4549:__ZN6prcoreL21RemapGenericInteger32I17TexFormatARGB444415TexFormatRGB565EEvPKNS_9InnerInfoE
4550:__ZN6prcoreL21RemapGenericInteger32I17TexFormatARGB444415TexFormatRGB888EEvPKNS_9InnerInfoE
4551:__ZN6prcoreL21RemapGenericInteger32I15TexFormatBGR88817TexFormatARGB8888EEvPKNS_9InnerInfoE
4552:__ZN6prcoreL21RemapGenericInteger32I17TexFormatRGBA444417TexFormatARGB8888EEvPKNS_9InnerInfoE
4553:__ZN6prcoreL21RemapGenericInteger32I17TexFormatBGRA888817TexFormatRGBA8888EEvPKNS_9InnerInfoE
4554:__ZN6prcoreL21RemapGenericInteger32I17TexFormatRGBA888817TexFormatARGB8888EEvPKNS_9InnerInfoE
4555:__ZN6prcoreL21RemapGenericInteger32I11TexFormatR817TexFormatARGB8888EEvPKNS_9InnerInfoE
4556:__ZN6prcoreL21RemapGenericInteger32I13TexFormatRG8817TexFormatARGB8888EEvPKNS_9InnerInfoE
4557:__ZN6prcoreL21RemapGenericInteger32I12TexFormatR1617TexFormatARGB8888EEvPKNS_9InnerInfoE
4558:__ZN6prcoreL21RemapGenericInteger64I17TexFormatARGB888815TexFormatR16G16EEvPKNS_9InnerInfoE
4559:__ZN6prcoreL21RemapGenericInteger64I15TexFormatR16G1617TexFormatARGB8888EEvPKNS_9InnerInfoE
4560:__ZN6prcoreL21RemapGenericInteger64I12TexFormatR1615TexFormatR16G16EEvPKNS_9InnerInfoE
4561:__ZN6prcoreL21RemapGenericInteger64I15TexFormatR16G1612TexFormatR16EEvPKNS_9InnerInfoE
4562:__ZN6prcoreL21RemapGenericInteger64I15TexFormatR16G1615TexFormatRGB565EEvPKNS_9InnerInfoE
4563:__ZN6prcoreL21RemapGenericInteger64I15TexFormatRGB56515TexFormatR16G16EEvPKNS_9InnerInfoE
4564:__ZN6prcoreL21RemapGenericInteger64I15TexFormatR16G1617TexFormatARGB4444EEvPKNS_9InnerInfoE
4565:__ZN6prcoreL21RemapGenericInteger64I15TexFormatR16G1617TexFormatRGBA4444EEvPKNS_9InnerInfoE
4566:__ZN6prcoreL21RemapGenericInteger64I17TexFormatARGB888818TexFormatR16G16B16EEvPKNS_9InnerInfoE
4567:__ZN6prcoreL21RemapGenericInteger64I18TexFormatR16G16B1617TexFormatARGB8888EEvPKNS_9InnerInfoE
4568:__ZN6prcoreL21RemapGenericInteger64I12TexFormatR1618TexFormatR16G16B16EEvPKNS_9InnerInfoE
4569:__ZN6prcoreL21RemapGenericInteger64I18TexFormatR16G16B1612TexFormatR16EEvPKNS_9InnerInfoE
4570:__ZN6prcoreL21RemapGenericInteger64I15TexFormatR16G1618TexFormatR16G16B16EEvPKNS_9InnerInfoE
4571:__ZN6prcoreL21RemapGenericInteger64I18TexFormatR16G16B1615TexFormatR16G16EEvPKNS_9InnerInfoE
4572:__ZN6prcoreL21RemapGenericInteger64I18TexFormatR16G16B1615TexFormatRGB565EEvPKNS_9InnerInfoE
4573:__ZN6prcoreL21RemapGenericInteger64I15TexFormatRGB56518TexFormatR16G16B16EEvPKNS_9InnerInfoE
4574:__ZN6prcoreL21RemapGenericInteger64I18TexFormatR16G16B1617TexFormatARGB4444EEvPKNS_9InnerInfoE
4575:__ZN6prcoreL21RemapGenericInteger64I18TexFormatR16G16B1617TexFormatRGBA4444EEvPKNS_9InnerInfoE
4576:__ZN6prcoreL21RemapGenericInteger64I17TexFormatARGB888821TexFormatR16G16B16A16EEvPKNS_9InnerInfoE
4577:__ZN6prcoreL21RemapGenericInteger64I21TexFormatR16G16B16A1617TexFormatARGB8888EEvPKNS_9InnerInfoE
4578:__ZN6prcoreL21RemapGenericInteger64I12TexFormatR1621TexFormatR16G16B16A16EEvPKNS_9InnerInfoE
4579:__ZN6prcoreL21RemapGenericInteger64I21TexFormatR16G16B16A1612TexFormatR16EEvPKNS_9InnerInfoE
4580:__ZN6prcoreL21RemapGenericInteger64I15TexFormatR16G1621TexFormatR16G16B16A16EEvPKNS_9InnerInfoE
4581:__ZN6prcoreL21RemapGenericInteger64I21TexFormatR16G16B16A1615TexFormatR16G16EEvPKNS_9InnerInfoE
4582:__ZN6prcoreL21RemapGenericInteger64I18TexFormatR16G16B1621TexFormatR16G16B16A16EEvPKNS_9InnerInfoE
4583:__ZN6prcoreL21RemapGenericInteger64I21TexFormatR16G16B16A1618TexFormatR16G16B16EEvPKNS_9InnerInfoE
4584:__ZN6prcoreL21RemapGenericInteger64I21TexFormatR16G16B16A1615TexFormatRGB565EEvPKNS_9InnerInfoE
4585:__ZN6prcoreL21RemapGenericInteger64I15TexFormatRGB56521TexFormatR16G16B16A16EEvPKNS_9InnerInfoE
4586:__ZN6prcoreL21RemapGenericInteger64I21TexFormatR16G16B16A1617TexFormatARGB4444EEvPKNS_9InnerInfoE
4587:__ZN6prcoreL21RemapGenericInteger64I21TexFormatR16G16B16A1617TexFormatRGBA4444EEvPKNS_9InnerInfoE
4588:__ZN6prcoreL21RemapGenericInteger32I20TexFormatRGB101010XR17TexFormatARGB8888EEvPKNS_9InnerInfoE
4589:__ZN6prcoreL19RGB111110ToARGB8888EPKNS_9InnerInfoE
4590:__ZN6prcoreL20RGB111110ToARGBFloatEPKNS_9InnerInfoE
4591:__ZN6prcoreL26RemapGenericIntegerToFloatI11TexFormatR815TexFormatRFloatEEvPKNS_9InnerInfoE
4592:__ZN6prcoreL26RemapGenericIntegerToFloatI12TexFormatR1615TexFormatRFloatEEvPKNS_9InnerInfoE
4593:__ZN6prcoreL26RemapGenericIntegerToFloatI13TexFormatRG8816TexFormatRGFloatEEvPKNS_9InnerInfoE
4594:__ZN6prcoreL26RemapGenericIntegerToFloatI17TexFormatARGB888815TexFormatRFloatEEvPKNS_9InnerInfoE
4595:__ZN6prcoreL26RemapGenericIntegerToFloatI17TexFormatARGB888816TexFormatRGFloatEEvPKNS_9InnerInfoE
4596:__ZN6prcoreL26RemapGenericIntegerToFloatI17TexFormatARGB888817TexFormatRGBFloatEEvPKNS_9InnerInfoE
4597:__ZN6prcoreL26RemapGenericIntegerToFloatI17TexFormatARGB888818TexFormatRGBAFloatEEvPKNS_9InnerInfoE
4598:__ZN6prcoreL26RemapGenericIntegerToFloatI17TexFormatARGB888818TexFormatARGBFloatEEvPKNS_9InnerInfoE
4599:__ZN6prcoreL26RemapGenericIntegerToFloatI17TexFormatARGB888814TexFormatRHalfEEvPKNS_9InnerInfoE
4600:__ZN6prcoreL26RemapGenericIntegerToFloatI17TexFormatARGB888815TexFormatRGHalfEEvPKNS_9InnerInfoE
4601:__ZN6prcoreL26RemapGenericIntegerToFloatI17TexFormatARGB888817TexFormatRGBAHalfEEvPKNS_9InnerInfoE
4602:__ZN6prcoreL16ARGB8888ToRGB9e5EPKNS_9InnerInfoE
4603:__ZN6prcoreL26RemapGenericIntegerToFloatI11TexFormatA818TexFormatRGBAFloatEEvPKNS_9InnerInfoE
4604:__ZN6prcoreL26RemapGenericIntegerToFloatI15TexFormatRGB56518TexFormatRGBAFloatEEvPKNS_9InnerInfoE
4605:__ZN6prcoreL26RemapGenericIntegerToFloatI17TexFormatRGBA444418TexFormatRGBAFloatEEvPKNS_9InnerInfoE
4606:__ZN6prcoreL26RemapGenericIntegerToFloatI17TexFormatARGB444418TexFormatRGBAFloatEEvPKNS_9InnerInfoE
4607:__ZN6prcoreL26RemapGenericIntegerToFloatI15TexFormatR16G1616TexFormatRGFloatEEvPKNS_9InnerInfoE
4608:__ZN6prcoreL26RemapGenericIntegerToFloatI18TexFormatR16G16B1617TexFormatRGBFloatEEvPKNS_9InnerInfoE
4609:__ZN6prcoreL26RemapGenericIntegerToFloatI21TexFormatR16G16B16A1618TexFormatRGBAFloatEEvPKNS_9InnerInfoE
4610:__ZN6prcoreL26RemapGenericFloatToIntegerI15TexFormatRFloat11TexFormatR8EEvPKNS_9InnerInfoE
4611:__ZN6prcoreL26RemapGenericFloatToIntegerI15TexFormatRFloat12TexFormatR16EEvPKNS_9InnerInfoE
4612:__ZN6prcoreL26RemapGenericFloatToIntegerI15TexFormatRFloat17TexFormatARGB8888EEvPKNS_9InnerInfoE
4613:__ZN6prcoreL26RemapGenericFloatToIntegerI16TexFormatRGFloat13TexFormatRG88EEvPKNS_9InnerInfoE
4614:__ZN6prcoreL26RemapGenericFloatToIntegerI16TexFormatRGFloat17TexFormatARGB8888EEvPKNS_9InnerInfoE
4615:__ZN6prcoreL26RemapGenericFloatToIntegerI17TexFormatRGBFloat17TexFormatARGB8888EEvPKNS_9InnerInfoE
4616:__ZN6prcoreL26RemapGenericFloatToIntegerI18TexFormatRGBAFloat17TexFormatARGB8888EEvPKNS_9InnerInfoE
4617:__ZN6prcoreL26RemapGenericFloatToIntegerI18TexFormatRGBAFloat11TexFormatA8EEvPKNS_9InnerInfoE
4618:__ZN6prcoreL26RemapGenericFloatToIntegerI18TexFormatRGBAFloat15TexFormatRGB565EEvPKNS_9InnerInfoE
4619:__ZN6prcoreL26RemapGenericFloatToIntegerI18TexFormatRGBAFloat17TexFormatRGBA4444EEvPKNS_9InnerInfoE
4620:__ZN6prcoreL26RemapGenericFloatToIntegerI18TexFormatRGBAFloat17TexFormatARGB4444EEvPKNS_9InnerInfoE
4621:__ZN6prcoreL26RemapGenericFloatToIntegerI18TexFormatARGBFloat17TexFormatARGB8888EEvPKNS_9InnerInfoE
4622:__ZN6prcoreL26RemapGenericFloatToIntegerI14TexFormatRHalf17TexFormatARGB8888EEvPKNS_9InnerInfoE
4623:__ZN6prcoreL26RemapGenericFloatToIntegerI15TexFormatRGHalf17TexFormatARGB8888EEvPKNS_9InnerInfoE
4624:__ZN6prcoreL26RemapGenericFloatToIntegerI17TexFormatRGBAHalf17TexFormatARGB8888EEvPKNS_9InnerInfoE
4625:__ZN6prcoreL16RGB9e5ToARGB8888EPKNS_9InnerInfoE
4626:__ZN6prcoreL26RemapGenericFloatToIntegerI16TexFormatRGFloat15TexFormatR16G16EEvPKNS_9InnerInfoE
4627:__ZN6prcoreL26RemapGenericFloatToIntegerI17TexFormatRGBFloat18TexFormatR16G16B16EEvPKNS_9InnerInfoE
4628:__ZN6prcoreL26RemapGenericFloatToIntegerI18TexFormatRGBAFloat21TexFormatR16G16B16A16EEvPKNS_9InnerInfoE
4629:__ZN6prcoreL17RemapGenericFloatI15TexFormatRFloat16TexFormatRGFloatEEvPKNS_9InnerInfoE
4630:__ZN6prcoreL17RemapGenericFloatI15TexFormatRFloat17TexFormatRGBFloatEEvPKNS_9InnerInfoE
4631:__ZN6prcoreL17RemapGenericFloatI15TexFormatRFloat18TexFormatRGBAFloatEEvPKNS_9InnerInfoE
4632:__ZN6prcoreL17RemapGenericFloatI15TexFormatRFloat18TexFormatARGBFloatEEvPKNS_9InnerInfoE
4633:__ZN6prcoreL17RemapGenericFloatI15TexFormatRFloat14TexFormatRHalfEEvPKNS_9InnerInfoE
4634:__ZN6prcoreL17RemapGenericFloatI15TexFormatRFloat15TexFormatRGHalfEEvPKNS_9InnerInfoE
4635:__ZN6prcoreL17RemapGenericFloatI15TexFormatRFloat17TexFormatRGBAHalfEEvPKNS_9InnerInfoE
4636:__ZN6prcoreL17RemapGenericFloatI16TexFormatRGFloat15TexFormatRFloatEEvPKNS_9InnerInfoE
4637:__ZN6prcoreL17RemapGenericFloatI16TexFormatRGFloat17TexFormatRGBFloatEEvPKNS_9InnerInfoE
4638:__ZN6prcoreL17RemapGenericFloatI16TexFormatRGFloat18TexFormatRGBAFloatEEvPKNS_9InnerInfoE
4639:__ZN6prcoreL17RemapGenericFloatI16TexFormatRGFloat18TexFormatARGBFloatEEvPKNS_9InnerInfoE
4640:__ZN6prcoreL17RemapGenericFloatI16TexFormatRGFloat14TexFormatRHalfEEvPKNS_9InnerInfoE
4641:__ZN6prcoreL17RemapGenericFloatI16TexFormatRGFloat15TexFormatRGHalfEEvPKNS_9InnerInfoE
4642:__ZN6prcoreL17RemapGenericFloatI16TexFormatRGFloat17TexFormatRGBAHalfEEvPKNS_9InnerInfoE
4643:__ZN6prcoreL17RemapGenericFloatI17TexFormatRGBFloat15TexFormatRFloatEEvPKNS_9InnerInfoE
4644:__ZN6prcoreL17RemapGenericFloatI17TexFormatRGBFloat16TexFormatRGFloatEEvPKNS_9InnerInfoE
4645:__ZN6prcoreL17RemapGenericFloatI17TexFormatRGBFloat18TexFormatRGBAFloatEEvPKNS_9InnerInfoE
4646:__ZN6prcoreL17RemapGenericFloatI17TexFormatRGBFloat18TexFormatARGBFloatEEvPKNS_9InnerInfoE
4647:__ZN6prcoreL17RemapGenericFloatI17TexFormatRGBFloat14TexFormatRHalfEEvPKNS_9InnerInfoE
4648:__ZN6prcoreL17RemapGenericFloatI17TexFormatRGBFloat15TexFormatRGHalfEEvPKNS_9InnerInfoE
4649:__ZN6prcoreL17RemapGenericFloatI17TexFormatRGBFloat17TexFormatRGBAHalfEEvPKNS_9InnerInfoE
4650:__ZN6prcoreL17RemapGenericFloatI18TexFormatRGBAFloat15TexFormatRFloatEEvPKNS_9InnerInfoE
4651:__ZN6prcoreL17RemapGenericFloatI18TexFormatRGBAFloat16TexFormatRGFloatEEvPKNS_9InnerInfoE
4652:__ZN6prcoreL17RemapGenericFloatI18TexFormatRGBAFloat17TexFormatRGBFloatEEvPKNS_9InnerInfoE
4653:__ZN6prcoreL17RemapGenericFloatI18TexFormatRGBAFloat18TexFormatARGBFloatEEvPKNS_9InnerInfoE
4654:__ZN6prcoreL17RemapGenericFloatI18TexFormatRGBAFloat14TexFormatRHalfEEvPKNS_9InnerInfoE
4655:__ZN6prcoreL17RemapGenericFloatI18TexFormatRGBAFloat15TexFormatRGHalfEEvPKNS_9InnerInfoE
4656:__ZN6prcoreL17RemapGenericFloatI18TexFormatRGBAFloat17TexFormatRGBAHalfEEvPKNS_9InnerInfoE
4657:__ZN6prcoreL17RemapGenericFloatI18TexFormatARGBFloat15TexFormatRFloatEEvPKNS_9InnerInfoE
4658:__ZN6prcoreL17RemapGenericFloatI18TexFormatARGBFloat16TexFormatRGFloatEEvPKNS_9InnerInfoE
4659:__ZN6prcoreL17RemapGenericFloatI18TexFormatARGBFloat17TexFormatRGBFloatEEvPKNS_9InnerInfoE
4660:__ZN6prcoreL17RemapGenericFloatI18TexFormatARGBFloat18TexFormatRGBAFloatEEvPKNS_9InnerInfoE
4661:__ZN6prcoreL17RemapGenericFloatI18TexFormatARGBFloat14TexFormatRHalfEEvPKNS_9InnerInfoE
4662:__ZN6prcoreL17RemapGenericFloatI18TexFormatARGBFloat15TexFormatRGHalfEEvPKNS_9InnerInfoE
4663:__ZN6prcoreL17RemapGenericFloatI18TexFormatARGBFloat17TexFormatRGBAHalfEEvPKNS_9InnerInfoE
4664:__ZN6prcoreL17RemapGenericFloatI14TexFormatRHalf15TexFormatRFloatEEvPKNS_9InnerInfoE
4665:__ZN6prcoreL17RemapGenericFloatI14TexFormatRHalf16TexFormatRGFloatEEvPKNS_9InnerInfoE
4666:__ZN6prcoreL17RemapGenericFloatI14TexFormatRHalf17TexFormatRGBFloatEEvPKNS_9InnerInfoE
4667:__ZN6prcoreL17RemapGenericFloatI14TexFormatRHalf18TexFormatRGBAFloatEEvPKNS_9InnerInfoE
4668:__ZN6prcoreL17RemapGenericFloatI14TexFormatRHalf18TexFormatARGBFloatEEvPKNS_9InnerInfoE
4669:__ZN6prcoreL17RemapGenericFloatI14TexFormatRHalf15TexFormatRGHalfEEvPKNS_9InnerInfoE
4670:__ZN6prcoreL17RemapGenericFloatI14TexFormatRHalf17TexFormatRGBAHalfEEvPKNS_9InnerInfoE
4671:__ZN6prcoreL17RemapGenericFloatI15TexFormatRGHalf15TexFormatRFloatEEvPKNS_9InnerInfoE
4672:__ZN6prcoreL17RemapGenericFloatI15TexFormatRGHalf16TexFormatRGFloatEEvPKNS_9InnerInfoE
4673:__ZN6prcoreL17RemapGenericFloatI15TexFormatRGHalf17TexFormatRGBFloatEEvPKNS_9InnerInfoE
4674:__ZN6prcoreL17RemapGenericFloatI15TexFormatRGHalf18TexFormatRGBAFloatEEvPKNS_9InnerInfoE
4675:__ZN6prcoreL17RemapGenericFloatI15TexFormatRGHalf18TexFormatARGBFloatEEvPKNS_9InnerInfoE
4676:__ZN6prcoreL17RemapGenericFloatI15TexFormatRGHalf14TexFormatRHalfEEvPKNS_9InnerInfoE
4677:__ZN6prcoreL17RemapGenericFloatI15TexFormatRGHalf17TexFormatRGBAHalfEEvPKNS_9InnerInfoE
4678:__ZN6prcoreL17RemapGenericFloatI17TexFormatRGBAHalf15TexFormatRFloatEEvPKNS_9InnerInfoE
4679:__ZN6prcoreL17RemapGenericFloatI17TexFormatRGBAHalf16TexFormatRGFloatEEvPKNS_9InnerInfoE
4680:__ZN6prcoreL17RemapGenericFloatI17TexFormatRGBAHalf17TexFormatRGBFloatEEvPKNS_9InnerInfoE
4681:__ZN6prcoreL17RemapGenericFloatI17TexFormatRGBAHalf18TexFormatRGBAFloatEEvPKNS_9InnerInfoE
4682:__ZN6prcoreL17RemapGenericFloatI17TexFormatRGBAHalf18TexFormatARGBFloatEEvPKNS_9InnerInfoE
4683:__ZN6prcoreL17RemapGenericFloatI17TexFormatRGBAHalf14TexFormatRHalfEEvPKNS_9InnerInfoE
4684:__ZN6prcoreL17RemapGenericFloatI17TexFormatRGBAHalf15TexFormatRGHalfEEvPKNS_9InnerInfoE
4685:__ZN6prcoreL17RGBAFloatToRGB9e5EPKNS_9InnerInfoE
4686:__ZN6prcoreL17RGB9e5ToRGBAFloatEPKNS_9InnerInfoE
4687:__ZN14ImageReferenceC2Eiii14GraphicsFormatPv
4688:__ZN22FrameTimingManagerGLES18RenderTargetSwitchEv
4689:__ZN18GfxFramebufferGLES8ActivateERK20GfxRenderTargetSetup
4690:__ZN18GfxFramebufferGLES7PrepareEv
4691:__ZN7ApiGLES6EnableEN2gl10EnabledCapE
4692:__ZN7ApiGLES7DisableEN2gl10EnabledCapE
4693:__ZN18GfxFramebufferGLES11PrepareImplENS_27ClearToAvoidRestoreBehaviorEj
4694:__ZN18GfxFramebufferGLES22MakeCurrentFramebufferENS_7BuiltinE
4695:__ZN13GfxDeviceGLES21ProcessPendingMipGensEv
4696:__ZN13GfxDeviceGLES16AddPendingMipGenEP17RenderSurfaceBase
4697:__ZN18GfxFramebufferGLES21InvalidateAttachmentsEPKbbbNS_28InvalidateAttachmentsPurposeE
4698:__ZN4gles23ClearCurrentFramebufferEP7ApiGLESbbbRK10ColorRGBAffii
4699:__ZN4gles21InitializeDiscardQuadERNS_11DiscardQuadE
4700:__ZN4gles17RenderDiscardQuadERNS_11DiscardQuadER9GfxDevice
4701:__ZN4gles14UseGLSLProgramER15DeviceStateGLESjbij
4702:__ZN7ApiGLES11BindProgramEjb
4703:__ZN7ApiGLES16SetPatchVerticesEi
4704:__ZN7ApiGLES16EnableClipPlanesEj
4705:__ZN7ApiGLES12CreateShaderEN2gl11ShaderStageEPKc
4706:__ZN7ApiGLES21CreateGraphicsProgramEjjjjj
4707:__ZN7ApiGLES12DeleteShaderERj
4708:__ZN4gles16CreateDepthStateER15DeviceStateGLES13GfxDepthState
4709:__ZN12_GLOBAL__N_113SetBlendStateER7ApiGLESR15DeviceStateGLESPK20DeviceBlendStateGLESi
4710:__ZN4gles15UpdateDepthTestER15DeviceStateGLESPK20DeviceDepthStateGLESb
4711:__ZN7ApiGLES5ClearEjRK10ColorRGBAfbfi
4712:_glColorMaski
4713:_glBlendFuncSeparatei
4714:_glBlendEquationSeparatei
4715:_glBlendEquationi
4716:__ZN7ApiGLES14GenerateMipmapEjj
4717:__ZN7ApiGLES15BindFramebufferEN2gl17FramebufferTargetENS0_6HandleILNS0_10ObjectTypeE9EEE
4718:__ZN7ApiGLES26BindFramebufferDrawBuffersEN2gl6HandleILNS0_10ObjectTypeE9EEEiPKj
4719:__ZN18GfxFramebufferGLES22EnsureDefaultFBOInitedEv
4720:__ZN18GfxFramebufferGLES18GetFramebufferNameERK20GfxRenderTargetSetup
4721:__ZN7ApiGLES17CreateFramebufferEv
4722:__ZNK21GLESRenderTargetSetupltERKS_
4723:__ZN12_GLOBAL__N_119AttachToFramebufferER7ApiGLESRK20GfxRenderTargetSetupP17RenderSurfaceGLESjP11GLESTexturejb
4724:__ZNK7ApiGLES13GetDebugLabelEN2gl10ObjectTypeEjiPiPc
4725:__ZNK7ApiGLES10DebugLabelEN2gl10ObjectTypeEjPKc
4726:__ZNSt3__26__treeINS_12__value_typeI21GLESRenderTargetSetupN2gl6HandleILNS3_10ObjectTypeE9EEEEENS_19__map_value_compareIS2_S7_NS_4lessIS2_EELb1EEENS_9allocatorIS7_EEE25__emplace_unique_key_argsIS2_JNS_4pairIS2_S6_EEEEENSG_INS_15__tree_iteratorIS7_PNS_11__tree_nodeIS7_PvEElEEbEERKT_DpOT0_
4727:_glFramebufferTexture
4728:_glFramebufferTexture2DMultisampleEXT
4729:__ZNSt3__26__treeINS_12__value_typeI21GLESRenderTargetSetupN2gl6HandleILNS3_10ObjectTypeE9EEEEENS_19__map_value_compareIS2_S7_NS_4lessIS2_EELb1EEENS_9allocatorIS7_EEE25__emplace_unique_key_argsIS2_JRKNS_21piecewise_construct_tENS_5tupleIJOS2_EEENSJ_IJEEEEEENS_4pairINS_15__tree_iteratorIS7_PNS_11__tree_nodeIS7_PvEElEEbEERKT_DpOT0_
4730:__ZN24BuiltinShaderParamValuesC2Ev
4731:__ZN18AsyncUploadManager27AsyncResourceUploadBlockingER9GfxDeviceR10AsyncFenceRK26AsyncUploadManagerSettings
4732:__ZN18AsyncUploadManager19AsyncResourceUploadER9GfxDeviceiRK26AsyncUploadManagerSettings
4733:__ZN18AsyncUploadManager29ScheduleAsyncCommandsInternalEv
4734:__ZN18AsyncUploadManager17ScheduleAsyncReadEP10AtomicNode
4735:__ZN18AsyncUploadManager16AsyncReadSuccessER12AsyncCommand
4736:__ZN14QueueAllocator25ReleasePendingFreedBlocksEv
4737:__Z20AsyncUploadQueueFreeP14QueueAllocator
4738:__ZN18AsyncUploadManager20QueueUploadJobStaticEP10AtomicNode
4739:__ZN18AsyncUploadManager20GetUnusedReadCommandEv
4740:__ZN14QueueAllocator5AllocEj
4741:__ZN18AsyncUploadManager23AsyncReadCallbackStaticER16AsyncReadCommandNS0_6StatusE
4742:__ZN18AsyncUploadManager17AsyncReadCallbackER16AsyncReadCommandNS0_6StatusE
4743:__ZN14QueueAllocatorC2Ej10MemLabelId
4744:__ZN18GfxFramebufferGLES31TryInvalidateDepthStencilBufferEbb
4745:__ZN7ApiGLES20DrawElementsIndirectE16GfxPrimitiveTypejjj
4746:__ZN7ApiGLES18DrawArraysIndirectE16GfxPrimitiveTypejj
4747:__ZN13GfxDeviceGLES16DoMemoryBarriersEv
4748:__ZN7ApiGLES16DispatchIndirectEjj
4749:__ZL18ProgramUniform1uivPK7ApiGLESjiihPKv
4750:__ZL18ProgramUniform2uivPK7ApiGLESjiihPKv
4751:__ZL18ProgramUniform3uivPK7ApiGLESjiihPKv
4752:__ZL18ProgramUniform4uivPK7ApiGLESjiihPKv
4753:_glProgramUniform4uiv
4754:_glProgramUniform3uiv
4755:_glProgramUniform2uiv
4756:_glProgramUniform1uiv
4757:__ZL17ProgramUniform1ivPK7ApiGLESjiihPKv
4758:__ZL17ProgramUniform2ivPK7ApiGLESjiihPKv
4759:__ZL17ProgramUniform3ivPK7ApiGLESjiihPKv
4760:__ZL17ProgramUniform4ivPK7ApiGLESjiihPKv
4761:_glProgramUniform4iv
4762:_glProgramUniform3iv
4763:_glProgramUniform2iv
4764:_glProgramUniform1iv
4765:__ZL17ProgramUniform1fvPK7ApiGLESjiihPKv
4766:__ZL17ProgramUniform2fvPK7ApiGLESjiihPKv
4767:__ZL17ProgramUniform3fvPK7ApiGLESjiihPKv
4768:__ZL17ProgramUniform4fvPK7ApiGLESjiihPKv
4769:__ZL23ProgramUniformMatrix2fvPK7ApiGLESjiihPKv
4770:__ZL25ProgramUniformMatrix2x3fvPK7ApiGLESjiihPKv
4771:__ZL25ProgramUniformMatrix2x4fvPK7ApiGLESjiihPKv
4772:__ZL25ProgramUniformMatrix3x2fvPK7ApiGLESjiihPKv
4773:__ZL23ProgramUniformMatrix3fvPK7ApiGLESjiihPKv
4774:__ZL25ProgramUniformMatrix3x4fvPK7ApiGLESjiihPKv
4775:__ZL25ProgramUniformMatrix4x2fvPK7ApiGLESjiihPKv
4776:__ZL25ProgramUniformMatrix4x3fvPK7ApiGLESjiihPKv
4777:__ZL23ProgramUniformMatrix4fvPK7ApiGLESjiihPKv
4778:_glProgramUniformMatrix4fv
4779:_glProgramUniformMatrix4x3fv
4780:_glProgramUniformMatrix4x2fv
4781:_glProgramUniformMatrix3x4fv
4782:_glProgramUniformMatrix3fv
4783:_glProgramUniformMatrix3x2fv
4784:_glProgramUniformMatrix2x4fv
4785:_glProgramUniformMatrix2x3fv
4786:_glProgramUniformMatrix2fv
4787:_glProgramUniform4fv
4788:_glProgramUniform3fv
4789:_glProgramUniform2fv
4790:_glProgramUniform1fv
4791:__ZN4core8hash_mapI15ComputeBufferIDP14DataBufferGLESNS_4hashIS1_EENSt3__28equal_toIS1_EEE15insert_internalIRKS1_S3_EENS_4pairINS_8hash_setINSD_ISB_S3_Lb0EEENS_9hash_pairIS5_SB_S3_EENS_10equal_pairIS8_SB_S3_EEE13node_iteratorISF_EEbLb0EEEOT_OT0_
4792:__Z18FillParamsBaseGLESjR20GpuProgramParametersP16PropertyNamesSetP20ActiveUniformIndicesi
4793:__ZL17UpdateUBOBindingsjiPi
4794:__ZN13dynamic_arrayIN20GpuProgramParameters14ConstantBufferELm0EE18resize_initializedEm12ResizePolicy
4795:_glGetProgramInterfaceiv
4796:_glGetProgramResourceiv
4797:__ZN4glsl20IsStructArrayUniformEPKcRN4core12basic_stringIcNS2_20StringStorageDefaultIcEEEES7_RiS7_
4798:__ZN13dynamic_arrayIN20GpuProgramParameters15StructParameterELm0EE4growEv
4799:__ZN4glsl22IsShaderParameterArrayEPKciiPb
4800:__ZN20GpuProgramParameters14AddVectorParamEPKcii15ShaderParamTypeiiiP16PropertyNamesSet
4801:__ZN20GpuProgramParameters23AddMatrixParamWithFlagsEPKcii15ShaderParamTypeiiiiNS_14ValueParameter5FlagsEP16PropertyNamesSet
4802:__ZN20GpuProgramParameters14AddBufferParamEPKciiP16PropertyNamesSetii
4803:__ZN20GpuProgramParameters15AddTextureParamEPKciib16TextureDimensionP16PropertyNamesSet
4804:_glGetProgramResourceName
4805:__ZN13dynamic_arrayIN20GpuProgramParameters15BufferParameterELm0EE4growEv
4806:__ZN20GpuProgramParameters36UpdatePrepareValuesMaximumBufferSizeEv
4807:__ZNSt3__26__treeINS_12__value_typeIiNS_3mapIiiNS_4lessIiEE13stl_allocatorINS_4pairIKiiEEL18MemLabelIdentifier1ELi16EEEEEENS_19__map_value_compareIiSC_S4_Lb1EEES5_ISC_LS9_1ELi16EEE7destroyEPNS_11__tree_nodeISC_PvEE
4808:__ZNSt3__26__treeINS_12__value_typeIiiEENS_19__map_value_compareIiS2_NS_4lessIiEELb1EEE13stl_allocatorIS2_L18MemLabelIdentifier1ELi16EEE7destroyEPNS_11__tree_nodeIS2_PvEE
4809:__ZNSt3__26__sortIR25ValueParameterArraySorterPN20GpuProgramParameters14ValueParameterEEEvT0_S6_T_
4810:__ZNSt3__27__sort3IR25ValueParameterArraySorterPN20GpuProgramParameters14ValueParameterEEEjT0_S6_S6_T_
4811:__ZNSt3__27__sort4IR25ValueParameterArraySorterPN20GpuProgramParameters14ValueParameterEEEjT0_S6_S6_S6_T_
4812:__ZNSt3__27__sort5IR25ValueParameterArraySorterPN20GpuProgramParameters14ValueParameterEEEjT0_S6_S6_S6_S6_T_
4813:__ZNSt3__218__insertion_sort_3IR25ValueParameterArraySorterPN20GpuProgramParameters14ValueParameterEEEvT0_S6_T_
4814:__ZNSt3__227__insertion_sort_incompleteIR25ValueParameterArraySorterPN20GpuProgramParameters14ValueParameterEEEbT0_S6_T_
4815:__Z27IsShaderInstanceMatrixParamPKcPi
4816:__ZN7ApiGLES13DeleteProgramERj
4817:__ZN7ApiGLES11CheckShaderERjbi
4818:__ZN7ApiGLES20CreateComputeProgramEj
4819:__ZN7ApiGLES12CheckProgramERj
4820:__ZN14DataBufferGLES3MapEmmj
4821:__ZN14DataBufferGLES5UnmapEv
4822:__ZN7ApiGLES11UnmapBufferEjN2gl12BufferTargetE
4823:__ZN7ApiGLES9MapBufferEjN2gl12BufferTargetEllj
4824:__Z19PluginsRenderMarkeri
4825:__ZN7ApiGLES12TextureImageEjji14GraphicsFormatiiiiiPKv
4826:__ZN18GlslGpuProgramGLES17SetGpuProgramNameEPKc
4827:__ZN14GfxDeviceStats5FlushEv
4828:__ZN9profiling15ProfilerManager25SendBeginFrameToRecordersEyb
4829:__ZN9profiling16ProfilerRecorder8NewFrameEy
4830:__Z19GetTimeSinceStartupv
4831:__Z22profiler_flush_counterPv
4832:__ZN14GfxDeviceStats10BeginFrameEv
4833:__ZN14GfxDeviceStats5ResetEv
4834:__ZN14GfxContextGLES11MakeCurrentER7ApiGLESN2gl13ContextHandleE
4835:__ZN4gles10InvalidateERK14GfxContextGLESR15DeviceStateGLES
4836:__ZN18GfxFramebufferGLES20ActiveContextChangedEPP17RenderSurfaceBaseS2_
4837:__ZN18GfxFramebufferGLES23SetupDefaultFramebufferEPP17RenderSurfaceBaseS2_N2gl6HandleILNS3_10ObjectTypeE9EEE
4838:__ZN18GfxFramebufferGLES32ProcessInvalidatedRenderSurfacesEv
4839:__ZN18GfxFramebufferGLES25CleanupFBOMapForTextureIDERK9TextureID
4840:__ZN18GfxFramebufferGLES20CleanupFBOMapForRBIDERKj
4841:__ZN7ApiGLES17DeleteFramebufferERN2gl6HandleILNS0_10ObjectTypeE9EEES3_
4842:__ZNSt3__26__treeINS_12__value_typeIN2gl13ContextHandleEN14GfxContextGLES8InstanceEEENS_19__map_value_compareIS3_S6_NS_4lessIS3_EELb1EEENS_9allocatorIS6_EEE21__emplace_unique_implIJRKNS_21piecewise_construct_tENS_5tupleIJRS3_EEENSI_IJR7ApiGLESEEEEEENS_4pairINS_15__tree_iteratorIS6_PNS_11__tree_nodeIS6_PvEElEEbEEDpOT_
4843:__ZN14GfxContextGLES8InstanceC2ER7ApiGLES
4844:__ZN7ApiGLES17DeleteVertexArrayERN2gl6HandleILNS0_10ObjectTypeE3EEE
4845:__ZNSt3__26__treeINS_12__value_typeI21GLESRenderTargetSetupN2gl6HandleILNS3_10ObjectTypeE9EEEEENS_19__map_value_compareIS2_S7_NS_4lessIS2_EELb1EEENS_9allocatorIS7_EEE7destroyEPNS_11__tree_nodeIS7_PvEE
4846:__Z22MultiplyMatrices4x4REFPK10Matrix4x4fS1_PS_
4847:__ZN18GlslGpuProgramGLES4BindEjRK20GpuProgramParametersj
4848:__ZN18GlslGpuProgramGLES13SwitchProgramEj
4849:__ZNK16UniformCacheGLES6SubmitEjRK13dynamic_arrayIN20GpuProgramParameters14ValueParameterELm0EERKS0_IiLm0EE
4850:__ZN18GlslGpuProgramGLES18CompileProgramImplERjRKN4core12basic_stringIcNS1_20StringStorageDefaultIcEEEES7_S7_S7_S7_R17ShaderChannelMaskijPiSA_
4851:__Z20FindUniformLocationsjjRK20ActiveUniformIndicesR16UniformLocationsi
4852:__ZL18GetUniformLocationjjiPcmS_miR5CbKey
4853:__ZN18GlslGpuProgramGLES25LoadFromBinaryShaderCacheERjRKN4core12basic_stringIcNS1_20StringStorageDefaultIcEEEER17ShaderChannelMaskPKcPiSC_
4854:__ZL39PatchShaderSourceForAdrenoES3WorkaroundRKN4core12basic_stringIcNS_20StringStorageDefaultIcEEEEPS3_
4855:__ZN13string_traitsIA40_cE8get_sizeERA40_Kc
4856:__ZN13string_traitsIA42_cE8get_sizeERA42_Kc
4857:__ZL18PatchShaderVersionRN4core12basic_stringIcNS_20StringStorageDefaultIcEEEE
4858:__ZL48PatchShaderSourceTransposeRedefinitionWorkaroundRKN4core12basic_stringIcNS_20StringStorageDefaultIcEEEEPS3_
4859:__ZL21CompileFragmentShaderRKN4core12basic_stringIcNS_20StringStorageDefaultIcEEEEbb
4860:__ZL31CompileGeometryHullDomainShaderRKN4core12basic_stringIcNS_20StringStorageDefaultIcEEEEN2gl11ShaderStageE
4861:__ZL27BindVertexProgramAttributesRKN4core12basic_stringIcNS_20StringStorageDefaultIcEEEEjR17ShaderChannelMask
4862:__ZN18GlslGpuProgramGLES24StoreInBinaryShaderCacheEjPKcii
4863:__ZN17AutoDeleteShadersD2Ev
4864:__ZN13string_traitsIA34_cE8get_sizeERA34_Kc
4865:__ZL31SplitSourceIntoHeaderAndProgramPKcPN4core12basic_stringIcNS1_20StringStorageDefaultIcEEEES6_
4866:__ZN18GfxFramebufferGLES21GrabIntoRenderTextureEP17RenderSurfaceGLESiiii
4867:__ZN12_GLOBAL__N_115NeedMSAAResolveER18GfxFramebufferGLESR7ApiGLESP17RenderSurfaceGLESS5_
4868:__ZN13GfxDeviceGLES22MemoryBarrierImmediateEyN2gl17MemoryBarrierTypeE
4869:__ZN18GfxFramebufferGLES19ReadbackResolveMSAAEP17RenderSurfaceGLESS1_
4870:__ZN12_GLOBAL__N_127PrepareReadback_ResolveMSAAER18GfxFramebufferGLESR7ApiGLESP17RenderSurfaceGLESS5_
4871:__ZN4gles25InitializeBlitFramebufferERNS_23BlitFramebufferDrawQuadENS_35BlitFramebufferColorSpaceConversionE
4872:__ZN4gles15BlitFramebufferERNS_23BlitFramebufferDrawQuadER9GfxDeviceii9TextureIDiiiiiiii
4873:__ZN7ApiGLES15BlitFramebufferEN2gl6HandleILNS0_10ObjectTypeE9EEENS0_15FramebufferReadES3_S3_iiiiiiiiNS0_15FramebufferTypeEb
4874:__ZN18GfxFramebufferGLES18ReleaseFramebufferEP17RenderSurfaceBaseP14GfxContextGLES
4875:__ZN18GfxFramebufferGLES43AddRenderSurfaceToDeferredFBOInvalidateListEPK17RenderSurfaceGLES
4876:__ZN13GfxDeviceGLES19CancelPendingMipGenEP17RenderSurfaceBase
4877:__ZN4gles20DestroyRenderSurfaceEP7ApiGLESP17RenderSurfaceGLES
4878:__ZN7ApiGLES18DeleteRenderbufferERj
4879:__ZL19BlitFramebufferImplRN4gles23BlitFramebufferDrawQuadER9GfxDevice9TextureIDRK8Vector4f
4880:__ZN4gles24CreateColorRenderSurfaceEP7ApiGLESP17RenderSurfaceGLES14GraphicsFormat
4881:__ZN4gles20EnsureTextureCreatedEP7ApiGLESP17RenderSurfaceGLES
4882:__ZN4gles21InitRenderSurfaceGLESEP7ApiGLESR17RenderSurfaceGLES17TextureColorSpace
4883:__ZN7ApiGLES13DeleteTextureERj
4884:__Z22CalculateMipMapCount3Diii
4885:__ZN7ApiGLES13CreateTextureEjj14GraphicsFormatiiiiiRbN2gl14ASTCDecodeModeE
4886:__ZN7ApiGLES14TextureSamplerERK11GLESTexturejRK24GfxTextureSamplingParams17TextureColorSpace
4887:__ZN7ApiGLES18CreateRenderbufferEi14GraphicsFormatii
4888:__Z21ComputeMipchainLevelsiii14GraphicsFormat
4889:__Z17ComputeMipmapSizeiii14GraphicsFormat
4890:__ZN7ApiGLES15BlitFramebufferEN2gl6HandleILNS0_10ObjectTypeE9EEENS0_15FramebufferReadES3_iiNS0_15FramebufferTypeEb
4891:__ZN18GfxFramebufferGLES13ReadbackImageER14ImageReferenceiiiiii
4892:__Z12IsHalfFormat14GraphicsFormat
4893:__Z13IsFloatFormat14GraphicsFormat
4894:__ZN13DrawImmediate11FlushBufferEv
4895:__ZN13DrawImmediate5BeginE16GfxPrimitiveType16VertexInputMasksNS_9DrawFlagsE
4896:__ZN13DrawImmediate8TexCoordEifff
4897:__ZN13DrawImmediate11TexCoordAllEfff
4898:__ZN13DrawImmediate6VertexEfff
4899:__ZN11ContextGLES7ReleaseEv
4900:__ZN11ContextGLES22DeleteIntermediateFBOsEv
4901:__ZN15BlitFramebufferD2Ev
4902:__ZN7ApiGLES12DeleteBufferERj
4903:__ZN7ApiGLES13DeleteSamplerERj
4904:__ZN11ContextGLES7AcquireEv
4905:__ZN17BufferManagerGLES13InvalidateAllEv
4906:__ZN9GfxDevice21CommonReloadResourcesEj
4907:__ZN14GfxContextGLES10InvalidateER7ApiGLES
4908:__ZN18GfxFramebufferGLES32UpdateDefaultFramebufferViewportEv
4909:__ZN18GfxFramebufferGLES10InvalidateEv
4910:__ZN7ApiGLES15BindVertexArrayEN2gl6HandleILNS0_10ObjectTypeE3EEE
4911:__ZN7Texture9ReloadAllEbbbb
4912:__ZN13RenderTexture10ReleaseAllEb
4913:__ZN13RenderTexture21MakeRenderTargetSetupEiP12ObjectHandleI17RenderSurface_TagP17RenderSurfaceBaseES4_i11CubemapFaceiNS_14SetActiveFlagsE
4914:__ZN13RenderTexture9SetActiveERK20GfxRenderTargetSetupPPS_NS_14SetActiveFlagsE
4915:__ZNK13RenderTexture14GetColorFormatEv
4916:__ZN13RenderTexture7ReleaseEv
4917:__ZN16RenderTextureMap5QueryEPK17RenderSurfaceBase
4918:__ZN13RenderTexture15DestroySurfacesEv
4919:__ZN16RenderTextureMap6RemoveEPK17RenderSurfaceBase
4920:__ZN6Camera24OnRenderSurfaceDestroyedE12ObjectHandleI17RenderSurface_TagP17RenderSurfaceBaseEP13RenderTexture
4921:__ZNK12GraphicsCaps19GetCompatibleFormatE14GraphicsFormat11FormatUsage
4922:__Z15GetFormatString14GraphicsFormat
4923:__ZN4core13StringBuilder6appendEi
4924:__Z11IntToStringi
4925:__ZN21ScriptingGraphicsCaps17IsFormatSupportedE14GraphicsFormat11FormatUsage
4926:__ZN21ScalableBufferManager11GetInstanceEv
4927:__Z14RectfToRectIntRK5RectTIfE
4928:__ZNK6Camera25GetNormalizedViewportRectEP13RenderTextureb
4929:__ZNK6Camera13GetCameraRectEbbi
4930:__ZNK6Camera16GetStereoEnabledEv
4931:__ZL19GetCameraTargetRectRK6Camerabbbi
4932:__ZNK13RenderTexture14GetScaledWidthEv
4933:__ZNK13RenderTexture15GetScaledHeightEv
4934:__ZN24StaticInitializeInternal13ConstructTypeI21ScalableBufferManagerLb0EEEPvS2_10MemLabelId
4935:__ZN14GraphicsHelper18ValidateMemorylessER20GfxRenderTargetSetup
4936:__Z9GetFormatRK7Texture
4937:__Z16ReloadAllSpritesv
4938:__ZNSt3__26__treeINS_12__value_typeImP14DataBufferGLESEENS_19__map_value_compareImS4_NS_4lessImEELb1EEENS_9allocatorIS4_EEE7destroyEPNS_11__tree_nodeIS4_PvEE
4939:__ZN22FrameTimingManagerGLES12FramePresentEv
4940:__ZN11ContextGLES7PresentEv
4941:__ZN22FrameTimingManagerGLES8FrameEndEv
4942:__ZN13RenderTexture9SetActiveEPS_i11CubemapFaceiNS_14SetActiveFlagsE
4943:__ZN15BlitFramebuffer20EnableSrgbConversionEb
4944:__ZN15BlitFramebuffer11BlitTextureE9TextureID
4945:__ZN13RenderTexture21MakeRenderTargetSetupEPS_i11CubemapFaceiNS_14SetActiveFlagsE
4946:__ZN13RenderTexture6CreateERK12ObjectHandleI17RenderSurface_TagP17RenderSurfaceBaseES6_NS_11CreateFlagsE
4947:__ZN13RenderTexture25AdjustDescForGraphicsCapsER17RenderTextureDescR9GfxDeviceRK12GraphicsCapsPS_
4948:__ZN13RenderTexture41GetSupportedMSAASampleCountAndColorFormatERK17RenderTextureDescPKS_RiR14GraphicsFormat
4949:__ZN9GfxDevice18AliasRenderSurfaceE9TextureIDP17RenderSurfaceBase
4950:__ZN16RenderTextureMap6UpdateEPK17RenderSurfaceBaseP13RenderTexture
4951:__ZN21ScalableBufferManager21RegisterRenderSurfaceEP17RenderSurfaceBase
4952:__Z12GetMSAALeveli
4953:__Z17GetGraphicsFormat17DepthBufferFormat
4954:__ZNK12GraphicsCaps24IsStencilFormatSupportedE14GraphicsFormat
4955:__ZN17BufferManagerGLES12AdvanceFrameEv
4956:__ZN17BufferManagerGLES24UpdateLiveSetFromPendingEv
4957:__ZN17BufferManagerGLES16PruneFreeBuffersEv
4958:__ZN18GfxFramebufferGLES48ActivateDefaultFramebufferWithLoadActionDontCareEv
4959:__ZN22FrameTimingManagerGLES13FrameStartGPUEv
4960:__Z27UploadSparseTextureTileGLES9TextureIDiiiPKhii
4961:__Z30TextureIdMapGLES_QueryOrCreateP7ApiGLESj9TextureID
4962:__Z19SwizzlePixelsToRGBAPKh14GraphicsFormatPhiii
4963:__Z23CreateSparseTextureGLES9TextureIDii14GraphicsFormati
4964:__ZN7ApiGLES19CreateSparseTextureEjj14GraphicsFormatiiiiRiS1_S1_
4965:__ZL25CheckCopyTextureArgumentsRK7ApiGLESP11GLESTextureS3_
4966:__ZN7ApiGLES16CopyTextureImageEjjiiiiijjiiiiiiiiii
4967:__ZN4gles13UploadTextureEP7ApiGLESR11GLESTexture14GraphicsFormatPKvmiiii18TextureUploadFlags16TextureUsageMode
4968:__ZNK12GraphicsCaps16FindUploadFormatE14GraphicsFormat11FormatUsageb
4969:__ZN7ApiGLES14TextureSwizzleEjj13FormatSwizzleS0_S0_S0_
4970:__Z37PrintWarningAboutDecompressingTexture14GraphicsFormat
4971:__ZN12_GLOBAL__N_112UploadImagesEP7ApiGLESjji14GraphicsFormatPKhmS2_iiii16TextureUsageModePh
4972:__Z24CalculateImageMipMapSizeii13TextureFormat
4973:__Z18CalculateImageSizeii13TextureFormat
4974:__Z21CalculateMipMapOffsetii13TextureFormati
4975:__Z23DeleteSparseTextureGLES9TextureID
4976:__ZN4gles27InvalidateTexUnitForTextureER15DeviceStateGLESj
4977:__ZN12TextureIdMap18SwapNativeTexturesE9TextureIDS0_
4978:__ZN7ApiGLES15OnDeleteTextureEj
4979:__ZN7ApiGLES16GetTextureTargetE16TextureDimensionj
4980:__ZN13HandleManager4FreeEi
4981:__ZN13HandleManager8AllocateEv
4982:__Z22TextureIdMapGLES_Alias9TextureIDS_
4983:__ZN4gles24CreateDepthRenderSurfaceEP7ApiGLESP17RenderSurfaceGLES17DepthBufferFormat
4984:__ZN18GfxFramebufferGLES30SetBackBufferColorDepthSurfaceEP17RenderSurfaceBaseS1_
4985:__ZN9GfxDevice30SetBackBufferColorDepthSurfaceEP17RenderSurfaceBaseS1_
4986:__ZN18GfxFramebufferGLES15DiscardContentsER12ObjectHandleI17RenderSurface_TagP17RenderSurfaceBaseE
4987:__ZN18GfxFramebufferGLES30ReadbackDepthIntoRenderTextureEP17RenderSurfaceGLES
4988:__ZN21ScalableBufferManager23UnregisterRenderSurfaceEP17RenderSurfaceBaseb
4989:__ZL23CreateRenderSurfaceBaseR9GfxDeviceb9TextureID16TextureDimension14GraphicsFormatjjjji18SurfaceCreateFlags
4990:__ZN13ComputeShader13SetValueParamERKN9ShaderLab16FastPropertyNameEiPKv
4991:__ZN13ComputeShader14SetBufferParamEjRKN9ShaderLab16FastPropertyNameE15ComputeBufferID
4992:__ZN13ComputeShader21DispatchComputeShaderEjiiiP17ShaderPassContext
4993:__ZN13ComputeShader14BeforeDispatchEjiiiP17ShaderPassContext
4994:__ZN13ComputeShader16GetKernelVariantEjP17ShaderPassContext
4995:__ZN13ComputeShader19ValidateKernelStateEjPNS_11KernelStateE
4996:__ZNK15dense_hashtableINSt3__24pairIK16ShaderKeywordSetN13ComputeShader11KernelStateEEES2_NS4_27ShaderKeywordSetHashFunctorEN14dense_hash_mapIS2_S5_S7_NS0_8equal_toIS2_EE13stl_allocatorIS6_L18MemLabelIdentifier25ELi16EEE9SelectKeyESA_SD_E23find_position_with_hashERS3_m
4997:__ZN13ComputeShader19CreateKernelVariantEjRK16ShaderKeywordSetb
4998:__ZNK17ShaderKeywordData8GetNamesERK16ShaderKeywordSetRN4core12basic_stringIcNS3_20StringStorageDefaultIcEEEE
4999:__ZNK4core8hash_setINS_4pairIKNS_12basic_stringIcNS_20StringStorageDefaultIcEEEE19ComputeShaderKernelLb1EEENS_9hash_pairINS_4hashIS5_EES6_S7_EENS_10equal_pairINSt3__28equal_toIS5_EES6_S7_EEE6lookupIS5_SH_EEPNSI_4nodeERKT_RKT0_
5000:__ZN13ComputeShader11KernelStateC2ERKS0_
5001:__ZN13ComputeShader11KernelStateC2EOS0_
5002:__ZN15dense_hashtableINSt3__24pairIK16ShaderKeywordSetN13ComputeShader11KernelStateEEES2_NS4_27ShaderKeywordSetHashFunctorEN14dense_hash_mapIS2_S5_S7_NS0_8equal_toIS2_EE13stl_allocatorIS6_L18MemLabelIdentifier25ELi16EEE9SelectKeyESA_SD_E12resize_deltaEmm
5003:__ZN15dense_hashtableINSt3__24pairIK16ShaderKeywordSetN13ComputeShader11KernelStateEEES2_NS4_27ShaderKeywordSetHashFunctorEN14dense_hash_mapIS2_S5_S7_NS0_8equal_toIS2_EE13stl_allocatorIS6_L18MemLabelIdentifier25ELi16EEE9SelectKeyESA_SD_E15insert_noresizeERKS6_
5004:__ZN13ComputeShader11KernelStateD2Ev
5005:__ZN19ComputeShaderKernelC2ERKS_
5006:__ZN19ComputeShaderKernelaSERKS_
5007:__ZN13dynamic_arrayI15ComputeShaderCBLm0EED2Ev
5008:__ZNK15dense_hashtableINSt3__24pairIK16ShaderKeywordSetN13ComputeShader11KernelStateEEES2_NS4_27ShaderKeywordSetHashFunctorEN14dense_hash_mapIS2_S5_S7_NS0_8equal_toIS2_EE13stl_allocatorIS6_L18MemLabelIdentifier25ELi16EEE9SelectKeyESA_SD_E12test_deletedEm
5009:__ZN15dense_hashtableINSt3__24pairIK16ShaderKeywordSetN13ComputeShader11KernelStateEEES2_NS4_27ShaderKeywordSetHashFunctorEN14dense_hash_mapIS2_S5_S7_NS0_8equal_toIS2_EE13stl_allocatorIS6_L18MemLabelIdentifier25ELi16EEE9SelectKeyESA_SD_E12maybe_shrinkEv
5010:__ZN15dense_hashtableINSt3__24pairIK16ShaderKeywordSetN13ComputeShader11KernelStateEEES2_NS4_27ShaderKeywordSetHashFunctorEN14dense_hash_mapIS2_S5_S7_NS0_8equal_toIS2_EE13stl_allocatorIS6_L18MemLabelIdentifier25ELi16EEE9SelectKeyESA_SD_E9copy_fromERKSG_m
5011:__ZN15dense_hashtableINSt3__24pairIK16ShaderKeywordSetN13ComputeShader11KernelStateEEES2_NS4_27ShaderKeywordSetHashFunctorEN14dense_hash_mapIS2_S5_S7_NS0_8equal_toIS2_EE13stl_allocatorIS6_L18MemLabelIdentifier25ELi16EEE9SelectKeyESA_SD_E4swapERSG_
5012:__ZN15dense_hashtableINSt3__24pairIK16ShaderKeywordSetN13ComputeShader11KernelStateEEES2_NS4_27ShaderKeywordSetHashFunctorEN14dense_hash_mapIS2_S5_S7_NS0_8equal_toIS2_EE13stl_allocatorIS6_L18MemLabelIdentifier25ELi16EEE9SelectKeyESA_SD_E5clearEv
5013:__ZN15dense_hashtableINSt3__24pairIK16ShaderKeywordSetN13ComputeShader11KernelStateEEES2_NS4_27ShaderKeywordSetHashFunctorEN14dense_hash_mapIS2_S5_S7_NS0_8equal_toIS2_EE13stl_allocatorIS6_L18MemLabelIdentifier25ELi16EEE9SelectKeyESA_SD_E12expand_arrayEmN21dense_hash_map_traits17integral_constantIbLb0EEE
5014:__ZNK15dense_hashtableINSt3__24pairIK16ShaderKeywordSetN13ComputeShader11KernelStateEEES2_NS4_27ShaderKeywordSetHashFunctorEN14dense_hash_mapIS2_S5_S7_NS0_8equal_toIS2_EE13stl_allocatorIS6_L18MemLabelIdentifier25ELi16EEE9SelectKeyESA_SD_E10test_emptyEm
5015:__ZN13ComputeShader21ConstantBufferStagingC2ERKS0_
5016:__ZN30ShaderEnabledKeywordEnumerator8MoveNextEv
5017:__ZNK17ShaderKeywordData7GetNameEi
5018:__ZNSt3__26__sortIRNS_6__lessIN4core16basic_string_refIcEES4_EEPS4_EEvT0_S8_T_
5019:__ZN4core9JoinArrayERK13dynamic_arrayINS_16basic_string_refIcEELm0EES2_
5020:__Z8JoinImplIN4core16basic_string_refIcEEENS0_12basic_stringIcNS0_20StringStorageDefaultIcEEEERK13dynamic_arrayIT_Lm0EES2_
5021:__ZNSt3__27__sort3IRNS_6__lessIN4core16basic_string_refIcEES4_EEPS4_EEjT0_S8_S8_T_
5022:__ZNSt3__27__sort4IRNS_6__lessIN4core16basic_string_refIcEES4_EEPS4_EEjT0_S8_S8_S8_T_
5023:__ZNSt3__27__sort5IRNS_6__lessIN4core16basic_string_refIcEES4_EEPS4_EEjT0_S8_S8_S8_S8_T_
5024:__ZNSt3__218__insertion_sort_3IRNS_6__lessIN4core16basic_string_refIcEES4_EEPS4_EEvT0_S8_T_
5025:__ZNSt3__227__insertion_sort_incompleteIRNS_6__lessIN4core16basic_string_refIcEES4_EEPS4_EEbT0_S8_T_
5026:__ZN30ShaderEnabledKeywordEnumeratorC2ERK16ShaderKeywordSet
5027:__ZN13ComputeShader8ParamMapI15ComputeBufferIDE8SetParamEN9ShaderLab16FastPropertyNameERS1_
5028:__ZN4core8hash_mapIN9ShaderLab16FastPropertyNameEiN13ComputeShader27FastPropertyNameHashFunctorENSt3__28equal_toIS2_EEEixERKS2_
5029:__ZNK17SharedTextureData7GetDataEm
5030:__ZNK17SharedTextureData9GetHeightEv
5031:__ZNK17SharedTextureData9GetFormatEv
5032:__ZNK17SharedTextureData17GetGraphicsFormatE17TextureColorSpace
5033:__ZNK17SharedTextureData12GetImageSizeEv
5034:__ZNK17SharedTextureData13GetImageCountEv
5035:__ZNK17SharedTextureData9HasMipMapEv
5036:__ZNK17SharedTextureData8MipCountEv
5037:__ZNK17SharedTextureData18CalculateImageSizeEv
5038:__ZNK17SharedTextureData18CalculateImageSizeEii
5039:__ZNK17SharedTextureData27CalculateImageSizeForFormatE13TextureFormat
5040:__ZNK17SharedTextureData27CalculateImageSizeForFormatEii13TextureFormat
5041:__Z30CalculateImageSizeWithMipCountii13TextureFormatj
5042:__ZN16GeometryJobTasks19EndGeometryJobFrameER9GfxDevice
5043:__ZN13ComputeBuffer7SetDataER9GfxDevicePKvmm
5044:__ZN12GPUFencePool28ClearCompletedFencesInternalEv
5045:__ZN16GeometryJobTasks19PutGeometryJobFenceER9GfxDevice16GeometryJobFence
5046:__ZN16GeometryJobTasks26ScheduleSharedGeometryJobsER9GfxDevice16GeometryJobFencePFvP21SharedGeometryJobDatajEPFvS4_EPFvRK8JobFenceES4_jPK16DynamicVBOBufferSG_b
5047:__ZN23DynamicVBOBufferManager15GetBufferOffsetERK16DynamicVBOBuffer
5048:__ZN16GeometryJobTasks20ScheduleGeometryJobsER9GfxDevicePFvP15GeometryJobDataEPK22GeometryJobInstructionjb
5049:__ZN16GeometryJobTasks11PrepareTaskI22GeometryJobInstructionEEvPKT_j
5050:__ZN23DynamicVBOBufferManager21AcquireSharedInternalER9GfxDevice15GfxBufferTargetmj
5051:__ZN23DynamicVBOBufferManager12CleanupClassEv
5052:__ZN23DynamicVBOBufferManager9NextFrameEv
5053:__ZN22VertexDeclarationCache13GetVertexDeclERK18VertexChannelsInfo
5054:__ZN9GfxDevice14OnDeleteBufferEP9GfxBuffer
5055:__ZN10BufferGLES8EndWriteEm
5056:__ZN14DataBufferGLES16FlushMappedRangeEmm
5057:__ZN7ApiGLES11FlushBufferEjN2gl12BufferTargetEll
5058:__ZN10BufferGLES10BeginWriteEmm
5059:__ZN9GfxDevice14OnCreateBufferEP9GfxBuffer
5060:__ZN10BufferGLES10InitializeEPKv
5061:__ZN10BufferGLES12EnsureBufferERP14DataBufferGLESmNS0_11BufferUsageE
5062:__ZN10BufferGLESC2ERK13GfxBufferDesc
5063:__ZN19ConstantBuffersGLES8UpdateCBE5CbKeyPKvm
5064:__ZNSt3__26vectorINS_4pairI5CbKeyPN19ConstantBuffersGLES11ConstBufferEEENS_9allocatorIS6_EEE21__push_back_slow_pathIS6_EEvOT_
5065:__ZN9ShaderLab10SubProgramD2Ev
5066:__Z16CreateGpuProgram20ShaderGpuProgramTypeRK13dynamic_arrayIhLm0EER22CreateGpuProgramOutput
5067:__ZN18GlslGpuProgramGLESC2ERK13dynamic_arrayIhLm0EER22CreateGpuProgramOutput
5068:__ZN18GlslGpuProgramGLES6CreateERK13dynamic_arrayIhLm0EER17ShaderChannelMask
5069:__ZN22CreateGpuProgramOutput12CreateParamsEv
5070:__ZN16UniformCacheGLES6CreateERK13dynamic_arrayIN20GpuProgramParameters14ValueParameterELm0EERS0_IiLm0EE
5071:__ZN18GlslGpuProgramGLES5ClearEv
5072:__ZN4glsl18ExtractDefineBlockERKN4core12basic_stringIcNS0_20StringStorageDefaultIcEEEES6_PS4_
5073:__ZN18GlslGpuProgramGLESD2Ev
5074:__ZN18GlslGpuProgramGLESD0Ev
5075:__ZNK18GlslGpuProgramGLES14HasShaderStageE10ShaderType
5076:__ZNK10GpuProgram11IsSupportedEv
5077:__ZN18GlslGpuProgramGLES18ShaderPatchingInfoD2Ev
5078:__ZN13dynamic_arrayIN18GlslGpuProgramGLES9GLProgramELm0EED2Ev
5079:__ZN26SinglePassStereoSupportExt22RestoreStereoConstantsEv
5080:__ZN13dynamic_arrayI27StereoGlobalsConstantBufferLm0EE12emplace_backIJRKS0_EEERS0_DpOT_
5081:__ZN26SinglePassStereoSupportExt21SetStereoScissorRectsEPK5RectTIiE
5082:__ZN26SinglePassStereoSupportExt17SetStereoViewportE15StereoscopicEyeRK5RectTIiEb
5083:__ZN26SinglePassStereoSupportExt15GetStereoMatrixE21MonoOrStereoscopicEye24BuiltinShaderMatrixParamR10Matrix4x4f
5084:__ZN26SinglePassStereoSupportExt23SetupStereoMatrixParamsE21MonoOrStereoscopicEye24BuiltinShaderMatrixParamRK10Matrix4x4f
5085:__ZN26SinglePassStereoSupportExt21SetStereoMatrixCommonE21MonoOrStereoscopicEye24BuiltinShaderMatrixParamRK10Matrix4x4f
5086:__ZN26SinglePassStereoSupportExt32UpdateStereoViewProjectionMatrixE21MonoOrStereoscopicEyeb
5087:__ZN9GfxDevice26UpdateViewProjectionMatrixEv
5088:__ZN26SinglePassStereoSupportExt31AfterUpdateViewProjectionMatrixEv
5089:__ZN9GfxDevice19SetProjectionMatrixERK10Matrix4x4f
5090:__ZN26SinglePassStereoSupportExt24AfterSetProjectionMatrixEv
5091:__ZN9GfxDevice13SetViewMatrixERK10Matrix4x4f
5092:__ZN26SinglePassStereoSupportExt18AfterSetViewMatrixEv
5093:__ZN9GfxDevice14SetWorldMatrixERK10Matrix4x4f
5094:__ZN7ApiGLES16BindStencilStateEPK15GfxStencilStatei
5095:__ZN7ApiGLES11SetCullModeE8CullMode
5096:__ZN4gles15UpdateColorMaskER15DeviceStateGLESPK20DeviceBlendStateGLESj
5097:_glBlendBarrier
5098:__ZN18GfxFramebufferGLES5ClearE13GfxClearFlagsRK10ColorRGBAffib
5099:__ZN7ApiGLES16ClearDepthBufferEf
5100:__ZN7ApiGLES18ClearStencilBufferEj
5101:__ZN23ScriptableRenderContext23ShouldUseRenderPipelineEv
5102:__ZNK16GraphicsSettings24GetCurrentRenderPipelineEv
5103:__Z14CheckErrorGLESPK7ApiGLESPKcS3_l
5104:__Z7LogGLESPKcS0_S0_l
5105:__ZN9GfxDevice15InvalidateStateEv
5106:__ZN18GfxFramebufferGLES32InvalidateActiveFramebufferStateEv
5107:__ZN13DrawImmediate10InvalidateEv
5108:__ZN9GfxDevice20CleanupSharedBuffersEv
5109:__Z24ReleaseBufferManagerGLESv
5110:__ZN22VertexDeclarationCache5ClearEv
5111:__ZNSt3__26__treeINS_12__value_typeIN2gl13ContextHandleEN14GfxContextGLES8InstanceEEENS_19__map_value_compareIS3_S6_NS_4lessIS3_EELb1EEENS_9allocatorIS6_EEE7destroyEPNS_11__tree_nodeIS6_PvEE
5112:__ZN22VertexDeclarationCacheD2Ev
5113:__ZN15DeviceStateGLESD2Ev
5114:__ZN9GfxDeviceD2Ev
5115:__ZN9GfxDevice8OnDeleteEv
5116:__ZNSt3__26__treeINS_12__value_typeI9TextureIDmEENS_19__map_value_compareIS2_S3_NS_4lessIS2_EELb1EEENS_9allocatorIS3_EEE7destroyEPNS_11__tree_nodeIS3_PvEE
5117:__ZN13dynamic_arrayIN15RenderPassSetup7SubPassELm0EED2Ev
5118:__ZN13DrawImmediateD2Ev
5119:__ZN9GfxDevice18BeforePluginRenderEv
5120:__ZN9GfxDevice8ClearMRTE13GfxClearFlagsPK10ColorRGBAfijfj
5121:__ZN9GfxDevice25SetInvertProjectionMatrixEb
5122:__ZN9GfxDevice19DrawBuffersIndirectEP9GfxBufferjPKS1_PKjiP17VertexDeclaration16GfxPrimitiveType15ComputeBufferIDj
5123:__ZN9GfxDevice21RegisterNativeTextureE9TextureIDl16TextureDimension
5124:__ZN9GfxDevice23UnregisterNativeTextureE9TextureID
5125:__ZN9GfxDevice11CopyTextureE9TextureIDiiiiiiiiiS0_iiiiii
5126:__ZN9GfxDevice19CreateSparseTextureE9TextureIDii14GraphicsFormati
5127:__ZN9GfxDevice23UploadSparseTextureTileE9TextureIDiiiPKhii
5128:__ZN9GfxDevice33InsertPluginTextureUpdateCallbackEPFviPvER44UnityRenderingExtTextureUpdateParamsInternal
5129:__ZN9GfxDevice10CopyBufferEP9GfxBufferS1_
5130:__ZN7ApiGLESD2Ev
5131:__ZNSt3__26__treeI17DeviceRasterState14MemoryCompLessIS1_ENS_9allocatorIS1_EEE7destroyEPNS_11__tree_nodeIS1_PvEE
5132:__ZNSt3__26__treeI20DeviceBlendStateGLES14MemoryCompLessI16DeviceBlendStateENS_9allocatorIS1_EEE7destroyEPNS_11__tree_nodeIS1_PvEE
5133:__ZNSt3__26__treeI22DeviceStencilStateGLES14MemoryCompLessI18DeviceStencilStateENS_9allocatorIS1_EEE7destroyEPNS_11__tree_nodeIS1_PvEE
5134:__ZNSt3__26__treeI20DeviceDepthStateGLES14MemoryCompLessIS1_ENS_9allocatorIS1_EEE7destroyEPNS_11__tree_nodeIS1_PvEE
5135:__ZNSt3__26__treeINS_12__value_typeI18VertexChannelsInfoP17VertexDeclarationEENS_19__map_value_compareIS2_S5_NS_4lessIS2_EELb1EEE13stl_allocatorIS5_L18MemLabelIdentifier18ELi16EEE7destroyEPNS_11__tree_nodeIS5_PvEE
5136:__ZN14GfxContextGLES8InstanceD2Ev
5137:__ZN17BufferManagerGLESD2Ev
5138:__ZN17BufferManagerGLES5ClearEv
5139:__ZN22LocalFileSystemHandler18IsAbsoluteFilePathEN4core16basic_string_refIcEE
5140:__ZN22LocalFileSystemHandler19InitializeFileEntryER13FileEntryData
5141:__ZN22LocalFileSystemHandler4NameEv
5142:__ZNK17FileSystemHandler10IsReadOnlyERK13FileEntryData
5143:__ZN17FileSystemHandler11MoveToTrashER13FileEntryData
5144:__ZN17FileSystemHandler11SetReadOnlyER13FileEntryDatab
5145:__ZNK17FileSystemHandler12GetAssetGUIDERK13FileEntryData
5146:__ZN22LocalFileSystemHandler9MakeLocalER13FileEntryDatab
5147:__ZNK22LocalFileSystemHandler7ToLocalERK13FileEntryDataRN4core12basic_stringIcNS3_20StringStorageDefaultIcEEEERN3VFS8FileSizeESB_
5148:__ZNK17FileSystemHandler31CreateFileWithContentAtomicallyERK13FileEntryDataPKvy
5149:__ZNK22LocalFileSystemHandler17GetExecutablePathEv
5150:__ZNK22LocalFileSystemHandler30GetSharedApplicationDataFolderEv
5151:__Z18AppendPathNameImplN4core16basic_string_refIcEES1_cRNS_12basic_stringIcNS_20StringStorageDefaultIcEEEE
5152:__ZN18ScriptingArguments9AddIntPtrEPv
5153:__ZN18ScriptingArguments8AddArrayE17ScriptingArrayPtr
5154:__ZN18ScriptingArguments6AddIntEi
5155:__ZN18ScriptingArguments8AddInt64Ex
5156:__ZN18ScriptingArguments7AddEnumEi
5157:__ZN12HandlerChainD2Ev
5158:__ZN12HandlerChainD0Ev
5159:__ZN12HandlerChain4OpenER13FileEntryData14FilePermission16FileAutoBehavior
5160:__ZN12HandlerChain4ReadER13FileEntryDataN3VFS8FileSizeEyPvPy13FileReadFlags
5161:__ZN12HandlerChain4ReadER13FileEntryDatayPvPy13FileReadFlags
5162:__ZN12HandlerChain5WriteER13FileEntryDataN3VFS8FileSizeEyPKvPy
5163:__ZN12HandlerChain5WriteER13FileEntryDatayPKvPy
5164:__ZNK12HandlerChain8PositionERK13FileEntryData
5165:__ZNK12HandlerChain4SizeERK13FileEntryData
5166:__ZNK12HandlerChain9CanHandleEN4core16basic_string_refIcEE
5167:__ZN12HandlerChain10ToAbsoluteEN4core16basic_string_refIcEE
5168:__ZN12HandlerChain18IsAbsoluteFilePathEN4core16basic_string_refIcEE
5169:__ZN12HandlerChain4NameEv
5170:__ZNK12HandlerChain6ParentERK13FileEntryDataRN4core12basic_stringIcNS3_20StringStorageDefaultIcEEEE
5171:__ZNK12HandlerChain8FilenameERK13FileEntryData
5172:__ZNK12HandlerChain5IsDirERK13FileEntryData
5173:__ZNK12HandlerChain6IsFileERK13FileEntryData
5174:__ZNK12HandlerChain8IsHiddenERK13FileEntryData
5175:__ZNK12HandlerChain9IsSymLinkERK13FileEntryData
5176:__ZNK12HandlerChain12LastModifiedERK13FileEntryData
5177:__ZN12HandlerChain8IsLockedERK13FileEntryData
5178:__ZN12HandlerChain11HasFastHashERK13FileEntryDataR7Hash128
5179:__ZN12HandlerChain8SetFlagsER13FileEntryDatajj
5180:__ZN12HandlerChain12CreateAsFileER13FileEntryData
5181:__ZN12HandlerChain11CreateAsDirER13FileEntryData
5182:__ZN12HandlerChain6DeleteER13FileEntryDatab
5183:__ZN12HandlerChain11MoveToTrashER13FileEntryData
5184:__ZNK12HandlerChain6TargetERK13FileEntryDataR15FileSystemEntry
5185:__ZN12HandlerChain4LockER13FileEntryData12FileLockMode
5186:__ZN12HandlerChain4CopyER13FileEntryDataS1_
5187:__ZN12HandlerChain10AtomicMoveER13FileEntryDataS1_
5188:__ZNK12HandlerChain12GetAssetGUIDERK13FileEntryData
5189:__ZN12HandlerChain9MakeLocalER13FileEntryDatab
5190:__ZNK12HandlerChain7ToLocalERK13FileEntryDataRN4core12basic_stringIcNS3_20StringStorageDefaultIcEEEERN3VFS8FileSizeESB_
5191:__ZNK12HandlerChain9EnumerateEPKcP19dynamic_block_arrayI13FileEntryInfoLm32EEbPPv19FileEnumerationFlag
5192:__ZNK12HandlerChain6ExistsERK13FileEntryData
5193:__ZN20LocalFileSystemPosixD2Ev
5194:__ZN20LocalFileSystemPosixD0Ev
5195:__ZN20LocalFileSystemPosix4OpenER13FileEntryData14FilePermission16FileAutoBehavior
5196:__ZN20LocalFileSystemPosix4ReadER13FileEntryDataN3VFS8FileSizeEyPvPy13FileReadFlags
5197:__ZN20LocalFileSystemPosix4ReadER13FileEntryDatayPvPy13FileReadFlags
5198:__ZN20LocalFileSystemPosix5WriteER13FileEntryDataN3VFS8FileSizeEyPKvPy
5199:__ZN20LocalFileSystemPosix5WriteER13FileEntryDatayPKvPy
5200:__ZN20LocalFileSystemPosix5CloseER13FileEntryData
5201:__ZN20LocalFileSystemPosix4SeekER13FileEntryDataN3VFS10FileOffsetE10FileOrigin
5202:__ZNK20LocalFileSystemPosix8PositionERK13FileEntryData
5203:__ZN20LocalFileSystemPosix9SetLengthER13FileEntryDataN3VFS8FileSizeE
5204:__ZNK20LocalFileSystemPosix4SizeERK13FileEntryData
5205:__ZN20LocalFileSystemPosix10ToAbsoluteEN4core16basic_string_refIcEE
5206:__ZNK20LocalFileSystemPosix6ParentERK13FileEntryDataRN4core12basic_stringIcNS3_20StringStorageDefaultIcEEEE
5207:__ZNK20LocalFileSystemPosix8FilenameERK13FileEntryData
5208:__ZNK20LocalFileSystemPosix5IsDirERK13FileEntryData
5209:__ZNK20LocalFileSystemPosix6IsFileERK13FileEntryData
5210:__ZNK20LocalFileSystemPosix9IsSymLinkERK13FileEntryData
5211:__ZNK20LocalFileSystemPosix10IsReadOnlyERK13FileEntryData
5212:__ZNK20LocalFileSystemPosix12LastModifiedERK13FileEntryData
5213:__ZN20LocalFileSystemPosix8IsLockedERK13FileEntryData
5214:__ZN20LocalFileSystemPosix8SetFlagsER13FileEntryDatajj
5215:__ZN20LocalFileSystemPosix12CreateAsFileER13FileEntryData
5216:__ZN20LocalFileSystemPosix11CreateAsDirER13FileEntryData
5217:__ZN20LocalFileSystemPosix6DeleteER13FileEntryDatab
5218:__ZNK20LocalFileSystemPosix6TargetERK13FileEntryDataR15FileSystemEntry
5219:__ZN20LocalFileSystemPosix4LockER13FileEntryData12FileLockMode
5220:__ZN20LocalFileSystemPosix11SetReadOnlyER13FileEntryDatab
5221:__ZN20LocalFileSystemPosix4CopyER13FileEntryDataS1_
5222:__ZN20LocalFileSystemPosix10AtomicMoveER13FileEntryDataS1_
5223:__ZNK20LocalFileSystemPosix9EnumerateEPKcP19dynamic_block_arrayI13FileEntryInfoLm32EEbPPv19FileEnumerationFlag
5224:__ZN20LocalFileSystemPosix5TouchER13FileEntryData
5225:__ZN20LocalFileSystemPosix16SetFileTimeStampER13FileEntryDataRK8DateTime
5226:__ZNK20LocalFileSystemPosix6ExistsERK13FileEntryData
5227:__ZNK20LocalFileSystemPosix18GetApplicationPathEv
5228:__ZNK20LocalFileSystemPosix20GetApplicationFolderEv
5229:__ZNK20LocalFileSystemPosix25GetApplicationManagedPathEv
5230:__ZNK20LocalFileSystemPosix26GetApplicationContentsPathEv
5231:__ZNK20LocalFileSystemPosix21GetUserAppCacheFolderEv
5232:__ZNK20LocalFileSystemPosix19GetUserConfigFolderEv
5233:__ZNK20LocalFileSystemPosix21GetAvailableDiskSpaceEPKcRy
5234:__Z14AppendPathNameIN4core12basic_stringIcNS0_20StringStorageDefaultIcEEEEA16_cES4_RKT_RKT0_
5235:__Z18IsDirectoryCreatedN4core16basic_string_refIcEE
5236:__ZNK15FileSystemEntry12FolderExistsEv
5237:__Z15CreateDirectoryN4core16basic_string_refIcEE
5238:__Z27DeleteLastPathNameComponentN4core16basic_string_refIcEE
5239:__Z16FlaggedAsSkippedbbN4core16basic_string_refIcEE19FileEnumerationFlag
5240:__ZN19dynamic_block_arrayI13FileEntryInfoLm32EE4growEm
5241:__ZN13dynamic_arrayI13FileEntryInfoLm0EE4growEv
5242:__ZN12FileAccessor4OpenEPKc14FilePermission16FileAutoBehavior
5243:__ZNK12FileAccessor4SizeEv
5244:__ZN12FileAccessor4ReadEyPvPy13FileReadFlags
5245:__ZN12FileAccessor5WriteEyPKvPy
5246:__ZN20LocalFileSystemPosix15SynchronizeModeERK13FileEntryDataS2_
5247:__Z23GetFolderContentsAtPathN4core16basic_string_refIcEERNSt3__23setINS_12basic_stringIcNS_20StringStorageDefaultIcEEEENS2_4lessIS7_EE13stl_allocatorIS7_L18MemLabelIdentifier1ELi16EEEE22FolderContentsPathModeRKS7_
5248:__Z22IsFileOrDirectoryInUseN4core16basic_string_refIcEE
5249:__ZNSt3__26__treeIN4core12basic_stringIcNS1_20StringStorageDefaultIcEEEENS_4lessIS5_EE13stl_allocatorIS5_L18MemLabelIdentifier1ELi16EEE7destroyEPNS_11__tree_nodeIS5_PvEE
5250:__ZN13FileEntryDataC2ERKS_
5251:__Z23GetFolderContentsAtPathN4core16basic_string_refIcEE19FileEnumerationFlagRNSt3__23setINS_12basic_stringIcNS_20StringStorageDefaultIcEEEENS3_4lessIS8_EE13stl_allocatorIS8_L18MemLabelIdentifier1ELi16EEEE22FolderContentsPathModeRKS8_
5252:__ZNK10FileSystem9EnumerateEPKcP19dynamic_block_arrayI13FileEntryInfoLm32EEb19FileEnumerationFlag
5253:__ZL33FileEntryInfoListToFolderContentsRKN4core12basic_stringIcNS_20StringStorageDefaultIcEEEERK19dynamic_block_arrayI13FileEntryInfoLm32EERNSt3__23setIS3_NSB_4lessIS3_EE13stl_allocatorIS3_L18MemLabelIdentifier1ELi16EEEE
5254:__ZL41FileEntryInfoListToFolderContentsAbsoluteRK19dynamic_block_arrayI13FileEntryInfoLm32EERNSt3__23setIN4core12basic_stringIcNS6_20StringStorageDefaultIcEEEENS4_4lessISA_EE13stl_allocatorISA_L18MemLabelIdentifier1ELi16EEEE
5255:__ZNSt3__26__treeIN4core12basic_stringIcNS1_20StringStorageDefaultIcEEEENS_4lessIS5_EE13stl_allocatorIS5_L18MemLabelIdentifier1ELi16EEE25__emplace_unique_key_argsIS5_JS5_EEENS_4pairINS_15__tree_iteratorIS5_PNS_11__tree_nodeIS5_PvEElEEbEERKT_DpOT0_
5256:__Z14SkipPathPrefixN4core16basic_string_refIcEES1_b14ComparisonType
5257:__ZNK4core16basic_string_refIcE21find_case_insensitiveEPKcmm
5258:__ZN20LocalFileSystemPosix20GetHomeDirectoryPathEv
5259:__ZN11TimeManagerD2Ev
5260:__ZN11TimeManagerD0Ev
5261:__ZN11GameManager17MainThreadCleanupEv
5262:__ZN11TimeManager13AwakeFromLoadE17AwakeFromLoadMode
5263:__ZN11TimeManager16CheckConsistencyEv
5264:__ZN11TimeManager5ResetEv
5265:__ZNK11TimeManager22GetTypeVirtualInternalEv
5266:__ZN6Object24SetCachedScriptingObjectE18ScriptingObjectPtr
5267:__ZN11TimeManager23VirtualRedirectTransferER19StreamedBinaryWrite
5268:__ZN11TimeManager23VirtualRedirectTransferER18StreamedBinaryRead
5269:__ZN11TimeManager23VirtualRedirectTransferER24GenerateTypeTreeTransfer
5270:__ZN11TimeManager23VirtualRedirectTransferER14SafeBinaryRead
5271:__ZN11TimeManager6UpdateEd
5272:__ZN14SafeBinaryRead13BeginTransferEPKcS1_PPFbPvRS_Eb
5273:__ZN15SerializeTraitsI11TimeManagerE8TransferI14SafeBinaryReadEEvRS0_RT_
5274:__ZN14SafeBinaryRead11EndTransferEv
5275:__ZN12CachedReader15UpdateReadCacheEPvm
5276:__ZN13dynamic_arrayIN14SafeBinaryRead11StackedInfoELm0EE4growEv
5277:__ZL4WalkRK16TypeTreeIteratorR12CachedReaderPN3VFS8FileSizeEbRN12TypeTreeNode10ETypeFlagsE
5278:__Z23GetAllowNameConversionsPK20AllowNameConversionsPKcS3_
5279:__Z13FindConverterPKcS0_
5280:__ZN11TimeManager8TransferI24GenerateTypeTreeTransferEEvRT_
5281:__ZN11TimeManager8TransferI18StreamedBinaryReadEEvRT_
5282:__ZN11TimeManager8TransferI19StreamedBinaryWriteEEvRT_
5283:__ZN12CachedWriter16UpdateWriteCacheEPKvm
5284:__ZN11GameManagerD2Ev
5285:__ZN11GameManagerD0Ev
5286:__ZNK11GameManager22GetTypeVirtualInternalEv
5287:__ZNK17GlobalGameManager22GetTypeVirtualInternalEv
5288:__ZN17GlobalGameManager23VirtualRedirectTransferER24GenerateTypeTreeTransfer
5289:__ZN17GlobalGameManager23VirtualRedirectTransferER14SafeBinaryRead
5290:__ZN12InputManagerD2Ev
5291:__ZN12InputManagerD0Ev
5292:__ZN12InputManager16CheckConsistencyEv
5293:__ZN12InputManager5ResetEv
5294:__ZNK12InputManager22GetTypeVirtualInternalEv
5295:__ZN12InputManager23VirtualRedirectTransferER19StreamedBinaryWrite
5296:__ZN12InputManager23VirtualRedirectTransferER18StreamedBinaryRead
5297:__ZN12InputManager23VirtualRedirectTransferER17RemapPPtrTransfer
5298:__ZN12InputManager23VirtualRedirectTransferER24GenerateTypeTreeTransfer
5299:__ZN12InputManager23VirtualRedirectTransferER14SafeBinaryRead
5300:__ZN12InputManager8TransferI14SafeBinaryReadEEvRT_
5301:__ZN14SafeBinaryRead21TransferSTLStyleArrayI13dynamic_arrayI9InputAxisLm0EEEEvRT_17TransferMetaFlags
5302:__Z10AddGUIAxesR13dynamic_arrayI9InputAxisLm0EE
5303:__ZN9InputAxisC2ERKN4core12basic_stringIcNS0_20StringStorageDefaultIcEEEE
5304:__ZN13dynamic_arrayI9InputAxisLm0EE9push_backERKS0_
5305:__ZN14SafeBinaryRead18BeginArrayTransferEPKcS1_Ri
5306:__ZN13dynamic_arrayI9InputAxisLm0EE18resize_initializedEm12ResizePolicy
5307:__ZN9InputAxis8TransferI14SafeBinaryReadEEvRT_
5308:__ZN14SafeBinaryRead16EndArrayTransferEv
5309:__ZN12InputManager8TransferI24GenerateTypeTreeTransferEEvRT_
5310:__ZN9InputAxis8TransferI24GenerateTypeTreeTransferEEvRT_
5311:__ZN9InputAxis8TransferI18StreamedBinaryReadEEvRT_
5312:__ZN9InputAxis8TransferI19StreamedBinaryWriteEEvRT_
5313:__ZN19StreamedBinaryWrite5AlignEv
5314:__ZN12CachedWriter11Align4WriteEv
5315:__ZN12InputManager11MakeDefaultEv
5316:__ZN13dynamic_arrayI9InputAxisLm0EED2Ev
5317:__ZN13GfxDeviceNullD2Ev
5318:__ZN13GfxDeviceNullD0Ev
5319:__ZN13GfxDeviceNull5ClearE13GfxClearFlagsRK10ColorRGBAffj
5320:__ZN13GfxDeviceNull16CreateBlendStateERK13GfxBlendState
5321:__ZN13GfxDeviceNull16CreateDepthStateERK13GfxDepthState
5322:__ZN13GfxDeviceNull18CreateStencilStateERK15GfxStencilState
5323:__ZN13GfxDeviceNull17CreateRasterStateERK14GfxRasterState
5324:__ZN13GfxDeviceNull19SetUserBackfaceModeEb
5325:__ZNK13GfxDeviceNull11GetViewportEv
5326:__ZN13GfxDeviceNull16CreateGpuProgramE20ShaderGpuProgramTypeRK13dynamic_arrayIhLm0EER22CreateGpuProgramOutput
5327:__ZN13GfxDeviceNull17DestroySubProgramEPN9ShaderLab10SubProgramE
5328:__ZN13GfxDeviceNull17DestroyGpuProgramEPK10GpuProgram
5329:__ZN13GfxDeviceNull22AllocateBufferInternalERK13GfxBufferDesc
5330:__ZN13GfxDeviceNull24InitializeBufferInternalEP9GfxBufferPKv20GfxUpdateBufferFlags
5331:__ZN13GfxDeviceNull12DeleteBufferEP9GfxBuffer
5332:__ZNK13GfxDeviceNull27GetActiveRenderColorSurfaceEi
5333:__ZNK13GfxDeviceNull27GetActiveRenderDepthSurfaceEv
5334:__ZNK13GfxDeviceNull26GetActiveRenderTargetCountEv
5335:__ZN13GfxDeviceNull29RenderSurfaceStructMemorySizeEb
5336:__ZN13GfxDeviceNull32CreateColorRenderSurfacePlatformEP17RenderSurfaceBase14GraphicsFormat
5337:__ZN13GfxDeviceNull15UploadTexture2DE9TextureID16TextureDimensionPKhmii14GraphicsFormati18TextureUploadFlags16TextureUsageMode
5338:__ZN13GfxDeviceNull10BeginFrameEv
5339:__ZN13GfxDeviceNull8EndFrameEv
5340:__ZN13GfxDeviceNull15ImmediateVertexEfff
5341:__ZN13GfxDeviceNull17ImmediateTexCoordEifff
5342:__ZN13GfxDeviceNull17CaptureScreenshotEiiiiPh
5343:__ZN13GfxDeviceNull13ReadbackImageER14ImageReferenceiiiiii
5344:__ZN13GfxDeviceNull20SetRenderTargetsImplERK20GfxRenderTargetSetup
5345:__ZN5Unity9Component16CheckConsistencyEv
5346:__ZNK5Unity9Component7GetNameEv
5347:__ZN5Unity9Component7SetNameEPKc
5348:__ZN9Behaviour10DeactivateE19DeactivateOperation
5349:__ZN9Behaviour10SetEnabledEb
5350:__Z25FindAncestorComponentImplR10GameObjectPKN5Unity4TypeE
5351:__ZN9Behaviour8TransferI14SafeBinaryReadEEvRT_
5352:__ZN5Unity9Component8TransferI14SafeBinaryReadEEvRT_
5353:__ZN12ImmediatePtrI10GameObjectE8TransferI14SafeBinaryReadEEvRT_
5354:__Z43LocalSerializedObjectIdentifierToInstanceIDRK31LocalSerializedObjectIdentifierRi
5355:__Z38PreallocateObjectFromPersistentManagerib
5356:__ZN9Behaviour8TransferI24GenerateTypeTreeTransferEEvRT_
5357:__ZN5Unity9Component8TransferI24GenerateTypeTreeTransferEEvRT_
5358:__ZN9Behaviour8TransferI17RemapPPtrTransferEEvRT_
5359:__ZN5Unity9Component8TransferI17RemapPPtrTransferEEvRT_
5360:__ZN17RemapPPtrTransfer12PushMetaFlagE17TransferMetaFlags
5361:__ZN9Behaviour8TransferI18StreamedBinaryReadEEvRT_
5362:__ZN5Unity9Component8TransferI18StreamedBinaryReadEEvRT_
5363:__ZN12ImmediatePtrI10GameObjectE8TransferI18StreamedBinaryReadEEvRT_
5364:__ZN9Behaviour8TransferI19StreamedBinaryWriteEEvRT_
5365:__ZN5Unity9Component8TransferI19StreamedBinaryWriteEEvRT_
5366:__ZN12ImmediatePtrI10GameObjectE8TransferI19StreamedBinaryWriteEEvRT_
5367:__Z43InstanceIDToLocalSerializedObjectIdentifieriR31LocalSerializedObjectIdentifier
5368:__ZN17PersistentManager43InstanceIDToLocalSerializedObjectIdentifierEiR31LocalSerializedObjectIdentifier
5369:__ZN17PersistentManager32GlobalToLocalSerializedFileIndexERK26SerializedObjectIdentifier
5370:__ZN14SerializedFile14AddExternalRefERK14FileIdentifier
5371:__ZN10GameObject28FinalizeAddComponentInternalEPN5Unity9ComponentEbP18AwakeFromLoadQueue
5372:__ZN9Behaviour13AwakeFromLoadE17AwakeFromLoadMode
5373:__ZNK5Unity9Component22GetTypeVirtualInternalEv
5374:__ZN5Unity9Component23VirtualRedirectTransferER24GenerateTypeTreeTransfer
5375:__ZN5Unity9Component23VirtualRedirectTransferER14SafeBinaryRead
5376:__ZN5Unity9Component10SetEnabledEb
5377:__ZN9BehaviourD2Ev
5378:__ZNK9Behaviour22GetTypeVirtualInternalEv
5379:__ZN9Behaviour23VirtualRedirectTransferER24GenerateTypeTreeTransfer
5380:__ZN9Behaviour23VirtualRedirectTransferER14SafeBinaryRead
5381:__ZN11NamedObject7SetNameEPKc
5382:__ZN11NamedObject8TransferI14SafeBinaryReadEEvRT_
5383:__ZN13dynamic_arrayI22SecondarySpriteTextureLm0EED2Ev
5384:__ZN5RectTIfE8TransferI14SafeBinaryReadEEvRT_
5385:__ZN14SafeBinaryRead21TransferSTLStyleArrayI13dynamic_arrayI22SecondarySpriteTextureLm0EEEEvRT_17TransferMetaFlags
5386:__ZN22SecondarySpriteTexture8TransferI14SafeBinaryReadEEvRT_
5387:__ZN14ConstantString6assignEPKci10MemLabelId
5388:__ZN11NamedObject8TransferI24GenerateTypeTreeTransferEEvRT_
5389:__ZN22SecondarySpriteTexture8TransferI24GenerateTypeTreeTransferEEvRT_
5390:__ZN11NamedObject8TransferI18StreamedBinaryReadEEvRT_
5391:__ZN18StreamedBinaryRead21TransferSTLStyleArrayI13dynamic_arrayI22SecondarySpriteTextureLm0EEEEvRT_17TransferMetaFlags
5392:__ZN11NamedObject8TransferI19StreamedBinaryWriteEEvRT_
5393:__ZN22SecondarySpriteTexture8TransferI19StreamedBinaryWriteEEvRT_
5394:__ZN14ConstantString6assignEPKc10MemLabelId
5395:__ZN11NamedObjectD2Ev
5396:__ZN11NamedObjectD0Ev
5397:__ZNK11NamedObject22GetTypeVirtualInternalEv
5398:__ZN11NamedObject23VirtualRedirectTransferER24GenerateTypeTreeTransfer
5399:__ZN11NamedObject23VirtualRedirectTransferER14SafeBinaryRead
5400:__ZN17LowLevelAllocator4FreeEPvm
5401:__ZN17LowLevelAllocator7ReallocEPvmm
5402:__ZN14StackAllocatorD2Ev
5403:__ZN14StackAllocatorD0Ev
5404:__ZN14StackAllocator10DeallocateEPv
5405:__ZNK14StackAllocator8ContainsEPKv
5406:__ZNK14StackAllocator10GetPtrSizeEPKv
5407:__ZN12TLSAllocatorD2Ev
5408:__ZN12TLSAllocatorD0Ev
5409:__ZN12TLSAllocator10DeallocateEPv
5410:__ZNK12TLSAllocator8ContainsEPKv
5411:__ZNK12TLSAllocator10IsAssignedEv
5412:__ZNK12TLSAllocator22GetAllocatedMemorySizeEv
5413:__ZNK12TLSAllocator21GetReservedMemorySizeEv
5414:__ZNK12TLSAllocator24GetBookKeepingMemorySizeEv
5415:__ZN12TLSAllocator13ThreadCleanupEv
5416:__ZN12TLSAllocator16FrameMaintenanceEb
5417:__ZN12TLSAllocator19EnableLeakDetectionEb
5418:__ZN12TLSAllocator28SetBlockSizeForCurrentThreadEm
5419:__ZN12TLSAllocator11GetNewBlockEmPmS0_
5420:__ZN22LocalLowLevelAllocator18ReserveMemoryBlockEm
5421:__ZN22LocalLowLevelAllocatorD2Ev
5422:__ZN25ThreadsafeLinearAllocatorD2Ev
5423:__ZN25ThreadsafeLinearAllocatorD0Ev
5424:__ZN25ThreadsafeLinearAllocator8AllocateEmi
5425:__ZN25ThreadsafeLinearAllocator10ReallocateEPvmi
5426:__ZN25ThreadsafeLinearAllocator10DeallocateEPv
5427:__ZNK25ThreadsafeLinearAllocator8ContainsEPKv
5428:__ZNK25ThreadsafeLinearAllocator10GetPtrSizeEPKv
5429:__ZNK25ThreadsafeLinearAllocator22GetAllocatedMemorySizeEv
5430:__ZN25ThreadsafeLinearAllocator16FrameMaintenanceEb
5431:__ZN25ThreadsafeLinearAllocator15SelectFreeBlockEm
5432:__ZN10TagManagerD2Ev
5433:__ZN10TagManagerD0Ev
5434:__ZN10TagManager5ResetEv
5435:__ZNK10TagManager22GetTypeVirtualInternalEv
5436:__ZN10TagManager23VirtualRedirectTransferER19StreamedBinaryWrite
5437:__ZN10TagManager23VirtualRedirectTransferER18StreamedBinaryRead
5438:__ZN10TagManager23VirtualRedirectTransferER17RemapPPtrTransfer
5439:__ZN10TagManager23VirtualRedirectTransferER24GenerateTypeTreeTransfer
5440:__ZN10TagManager23VirtualRedirectTransferER14SafeBinaryRead
5441:__ZN10TagManager8TransferI14SafeBinaryReadEEvRT_
5442:__ZN10TagManager32RegisterDefaultTagsAndLayerMasksEv
5443:__ZN10TagManager11RegisterTagEjRKN4core12basic_stringIcNS0_20StringStorageDefaultIcEEEE
5444:__ZN10TagManager13RegisterLayerEjRKN4core12basic_stringIcNS0_20StringStorageDefaultIcEEEE
5445:__ZN14SafeBinaryRead21TransferSTLStyleArrayI13dynamic_arrayI17SortingLayerEntryLm0EEEEvRT_17TransferMetaFlags
5446:__ZN10TagManager23AddDefaultLayerIfNeededEv
5447:__ZN15SerializeTraitsI17SortingLayerEntryE8TransferI14SafeBinaryReadEEvRS0_RT_
5448:__ZNSt3__26__treeINS_12__value_typeIN4core12basic_stringIcNS2_20StringStorageDefaultIcEEEEjEENS_19__map_value_compareIS6_S7_NS_4lessIS6_EELb1EEE13stl_allocatorIS7_L18MemLabelIdentifier10ELi16EEE25__emplace_unique_key_argsIS6_JNS_4pairIS6_jEEEEENSH_INS_15__tree_iteratorIS7_PNS_11__tree_nodeIS7_PvEElEEbEERKT_DpOT0_
5449:__ZNSt3__26__treeINS_12__value_typeIN4core12basic_stringIcNS2_20StringStorageDefaultIcEEEEjEENS_19__map_value_compareIS6_S7_NS_4lessIS6_EELb1EEE13stl_allocatorIS7_L18MemLabelIdentifier10ELi16EEE7destroyEPNS_11__tree_nodeIS7_PvEE
5450:__ZNSt3__26__treeINS_12__value_typeIjN4core12basic_stringIcNS2_20StringStorageDefaultIcEEEEEENS_19__map_value_compareIjS7_NS_4lessIjEELb1EEE13stl_allocatorIS7_L18MemLabelIdentifier10ELi16EEE7destroyEPNS_11__tree_nodeIS7_PvEE
5451:__ZN10TagManager8TransferI24GenerateTypeTreeTransferEEvRT_
5452:__ZN10TagManager8TransferI17RemapPPtrTransferEEvRT_
5453:__ZN10TagManager8TransferI18StreamedBinaryReadEEvRT_
5454:__ZN18StreamedBinaryRead21TransferSTLStyleArrayI13dynamic_arrayI17SortingLayerEntryLm0EEEEvRT_17TransferMetaFlags
5455:__ZN10TagManager8TransferI19StreamedBinaryWriteEEvRT_
5456:__ZN19StreamedBinaryWrite8TransferI13dynamic_arrayIN4core12basic_stringIcNS2_20StringStorageDefaultIcEEEELm0EEEEvRT_PKc17TransferMetaFlags
5457:__ZN17SortingLayerEntry8TransferI19StreamedBinaryWriteEEvRT_
5458:__ZN10TagManager15ThreadedCleanupEv
5459:__ZN13dynamic_arrayI17SortingLayerEntryLm0EED2Ev
5460:__ZNK6Object22GetTypeVirtualInternalEv
5461:__ZNK16LevelGameManager22GetTypeVirtualInternalEv
5462:__ZN16LevelGameManager23VirtualRedirectTransferER24GenerateTypeTreeTransfer
5463:__ZN16LevelGameManager23VirtualRedirectTransferER14SafeBinaryRead
5464:__ZN10GameObjectD2Ev
5465:__ZN10GameObjectD0Ev
5466:__ZN10GameObject13AwakeFromLoadE17AwakeFromLoadMode
5467:__ZN10GameObject16CheckConsistencyEv
5468:__ZN10GameObject5ResetEv
5469:__ZNK10GameObject22GetTypeVirtualInternalEv
5470:__ZNK10GameObject7GetNameEv
5471:__ZN10GameObject7SetNameEPKc
5472:__ZN10GameObject12SetHideFlagsEN6Object9HideFlagsE
5473:__ZN10GameObject23VirtualRedirectTransferER19StreamedBinaryWrite
5474:__ZN10GameObject23VirtualRedirectTransferER18StreamedBinaryRead
5475:__ZN10GameObject23VirtualRedirectTransferER17RemapPPtrTransfer
5476:__ZN10GameObject23VirtualRedirectTransferER24GenerateTypeTreeTransfer
5477:__ZN10GameObject23VirtualRedirectTransferER14SafeBinaryRead
5478:__ZN10GameObject8TransferI14SafeBinaryReadEEvRT_
5479:__ZN10GameObject18TransferComponentsI14SafeBinaryReadEEvRT_
5480:__ZN14SafeBinaryRead21TransferSTLStyleArrayI13dynamic_arrayINSt3__24pairIi12ImmediatePtrIN5Unity9ComponentEEEELm0EEEEvRT_17TransferMetaFlags
5481:__ZN14SafeBinaryRead21TransferSTLStyleArrayI13dynamic_arrayIN10GameObject13ComponentPairELm0EEEEvRT_17TransferMetaFlags
5482:__ZN12ImmediatePtrIN5Unity9ComponentEE8TransferI14SafeBinaryReadEEvRT_
5483:__ZN14SafeBinaryRead8TransferIN10GameObject13ComponentPairEEEvRT_PKc17TransferMetaFlags
5484:__ZN15SerializeTraitsINSt3__24pairIi12ImmediatePtrIN5Unity9ComponentEEEEE8TransferI14SafeBinaryReadEEvRS6_RT_
5485:__ZN10GameObject8TransferI24GenerateTypeTreeTransferEEvRT_
5486:__ZN10GameObject18TransferComponentsI24GenerateTypeTreeTransferEEvRT_
5487:__ZN10GameObject18TransferComponentsI17RemapPPtrTransferEEvRT_
5488:__ZN17RemapPPtrTransfer8TransferI13dynamic_arrayIN10GameObject13ComponentPairELm0EEEEvRT_PKc17TransferMetaFlags
5489:__ZN10GameObject8TransferI18StreamedBinaryReadEEvRT_
5490:__ZN10GameObject18TransferComponentsI18StreamedBinaryReadEEvRT_
5491:__ZN18StreamedBinaryRead21TransferSTLStyleArrayI13dynamic_arrayIN10GameObject13ComponentPairELm0EEEEvRT_17TransferMetaFlags
5492:__ZN12ImmediatePtrIN5Unity9ComponentEE8TransferI18StreamedBinaryReadEEvRT_
5493:__ZN10GameObject8TransferI19StreamedBinaryWriteEEvRT_
5494:__ZN10GameObject18TransferComponentsI19StreamedBinaryWriteEEvRT_
5495:__Z17IsObjectAvailablei
5496:__ZN17PersistentManager17IsObjectAvailableEi
5497:__ZNK14SerializedFile7GetTypeEx
5498:__ZN12BaseRendererD2Ev
5499:__ZN12BaseRenderer23RendererCullingCallbackEv
5500:__ZN12BaseRenderer17GetSortingGroupIDEj
5501:__ZN12BaseRenderer17SetSortingGroupIDEjj
5502:__ZN12BaseRenderer20GetSortingGroupOrderEj
5503:__ZN12BaseRenderer20SetSortingGroupOrderEjj
5504:__ZNK12BaseRenderer21GetGlobalLayeringDataEj
5505:__ZN12BaseRenderer21SetGlobalLayeringDataE18GlobalLayeringDataj
5506:__ZNK6Camera22GetWorldToCameraMatrixEv
5507:__ZN33RendererCullingCallbackPropertiesC2ERK6CameraRK10Matrix4x4f
5508:__ZNK9Transform11GetRotationEv
5509:__ZNK6Camera33CalculateFarPlaneWorldSpaceLengthEv
5510:__ZNK6Camera16GetCullingMatrixEv
5511:__ZNK6Camera20GetWorldToClipMatrixEv
5512:__ZNK6Camera19GetProjectionMatrixEv
5513:__ZN10Matrix4x4f8SetScaleERK8Vector3f
5514:__ZNK9Transform28GetWorldToLocalMatrixNoScaleEv
5515:__ZN10Matrix4x4fmLERKS_
5516:__ZN10Matrix4x4f14SetPerspectiveEffff
5517:__ZN10Matrix4x4f8SetOrthoEffffff
5518:__ZNK6Camera18ScreenToWorldPointERK8Vector3f21MonoOrStereoscopicEye
5519:__ZNK6Camera32GetFrustumPlaneSizeAtFixedAspectEff
5520:__ZNK6Camera24GetScreenViewportRectIntEb
5521:__ZNK6Camera26GetStereoWorldToClipMatrixE15StereoscopicEye
5522:__Z15CameraUnProjectRK8Vector3fRK10Matrix4x4fS4_RK5RectTIiERS_b
5523:__Z20RenderMultipleMeshesRK15RenderNodeQueueRK18RenderMultipleData16VertexInputMasks
5524:__ZN8DrawUtil24DrawMeshRawFromNodeQueueERK15RenderNodeQueuej16VertexInputMasksi
5525:__ZN8DrawUtil31CleanupDrawMeshRawFromNodeQueueER15RenderNodeQueuej
5526:__ZL13MeshExtractorPv16VertexInputMasksiRP17VertexDeclarationR11MeshBuffersR16DrawBuffersRangeRi
5527:__ZNK17InstancingBatcher15RenderInstancesERK15RenderNodeQueuePK17BatchInstanceDataj16VertexInputMasksPFbPvS6_iRP17VertexDeclarationR11MeshBuffersR16DrawBuffersRangeRiE
5528:__Z17RenderStaticBatchR9GfxDevice10Matrix4x4fRK13dynamic_arrayI7SubMeshLm0EERK11MeshBuffersPK17BatchInstanceDatamP17VertexDeclaration
5529:__ZN14BatchAllocator16AllocateInternalEPPvimmm
5530:__ZN14BatchAllocator6CommitE10MemLabelIdNS_15CommitClearModeE
5531:__ZN23DynamicVBOBufferManager13AcquireSharedER9GfxDevice15GfxBufferTargetmj
5532:__ZN16GeometryJobTasks11CreateFenceEb
5533:__Z30ProcessDynamicBatchGeometryJobP21SharedGeometryJobDataj
5534:__Z30CleanupDynamicBatchGeometryJobP21SharedGeometryJobData
5535:__ZNK17InstancingBatcher25FillInstanceBufferWithJobIN10Instancing14RenderLoopArgsEEEvR8JobFencePPvjjRKT_
5536:__ZL17InstanceBufferJobIN10Instancing14RenderLoopArgsEEvP21InstanceBufferJobDataIT_E
5537:__ZNK15InstancingProps35FillInstanceBufferDispatchConstantsIN10Instancing14RenderLoopArgsEEEvPPvjjRK19ShaderPropertySheetRKT_
5538:__ZN19SharedObjectFactoryI21InstanceBufferJobDataIN10Instancing14RenderLoopArgsEEE7DestroyEPS3_10MemLabelId
5539:__Z26DrawSpriteRawFromNodeQueueRK15RenderNodeQueuej16VertexInputMasksi
5540:__ZN8DrawUtil14DrawProceduralE16GfxPrimitiveTypeR9GfxBufferiii
5541:__ZN8DrawUtil14DrawProceduralE16GfxPrimitiveTypeii
5542:__ZN9GfxDevice28GetProceduralQuadIndexBufferEi
5543:__ZN8DrawUtil22DrawProceduralIndirectE16GfxPrimitiveTypeR9GfxBuffer15ComputeBufferIDj
5544:__ZN8DrawUtil22DrawProceduralIndirectE16GfxPrimitiveType15ComputeBufferIDj
5545:__ZN15SerializeTraitsI10ColorRGBAfE8TransferI14SafeBinaryReadEEvRS0_RT_
5546:__ZN10ColorRGBAf8TransferI24GenerateTypeTreeTransferEEvRT_
5547:__ZN12FlareManager8AddFlareENS_9OwnerTypeE
5548:__ZN12FlareManager11UpdateFlareEiP5FlareR9TransformbfRK10ColorRGBAffjj
5549:__ZN14SafeBinaryRead8TransferI8BitFieldEEvRT_PKc17TransferMetaFlags
5550:__ZN20dynamic_array_detail18dynamic_array_data4swapERS0_
5551:__ZN5LightD0Ev
5552:__ZN5Light17MainThreadCleanupEv
5553:__ZN5Light13AwakeFromLoadE17AwakeFromLoadMode
5554:__ZN5Light16CheckConsistencyEv
5555:__ZN5Light5ResetEv
5556:__ZNK5Light22GetTypeVirtualInternalEv
5557:__ZN5Light23VirtualRedirectTransferER19StreamedBinaryWrite
5558:__ZN5Light23VirtualRedirectTransferER18StreamedBinaryRead
5559:__ZN5Light23VirtualRedirectTransferER17RemapPPtrTransfer
5560:__ZN5Light23VirtualRedirectTransferER24GenerateTypeTreeTransfer
5561:__ZN5Light23VirtualRedirectTransferER14SafeBinaryRead
5562:__ZN5Light12AddToManagerEv
5563:__ZN5Light17RemoveFromManagerEv
5564:__ZN12LightManager11RemoveLightEP5Light
5565:__ZN11HaloManager10DeleteHaloEiP6Object
5566:__ZN15SharedLightData15UpdateTransformERK9Transform
5567:__ZN12LightManager8AddLightEP5Light
5568:__ZN5Light9SetupHaloEv
5569:__ZN5Light10SetupFlareEv
5570:__ZN12LightManager28IsLightTransformDataUpToDateEPK5Light
5571:__ZN12LightManager27UpdateAllLightTransformDataEv
5572:__ZN23TransformChangeDispatch28GetAndClearChangedTransformsE27TransformChangeSystemHandleR13dynamic_arrayI23TransformAccessReadOnlyLm0EEPN9profiling6MarkerE
5573:__ZN5Light25UpdateLightDataTransformsEv
5574:__ZN15SharedLightData7PrecalcEv
5575:__ZN15SharedLightData17PrecalcLightColorEb
5576:__Z31CorrelatedColorTemperatureToRGBf
5577:__Z24CalculateVertexLightDataRK15SharedLightDataR14GfxVertexLight
5578:__ZL31GetAndClearChangedTransformsJobP27GetChangedTransformsJobDatajPK23TransformAccessReadOnlyPKyj
5579:__ZN23TransformChangeDispatch40GetAndClearChangedAsBatchedJobs_InternalEyPFvPvjPK23TransformAccessReadOnlyPKyjES0_PN9profiling6MarkerE
5580:__Z40ConfigureBlockRangesWithMinIndicesPerJobP10BlockRangeii
5581:__ZN18BlockRangeInternal16PopLastNodeIndexEP10BlockRangeji
5582:__ZN18BlockRangeInternal25GetSizeFromLastBlockRangeEP10BlockRangej
5583:__Z43GetUniqueDependenciesAndClearHierarchyFencePP18TransformHierarchymP8JobFence
5584:__ZL8BatchJobP18BatchJobDataSingle
5585:__Z34ScheduleMultiDependencyJobInternalR8JobFenceR18JobBatchDispatcherPFvPvES3_PKS_j10MemLabelId
5586:__ZN11HaloManager7AddHaloENS_9OwnerTypeE
5587:__ZN11HaloManager10UpdateHaloEiR9Transform11ColorRGBA32fjP6Object
5588:__ZNSt3__26vectorIN11HaloManager8HaloDataENS_9allocatorIS2_EEE21__push_back_slow_pathIS2_EEvOT_
5589:__Z18IsLightPurelyBakedRK15SharedLightData
5590:__ZNK15SharedLightData29GetLightmappingMaskForRuntimeEv
5591:__ZNK9Transform28GetLocalToWorldMatrixNoScaleEv
5592:__ZN15SharedLightDataD2Ev
5593:__ZN19RenderEventsContextD2Ev
5594:__ZN19RenderEventsContext20RemoveCommandBuffersEi
5595:__ZN22RenderingCommandBuffer13ClearCommandsEv
5596:__ZN14GrowableBufferD2Ev
5597:__ZN17GPUFenceInternals7ReleaseEv
5598:__ZN15SharedLightDataC2ERKS_
5599:__ZN19RenderEventsContextC2ERKS_
5600:__ZN13dynamic_arrayIS_IP22RenderingCommandBufferLm0EELm0EE18resize_initializedEmRKS2_12ResizePolicy
5601:__ZN13dynamic_arrayIS_IjLm0EELm0EE18resize_initializedEmRKS0_12ResizePolicy
5602:__ZN22RenderingCommandBufferC2E10MemLabelIdRKS_
5603:__ZN14GrowableBufferC2ERKS_
5604:__ZN5Light8TransferI14SafeBinaryReadEEvRT_
5605:__ZNK15SharedLightData21DefaultInnerSpotAngleEv
5606:__ZN14ShadowSettings8TransferI14SafeBinaryReadEEvRT_
5607:__ZN17LightBakingOutput8TransferI14SafeBinaryReadEEvRT_
5608:__ZN16LightmapBakeMode8TransferI14SafeBinaryReadEEvRT_
5609:__ZN10Matrix4x4f8TransferI14SafeBinaryReadEEvRT_
5610:__ZN5Light8TransferI24GenerateTypeTreeTransferEEvRT_
5611:__ZN14ShadowSettings8TransferI24GenerateTypeTreeTransferEEvRT_
5612:__ZN17LightBakingOutput8TransferI24GenerateTypeTreeTransferEEvRT_
5613:__ZN10Matrix4x4f8TransferI24GenerateTypeTreeTransferEEvRT_
5614:__ZN5Light8TransferI17RemapPPtrTransferEEvRT_
5615:__ZN5Light8TransferI18StreamedBinaryReadEEvRT_
5616:__ZN14ShadowSettings8TransferI18StreamedBinaryReadEEvRT_
5617:__ZN17LightBakingOutput8TransferI18StreamedBinaryReadEEvRT_
5618:__ZN10Matrix4x4f8TransferI18StreamedBinaryReadEEvRT_
5619:__ZN5Light8TransferI19StreamedBinaryWriteEEvRT_
5620:__ZN14ShadowSettings8TransferI19StreamedBinaryWriteEEvRT_
5621:__ZN17LightBakingOutput8TransferI19StreamedBinaryWriteEEvRT_
5622:__ZN10Matrix4x4f8TransferI19StreamedBinaryWriteEEvRT_
5623:__ZN15SharedLightData5ResetEv
5624:__ZN14ShadowSettings5ResetEv
5625:__ZN15SharedLightData16CheckConsistencyEv
5626:__ZN5Light7PrecalcEv
5627:__ZN15SharedLightData22UpdateCookieTextureRefEv
5628:__ZN12LightManager19DirtyDispatchUpdateER5Light
5629:__ZN12LightManager24UpdateRealtimeLightIndexER5Light
5630:__ZN10TextureRef4InitEP7Textureb
5631:__ZN19RenderEventsContext23RemoveAllCommandBuffersEv
5632:__ZN11LightProbesD2Ev
5633:__ZN11LightProbesD0Ev
5634:__ZNK11LightProbes22GetTypeVirtualInternalEv
5635:__ZN11LightProbes23VirtualRedirectTransferER19StreamedBinaryWrite
5636:__ZN11LightProbes23VirtualRedirectTransferER18StreamedBinaryRead
5637:__ZN11LightProbes23VirtualRedirectTransferER17RemapPPtrTransfer
5638:__ZN11LightProbes23VirtualRedirectTransferER24GenerateTypeTreeTransfer
5639:__ZN11LightProbes23VirtualRedirectTransferER14SafeBinaryRead
5640:__ZN11LightProbes8TransferI14SafeBinaryReadEEvRT_
5641:__ZN11LightProbes14LightProbeData8TransferI14SafeBinaryReadEEvRT_
5642:__ZN14SafeBinaryRead21TransferSTLStyleArrayI13dynamic_arrayI20SphericalHarmonicsL2Lm0EEEEvRT_17TransferMetaFlags
5643:__ZN14SafeBinaryRead21TransferSTLStyleArrayI13dynamic_arrayI19LightProbeOcclusionLm0EEEEvRT_17TransferMetaFlags
5644:__ZN19LightProbeOcclusion8TransferI14SafeBinaryReadEEvRT_
5645:__ZN14SafeBinaryRead21TransferSTLStyleArrayI19StaticArrayTransferIiLi4EEEEvRT_17TransferMetaFlags
5646:__ZN14SafeBinaryRead21TransferSTLStyleArrayI19StaticArrayTransferIfLi4EEEEvRT_17TransferMetaFlags
5647:__ZN14SafeBinaryRead21TransferSTLStyleArrayI19StaticArrayTransferIaLi4EEEEvRT_17TransferMetaFlags
5648:__ZN20SphericalHarmonicsL28TransferI14SafeBinaryReadEEvRT_
5649:__ZN26ProbeSetTetrahedralization8TransferI14SafeBinaryReadEEvRT_
5650:__ZN14SafeBinaryRead21TransferSTLStyleArrayI13dynamic_arrayI13ProbeSetIndexLm0EEEEvRT_17TransferMetaFlags
5651:__ZN14SafeBinaryRead21TransferSTLStyleArrayI10vector_mapI7Hash128iNSt3__24lessIS2_EE13stl_allocatorINS3_4pairIS2_iEEL18MemLabelIdentifier89ELi16EEEEEvRT_17TransferMetaFlags
5652:__ZNSt3__26vectorINS_4pairI7Hash128iEE13stl_allocatorIS3_L18MemLabelIdentifier89ELi16EEE8__appendEm
5653:__ZN15SerializeTraitsINSt3__24pairI7Hash128iEEE8TransferI14SafeBinaryReadEEvRS3_RT_
5654:__ZN15SerializeTraitsI13ProbeSetIndexE8TransferI14SafeBinaryReadEEvRS0_RT_
5655:__ZN14SafeBinaryRead21TransferSTLStyleArrayI13dynamic_arrayI11TetrahedronLm0EEEEvRT_17TransferMetaFlags
5656:__ZN11Tetrahedron8TransferI14SafeBinaryReadEEvRT_
5657:__ZN10Matrix3x4f8TransferI14SafeBinaryReadEEvRT_
5658:__ZN11LightProbes8TransferI24GenerateTypeTreeTransferEEvRT_
5659:__ZN11LightProbes14LightProbeData8TransferI24GenerateTypeTreeTransferEEvRT_
5660:__ZN20SphericalHarmonicsL28TransferI24GenerateTypeTreeTransferEEvRT_
5661:__ZN15SerializeTraitsI19LightProbeOcclusionE8TransferI24GenerateTypeTreeTransferEEvRS0_RT_
5662:__ZN26ProbeSetTetrahedralization8TransferI24GenerateTypeTreeTransferEEvRT_
5663:__ZN11Tetrahedron8TransferI24GenerateTypeTreeTransferEEvRT_
5664:__ZN10Matrix3x4f8TransferI24GenerateTypeTreeTransferEEvRT_
5665:__ZN11LightProbes8TransferI17RemapPPtrTransferEEvRT_
5666:__ZN11LightProbes8TransferI18StreamedBinaryReadEEvRT_
5667:__ZN15SerializeTraitsIN11LightProbes14LightProbeDataEE8TransferI18StreamedBinaryReadEEvRS1_RT_
5668:__ZN18StreamedBinaryRead21TransferSTLStyleArrayI13dynamic_arrayI20SphericalHarmonicsL2Lm0EEEEvRT_17TransferMetaFlags
5669:__ZN18StreamedBinaryRead21TransferSTLStyleArrayI13dynamic_arrayI19LightProbeOcclusionLm0EEEEvRT_17TransferMetaFlags
5670:__ZN19LightProbeOcclusion8TransferI18StreamedBinaryReadEEvRT_
5671:__ZN18StreamedBinaryRead10ReadDirectEPvi
5672:__ZN12CachedReader4ReadEPvm
5673:__ZN20SphericalHarmonicsL28TransferI18StreamedBinaryReadEEvRT_
5674:__ZN26ProbeSetTetrahedralization8TransferI18StreamedBinaryReadEEvRT_
5675:__ZN18StreamedBinaryRead21TransferSTLStyleArrayI13dynamic_arrayI13ProbeSetIndexLm0EEEEvRT_17TransferMetaFlags
5676:__ZN18StreamedBinaryRead21TransferSTLStyleArrayI10vector_mapI7Hash128iNSt3__24lessIS2_EE13stl_allocatorINS3_4pairIS2_iEEL18MemLabelIdentifier89ELi16EEEEEvRT_17TransferMetaFlags
5677:__ZN18StreamedBinaryRead21TransferSTLStyleArrayI13dynamic_arrayI11TetrahedronLm0EEEEvRT_17TransferMetaFlags
5678:__ZN11Tetrahedron8TransferI18StreamedBinaryReadEEvRT_
5679:__ZN10Matrix3x4f8TransferI18StreamedBinaryReadEEvRT_
5680:__ZN11LightProbes8TransferI19StreamedBinaryWriteEEvRT_
5681:__ZN11LightProbes14LightProbeData8TransferI19StreamedBinaryWriteEEvRT_
5682:__ZN20SphericalHarmonicsL28TransferI19StreamedBinaryWriteEEvRT_
5683:__Z13TransferArrayILi4Ei19StreamedBinaryWriteEmRAT__T0_PKcRT1_
5684:__Z13TransferArrayILi4Ea19StreamedBinaryWriteEmRAT__T0_PKcRT1_
5685:__ZN11Tetrahedron8TransferI19StreamedBinaryWriteEEvRT_
5686:__ZN15SerializeTraitsI13dynamic_arrayI13ProbeSetIndexLm0EEE8TransferI19StreamedBinaryWriteEEvRS2_RT_
5687:__ZN10Matrix3x4f8TransferI19StreamedBinaryWriteEEvRT_
5688:__ZN15ReflectionProbe13AwakeFromLoadE17AwakeFromLoadMode
5689:__ZN15ReflectionProbe16CheckConsistencyEv
5690:__ZN15ReflectionProbe5ResetEv
5691:__ZNK15ReflectionProbe22GetTypeVirtualInternalEv
5692:__ZN15ReflectionProbe23VirtualRedirectTransferER19StreamedBinaryWrite
5693:__ZN15ReflectionProbe23VirtualRedirectTransferER18StreamedBinaryRead
5694:__ZN15ReflectionProbe23VirtualRedirectTransferER17RemapPPtrTransfer
5695:__ZN15ReflectionProbe23VirtualRedirectTransferER24GenerateTypeTreeTransfer
5696:__ZN15ReflectionProbe23VirtualRedirectTransferER14SafeBinaryRead
5697:__ZN15ReflectionProbe12AddToManagerEv
5698:__ZN15ReflectionProbe17RemoveFromManagerEv
5699:__ZN23TextureStreamingManager18RequestLoadAllMipsEP7Textureb
5700:__ZN16ReflectionProbes11RemoveProbeE4PPtrI15ReflectionProbeE
5701:__ZNK15ReflectionProbe10GetTextureEv
5702:__ZN16ReflectionProbes22ForceProbeToUseTextureER15ReflectionProbeP7Texture
5703:__Z35GetTextureDecodeValuesWithIntensity16TextureUsageMode17TextureColorSpace10ColorSpacef
5704:__ZN9Scripting19ScriptingWrapperForEP6Object
5705:__ZNSt3__25dequeI18ReflectionProbeJob13stl_allocatorIS1_L18MemLabelIdentifier58ELi16EEE19__add_back_capacityEv
5706:__ZNSt3__214__split_bufferIP18ReflectionProbeJob13stl_allocatorIS2_L18MemLabelIdentifier58ELi16EEE9push_backEOS2_
5707:__ZNSt3__214__split_bufferIP18ReflectionProbeJob13stl_allocatorIS2_L18MemLabelIdentifier58ELi16EEE10push_frontEOS2_
5708:__ZN16ReflectionProbes8AddProbeE4PPtrI15ReflectionProbeE
5709:__ZN16ReflectionProbes8ScheduleEN18ReflectionProbeJob7JobTypeEP15ReflectionProbei
5710:__ZN15ReflectionProbe8TransferI14SafeBinaryReadEEvRT_
5711:__ZN15ReflectionProbe8TransferI24GenerateTypeTreeTransferEEvRT_
5712:__ZN15ReflectionProbe8TransferI18StreamedBinaryReadEEvRT_
5713:__ZN15ReflectionProbe8TransferI19StreamedBinaryWriteEEvRT_
5714:__ZN21LightProbeProxyVolume27ValidateBoundingBoxSettingsEv
5715:__ZNK9Transform21GetWorldToLocalMatrixEv
5716:__ZN26LightProbeProxyVolumeUtilsL27ComputeLocalAABBOnHierarchyERK10Matrix4x4fR9TransformR10MinMaxAABB
5717:__ZN8Renderer29GetTransformInfoAndUpdateSlowEv
5718:__ZNK4AABB17CalculateVerticesEP8Vector3f
5719:__ZN21RendererUpdateManager20UpdateSingleRendererER8RendererR13RendererScene
5720:__Z28CalculateGlobalMatrixInverse23TransformAccessReadOnly
5721:__ZN6CameraD2Ev
5722:__ZN6CameraD0Ev
5723:__ZN6Camera17MainThreadCleanupEv
5724:__ZN6Camera13AwakeFromLoadE17AwakeFromLoadMode
5725:__ZN6Camera16CheckConsistencyEv
5726:__ZN6Camera5ResetEv
5727:__ZNK6Camera22GetTypeVirtualInternalEv
5728:__ZN6Camera23VirtualRedirectTransferER19StreamedBinaryWrite
5729:__ZN6Camera23VirtualRedirectTransferER18StreamedBinaryRead
5730:__ZN6Camera23VirtualRedirectTransferER17RemapPPtrTransfer
5731:__ZN6Camera23VirtualRedirectTransferER24GenerateTypeTreeTransfer
5732:__ZN6Camera23VirtualRedirectTransferER14SafeBinaryRead
5733:__ZN6Camera12AddToManagerEv
5734:__ZN6Camera17RemoveFromManagerEv
5735:__ZN27IntermediateRendererManager26ClearIntermediateRenderersEim
5736:__ZN13RenderManager12RemoveCameraEP6Camera
5737:__ZL19CompareCameraDepthsRK4PPtrI6CameraES3_
5738:__ZNSt3__26__sortIRPFbRK4PPtrI6CameraES5_EPS3_EEvT0_SA_T_
5739:__ZNSt3__27__sort4IRPFbRK4PPtrI6CameraES5_EPS3_EEjT0_SA_SA_SA_T_
5740:__ZNSt3__218__insertion_sort_3IRPFbRK4PPtrI6CameraES5_EPS3_EEvT0_SA_T_
5741:__ZNSt3__227__insertion_sort_incompleteIRPFbRK4PPtrI6CameraES5_EPS3_EEbT0_SA_T_
5742:__ZN13RenderManager9AddCameraEP6Camera
5743:__ZN6Camera11ResetAspectEv
5744:__ZN6Camera38InitializePreviousViewProjectionMatrixEv
5745:__ZN6Camera8TransferI14SafeBinaryReadEEvRT_
5746:__ZN6Camera8TransferI24GenerateTypeTreeTransferEEvRT_
5747:__ZN6Camera8TransferI18StreamedBinaryReadEEvRT_
5748:__ZN6Camera8TransferI19StreamedBinaryWriteEEvRT_
5749:__ZN6Camera47CalculateProjectionParamsFromPhysicalPropertiesEv
5750:__ZN13MonoBehaviour33AddImageEffectCallbacksToManagersEv
5751:__Z30scripting_method_has_attribute18ScriptingMethodPtr17ScriptingClassPtr
5752:__ZN13MonoBehaviour17RenderImageFilterEPN5Unity9ComponentEP13RenderTextureS4_
5753:__ZN12ImageFilters14AddImageFilterERK11ImageFilter
5754:__ZN12ImageFilters17RemoveImageFilterERK11ImageFilter
5755:__ZNSt3__26vectorI11ImageFilterNS_9allocatorIS1_EEE6insertENS_11__wrap_iterIPKS1_EERS6_
5756:__ZN13MonoBehaviour30InvokeMethodOrCoroutineCheckedE18ScriptingMethodPtr18ScriptingObjectPtr
5757:__ZN19ScriptingInvocationC2E18ScriptingObjectPtr18ScriptingMethodPtr
5758:__ZN13MonoBehaviour30InvokeMethodOrCoroutineCheckedE18ScriptingMethodPtr18ScriptingObjectPtrP21ScriptingExceptionPtr
5759:__Z11IsCoroutine18ScriptingMethodPtrRK22CommonScriptingClasses
5760:__ZN13MonoBehaviour24TryCreateAndRunCoroutineE18ScriptingObjectPtr18ScriptingMethodPtrPP9Coroutine
5761:__ZN9Coroutine3RunEPb
5762:__ZN9Coroutine16CleanupCoroutineEPv
5763:__ZN9Coroutine14InvokeMoveNextEP21ScriptingExceptionPtr
5764:__ZN9Coroutine23ProcessCoroutineCurrentEv
5765:__ZN9Coroutine17ContinueCoroutineEP6ObjectPv
5766:__Z11CallDelayedPF15CallObjectStateP6ObjectPvE4PPtrIS0_EfS2_fPFS_S2_EN18DelayedCallManager15DelayedCallModeE
5767:__ZN9Coroutine35HandleIEnumerableCurrentReturnValueE18ScriptingObjectPtr
5768:__ZN9CoroutineC2Ev
5769:__ZN6Camera21CleanupAfterRenderingEPK11CullResults
5770:__ZN15LODGroupManager20DestroyCameraLODDataEi
5771:__Z22CleanupAfterRenderLoopR10RenderLoop
5772:__ZN19RenderBufferManager8Textures17ReleaseTempBufferEP13RenderTexture
5773:__Z19ClearShadowMapCacheP14ShadowMapCache
5774:__ZNSt3__26__treeINS_12__value_typeIi17ShadowCachingDataEENS_19__map_value_compareIiS3_NS_4lessIiEELb1EEE13stl_allocatorIS3_L18MemLabelIdentifier71ELi16EEE7destroyEPNS_11__tree_nodeIS3_PvEE
5775:__ZNK4core8hash_setINS_4pairIK17RenderTextureDescPN19RenderBufferManager8Textures12TextureEntryELb0EEENS_9hash_pairINS5_9KeyHasherES3_S7_EENS_10equal_pairINSt3__28equal_toIS2_EES3_S7_EEE6lookupIS2_SG_EEPNSH_4nodeERKT_RKT0_
5776:__ZN4core8hash_mapI17RenderTextureDescPN19RenderBufferManager8Textures12TextureEntryENS3_9KeyHasherENSt3__28equal_toIS1_EEE15insert_internalIRKS1_RKS5_EENS_4pairINS_8hash_setINSG_ISC_S5_Lb0EEENS_9hash_pairIS6_SC_S5_EENS_10equal_pairIS9_SC_S5_EEE13node_iteratorISI_EEbLb0EEEOT_OT0_
5777:__ZN13RenderTexture21SwitchOutOfFastMemoryEb
5778:__ZN4core8hash_setINS_4pairIK17RenderTextureDescPN19RenderBufferManager8Textures12TextureEntryELb0EEENS_9hash_pairINS5_9KeyHasherES3_S7_EENS_10equal_pairINSt3__28equal_toIS2_EES3_S7_EEE6resizeEi
5779:__ZN9ShaderLab23ClearGrabPassFrameStateEv
5780:__ZN19SharedRendererSceneD2Ev
5781:__ZN17LightProbeContextD2Ev
5782:__ZN19SharedObjectFactoryI20SharedLightProbeDataE7DestroyEPS0_10MemLabelId
5783:__ZN17LightProbeContextD0Ev
5784:__Z16DeleteRenderLoopP10RenderLoop
5785:__Z21DestroyShadowMapCacheP14ShadowMapCache
5786:__ZN16GraphicsSettingsD2Ev
5787:__ZN16GraphicsSettingsD0Ev
5788:__ZN16GraphicsSettings10SmartResetEv
5789:__ZNK16GraphicsSettings22GetTypeVirtualInternalEv
5790:__ZN16GraphicsSettings23VirtualRedirectTransferER19StreamedBinaryWrite
5791:__ZN16GraphicsSettings23VirtualRedirectTransferER18StreamedBinaryRead
5792:__ZN16GraphicsSettings23VirtualRedirectTransferER17RemapPPtrTransfer
5793:__ZN16GraphicsSettings23VirtualRedirectTransferER24GenerateTypeTreeTransfer
5794:__ZN16GraphicsSettings23VirtualRedirectTransferER14SafeBinaryRead
5795:__ZN16GraphicsSettings8TransferI14SafeBinaryReadEEvRT_
5796:__ZN21BuiltinShaderSettings8TransferI14SafeBinaryReadEEvRT_
5797:__ZN14SafeBinaryRead21TransferSTLStyleArrayINSt3__26vectorI4PPtrI6ShaderE13stl_allocatorIS5_L18MemLabelIdentifier58ELi16EEEEEEvRT_17TransferMetaFlags
5798:__ZN14SafeBinaryRead21TransferSTLStyleArrayINSt3__26vectorI4PPtrI23ShaderVariantCollectionE13stl_allocatorIS5_L18MemLabelIdentifier58ELi16EEEEEEvRT_17TransferMetaFlags
5799:__ZN20TierGraphicsSettings8TransferI14SafeBinaryReadEEvRT_
5800:__ZN14SafeBinaryRead21TransferSTLStyleArrayI13dynamic_arrayI21PlatformShaderDefinesLm0EEEEvRT_17TransferMetaFlags
5801:__ZN5Light17PrecalcLightColorEb
5802:__ZN21PlatformShaderDefines8TransferI14SafeBinaryReadEEvRT_
5803:__Z14resize_trimmedINSt3__26vectorI4PPtrI23ShaderVariantCollectionE13stl_allocatorIS4_L18MemLabelIdentifier58ELi16EEEEEvRT_j
5804:__ZNSt3__26vectorI4PPtrI23ShaderVariantCollectionE13stl_allocatorIS3_L18MemLabelIdentifier58ELi16EEE6assignINS_11__wrap_iterIPS3_EEEENS_9enable_ifIXaasr21__is_forward_iteratorIT_EE5valuesr16is_constructibleIS3_NS_15iterator_traitsISD_E9referenceEEE5valueEvE4typeESD_SD_
5805:__ZNSt3__26vectorI4PPtrI23ShaderVariantCollectionE13stl_allocatorIS3_L18MemLabelIdentifier58ELi16EEE8__appendEm
5806:__ZN16GraphicsSettings8TransferI24GenerateTypeTreeTransferEEvRT_
5807:__ZN24GenerateTypeTreeTransfer8TransferI21BuiltinShaderSettingsEEvRT_PKc17TransferMetaFlags
5808:__ZN20TierGraphicsSettings8TransferI24GenerateTypeTreeTransferEEvRT_
5809:__ZN24GenerateTypeTreeTransfer8TransferI21PlatformShaderDefinesEEvRT_PKc17TransferMetaFlags
5810:__ZN16GraphicsSettings8TransferI17RemapPPtrTransferEEvRT_
5811:__ZN16GraphicsSettings8TransferI18StreamedBinaryReadEEvRT_
5812:__ZN20TierGraphicsSettings8TransferI18StreamedBinaryReadEEvRT_
5813:__ZN18StreamedBinaryRead21TransferSTLStyleArrayI13dynamic_arrayI21PlatformShaderDefinesLm0EEEEvRT_17TransferMetaFlags
5814:__ZN15SerializeTraitsI12fixed_bitsetILi33EjEE8TransferI18StreamedBinaryReadEEvRS1_RT_
5815:__ZN16GraphicsSettings8TransferI19StreamedBinaryWriteEEvRT_
5816:__ZN20TierGraphicsSettings8TransferI19StreamedBinaryWriteEEvRT_
5817:__ZN21PlatformShaderDefines8TransferI19StreamedBinaryWriteEEvRT_
5818:__ZN14RenderSettingsD2Ev
5819:__ZN14RenderSettingsD0Ev
5820:__ZN14RenderSettings13AwakeFromLoadE17AwakeFromLoadMode
5821:__ZN14RenderSettings16CheckConsistencyEv
5822:__ZN14RenderSettings5ResetEv
5823:__ZNK14RenderSettings22GetTypeVirtualInternalEv
5824:__ZN14RenderSettings23VirtualRedirectTransferER19StreamedBinaryWrite
5825:__ZN14RenderSettings23VirtualRedirectTransferER18StreamedBinaryRead
5826:__ZN14RenderSettings23VirtualRedirectTransferER17RemapPPtrTransfer
5827:__ZN14RenderSettings23VirtualRedirectTransferER24GenerateTypeTreeTransfer
5828:__ZN14RenderSettings23VirtualRedirectTransferER14SafeBinaryRead
5829:__ZN14RenderSettings8TransferI14SafeBinaryReadEEvRT_
5830:__ZN14RenderSettings18TransferDeprecatedI14SafeBinaryReadEEvRT_
5831:__ZN14RenderSettings8TransferI24GenerateTypeTreeTransferEEvRT_
5832:__ZN14RenderSettings8TransferI17RemapPPtrTransferEEvRT_
5833:__ZN14RenderSettings8TransferI18StreamedBinaryReadEEvRT_
5834:__ZN14RenderSettings8TransferI19StreamedBinaryWriteEEvRT_
5835:__ZNK22BuiltinResourceManager21GetResourceInstanceIDEPKN5Unity4TypeEN4core16basic_string_refIcEE
5836:__ZN14RenderSettings17UpdateGlobalStateEv
5837:__ZN14RenderSettings23UpdateFinalAmbientProbeEv
5838:__ZN14RenderSettings14ApplyFogParamsEv
5839:__ZN16ReflectionProbes17SetDefaultTextureE4PPtrI7CubemapEf
5840:__ZN14RenderSettings27UpdateIndirectSpecularColorEv
5841:__ZN16ReflectionProbes16UpdateSampleDataEv
5842:__ZNK16ReflectionProbes21GenerateDefaultSampleEv
5843:__ZN16ReflectionProbes11UpdateProbeER15ReflectionProbem
5844:__ZNK10GameObject16GetCullSceneMaskEv
5845:__ZNK28ReflectionProbeAnchorManager14IsAnchorCachedERK9Transform
5846:__ZN19RuntimeSceneManager14GetActiveSceneEv
5847:__ZN20SphericalHarmonicsL27SetZeroEv
5848:__ZN20SphericalHarmonicsL211AddWeightedERKS_f
5849:__ZN20SphericalHarmonicsL215AddAmbientLightERK10ColorRGBAf
5850:__ZN20SphericalHarmonicsL219AddDirectionalLightERKN4math7_float3ERKNS0_7_float4E
5851:__ZN14ImageReference10ClearImageERK10ColorRGBAf14ImageClearMode
5852:__ZN17AmbientProbeBaker29CalculateAmbientFaceProcessorclER5ImageiRK8Vector3fS5_S5_b
5853:__ZN6prcore15ClearImageFloatER14ImageReferenceRK10ColorRGBAf14ImageClearMode
5854:__ZN6prcore10ClearImageER14ImageReferenceRK11ColorRGBA3214ImageClearMode
5855:__ZN6prcore23CalculateIntClearParamsIyEEvRK17TextureFormatInfo14ImageClearModeRK11ColorRGBA32RT_S9_
5856:__ZN6prcore23CalculateIntClearParamsIjEEvRK17TextureFormatInfo14ImageClearModeRK11ColorRGBA32RT_S9_
5857:__ZN6prcoreL11inner_clearILj1EjEEvPhmyy
5858:__ZN6prcoreL11inner_clearILj2EjEEvPhmyy
5859:__ZN6prcoreL11inner_clearILj3EjEEvPhmyy
5860:__ZN6prcoreL11inner_clearILj4EjEEvPhmyy
5861:__ZN6prcoreL11inner_clearILj6EyEEvPhmyy
5862:__ZN6prcoreL11inner_clearILj8EyEEvPhmyy
5863:__Z13SetImagePixelR14ImageReferenceii15TextureWrapModeS1_RK10ColorRGBAf
5864:__ZN6prcoreL15ClearBlockFloatIjEEvR14ImageReferenceRKS1_j
5865:__Z10WritePixelPhRK10ColorRGBAf14GraphicsFormat
5866:__Z10WritePixelPhRK11ColorRGBA3214GraphicsFormat
5867:__ZN20SphericalHarmonicsL217AddToCoefficientsEPKN4math7_float4EPKf
5868:__ZN18ShadowMapJobHeaderD0Ev
5869:__ZN18ShadowMapJobHeaderD2Ev
5870:__ZN13dynamic_arrayI9IndexListLm0EEixEm
5871:__Z16DestroyIndexListR9IndexList
5872:__ZNK12SharedObjectI15SharedLightDataLb1E19SharedObjectFactoryIS0_EE7ReleaseEv
5873:__ZN13dynamic_arrayIS_I16ShadowCasterDataLm0EELm0EED2Ev
5874:__ZN21GfxDeviceAsyncCommand3ArgD2Ev
5875:__Z10destruct_nI13dynamic_arrayI16ShadowCasterDataLm0EEEvPT_m
5876:__ZL14atomic_releasePVi
5877:__ZN19SharedObjectFactoryI15SharedLightDataE7DestroyEPS0_10MemLabelId
5878:__Z11CopyTextureP7TextureS0_
5879:__ZL29CheckCopyTextureBaseArgumentsP7TextureS0_
5880:__ZL27CheckCopyTextureSampleCountP7TextureS0_
5881:__ZN9Texture2D18UnshareTextureDataEv
5882:__Z28EnsureRenderTextureIsCreatedP13RenderTexture
5883:__ZN19RenderBufferManager8Textures13GetTempBufferEii17DepthBufferFormat14GraphicsFormatS2_NS0_5FlagsE14VRTextureUsagei23RenderTextureMemoryless
5884:__ZN19RenderBufferManager8Textures13GetTempBufferE17RenderTextureDesc
5885:__ZN13RenderTexture21FixInvalidDescOptionsER17RenderTextureDesc
5886:__ZN6Object27AllocateAndAssignInstanceIDEPS_
5887:__ZN13RenderTexture20SetRenderTextureDescERK17RenderTextureDesc
5888:__ZN13RenderTexture18SetUseDynamicScaleEb
5889:__ZN13RenderTexture6CreateENS_11CreateFlagsE
5890:__ZNK13RenderTexture8IsActiveEv
5891:__ZN13RenderTexture15DiscardContentsEbb
5892:__ZN13RenderTexture24CorrectVerticalTexelSizeEb
5893:__ZN13RenderTexture20SwitchIntoFastMemoryE11SurfaceType12SurfaceUsage15FastMemoryFlagsbf
5894:__ZN13RenderTexture8SetWidthEi
5895:__ZN13RenderTexture9SetHeightEi
5896:__ZN13RenderTexture9SetMipMapEb
5897:__ZN13RenderTexture14SetMipMapCountEi
5898:__ZN13RenderTexture16SetBindTextureMSEb
5899:__ZN13RenderTexture12SetDimensionE16TextureDimension
5900:__ZN13RenderTextureC2E10MemLabelId18ObjectCreationMode
5901:__ZN7TextureC2E10MemLabelId18ObjectCreationMode
5902:__ZN13RenderTextureD2Ev
5903:__ZN13RenderTextureD0Ev
5904:__ZN13RenderTexture17MainThreadCleanupEv
5905:__ZN13RenderTexture13AwakeFromLoadE17AwakeFromLoadMode
5906:__ZN7Texture16CheckConsistencyEv
5907:__ZN7Texture5ResetEv
5908:__ZNK13RenderTexture22GetTypeVirtualInternalEv
5909:__ZN7Texture7SetNameEPKc
5910:__ZNK13RenderTexture20GetRuntimeMemorySizeEv
5911:__ZN13RenderTexture23VirtualRedirectTransferER19StreamedBinaryWrite
5912:__ZN13RenderTexture23VirtualRedirectTransferER18StreamedBinaryRead
5913:__ZN13RenderTexture23VirtualRedirectTransferER24GenerateTypeTreeTransfer
5914:__ZN13RenderTexture23VirtualRedirectTransferER14SafeBinaryRead
5915:__ZN13RenderTexture13ApplySettingsEv
5916:__ZNK13RenderTexture21GetShadowSamplingModeEv
5917:__ZNK13RenderTexture14IsDepthTextureEv
5918:__ZNK13RenderTexture12IsMemorylessEv
5919:__ZNK13RenderTexture19IsBoundMultisampledEv
5920:__ZNK13RenderTexture12IsUAVAllowedEv
5921:__ZNK13RenderTexture12GetDataWidthEv
5922:__ZNK13RenderTexture13GetDataHeightEv
5923:__ZNK13RenderTexture20GetTextureLayerCountEv
5924:__ZNK13RenderTexture12GetDimensionEv
5925:__ZNK13RenderTexture10GetVRUsageEv
5926:__ZN7Texture33VerifyFileTextureUploadCompletionEv
5927:__ZNK13RenderTexture16ExtractImageImplEP14ImageReference13ImageBlitModebi
5928:__ZNK13RenderTexture37IsBoundMultisampledOnSecondaryTextureEv
5929:__ZNK15TextureSettings5ApplyER9GfxDevice9TextureID16TextureDimensionb17TextureColorSpace18ShadowSamplingModeb
5930:__ZN13RenderTexture8TransferI14SafeBinaryReadEEvRT_
5931:__ZN7Texture8TransferI14SafeBinaryReadEEvRT_
5932:__Z17GetGraphicsFormat19RenderTextureFormat22RenderTextureReadWrite
5933:__ZN15TextureSettings8TransferI14SafeBinaryReadEEvRT_
5934:__Z17GetGraphicsFormat19RenderTextureFormat17TextureColorSpace
5935:__ZN13RenderTexture8TransferI24GenerateTypeTreeTransferEEvRT_
5936:__ZN7Texture8TransferI24GenerateTypeTreeTransferEEvRT_
5937:__ZN15TextureSettings8TransferI24GenerateTypeTreeTransferEEvRT_
5938:__ZN13RenderTexture8TransferI18StreamedBinaryReadEEvRT_
5939:__ZN7Texture8TransferI18StreamedBinaryReadEEvRT_
5940:__ZN15TextureSettings8TransferI18StreamedBinaryReadEEvRT_
5941:__ZN13RenderTexture8TransferI19StreamedBinaryWriteEEvRT_
5942:__ZN7Texture8TransferI19StreamedBinaryWriteEEvRT_
5943:__ZN15TextureSettings8TransferI19StreamedBinaryWriteEEvRT_
5944:__ZN15TextureSettings16CheckConsistencyEv
5945:__ZN6Camera24OnRenderTextureDestroyedEP13RenderTexture
5946:__ZN25CameraStackRenderingState16GetTargetTextureEv
5947:__ZNSt3__26__treeINS_12__value_typeI9TextureIDP7TextureEENS_19__map_value_compareIS2_S5_NS_4lessIS2_EELb1EEE13stl_allocatorIS5_L18MemLabelIdentifier24ELi16EEE14__erase_uniqueIS2_EEmRKT_
5948:__ZN7Texture17MainThreadCleanupEv
5949:__ZN19ShaderPropertySheet26SetMatchingTextureIDToNoneE9TextureID
5950:__ZN25CameraStackRenderingState32GetCameraStackTempEyeTextureDescEv
5951:__ZN25CameraStackRenderingState29GetCameraStackTempTextureDescEv
5952:__ZN19StereoRenderTexture12AllocateTempER17RenderTextureDesc
5953:__Z22GetColorGraphicsFormatbbb
5954:__ZN6Camera23SetTargetTextureBuffersEP13RenderTextureiPK12ObjectHandleI17RenderSurface_TagP17RenderSurfaceBaseES6_PS1_
5955:__ZN7Texture15ThreadedCleanupEv
5956:__ZN7TextureD2Ev
5957:__ZNK7Texture22GetTypeVirtualInternalEv
5958:__ZN7Texture23VirtualRedirectTransferER19StreamedBinaryWrite
5959:__ZN7Texture23VirtualRedirectTransferER18StreamedBinaryRead
5960:__ZN7Texture23VirtualRedirectTransferER24GenerateTypeTreeTransfer
5961:__ZN7Texture23VirtualRedirectTransferER14SafeBinaryRead
5962:__ZN7Texture13ApplySettingsEv
5963:__ZNK15TextureSettings5ApplyE9TextureID16TextureDimensionb17TextureColorSpace18ShadowSamplingModeb
5964:__ZN11NamedObjectC2E10MemLabelId18ObjectCreationMode
5965:__ZN6ObjectC2E10MemLabelId18ObjectCreationMode
5966:__ZN14ConstantString12create_emptyEv
5967:__ZN20BaseBehaviourManagerD2Ev
5968:__ZNSt3__26__treeINS_12__value_typeIiNS_4pairIP4ListI8ListNodeI9BehaviourEES8_EEEENS_19__map_value_compareIiSA_NS_4lessIiEELb1EEE13stl_allocatorISA_L18MemLabelIdentifier9ELi16EEE7destroyEPNS_11__tree_nodeISA_PvEE
5969:__ZN18DelayedCallManagerD2Ev
5970:__ZN18DelayedCallManagerD0Ev
5971:__ZN18DelayedCallManager17MainThreadCleanupEv
5972:__ZNK18DelayedCallManager22GetTypeVirtualInternalEv
5973:__ZN18DelayedCallManager6UpdateEi
5974:__ZN18DelayedCallManager15RemoveNoCleanupERKNS_8CallbackENSt3__221__tree_const_iteratorIS0_PNS3_11__tree_nodeIS0_PvEElEE
5975:__ZN18DelayedCallManager6RemoveERKNS_8CallbackENSt3__221__tree_const_iteratorIS0_PNS3_11__tree_nodeIS0_PvEElEE
5976:__ZN19ManagedTempMemScopeD2Ev
5977:__ZN19ManagedTempMemScopeC2Eb
5978:__ZN28BlockDoublingLinearAllocatorC2E10MemLabelId
5979:__ZN18DelayedCallManager8ClearAllEv
5980:__ZNSt3__26__treeIN18DelayedCallManager8CallbackENS_4lessIS2_EENS_9allocatorIS2_EEE7destroyEPNS_11__tree_nodeIS2_PvEE
5981:__ZN14Texture2DArrayD2Ev
5982:__ZN14Texture2DArrayD0Ev
5983:__ZN14Texture2DArray17MainThreadCleanupEv
5984:__ZN14Texture2DArray13AwakeFromLoadE17AwakeFromLoadMode
5985:__ZN14Texture2DArray21AwakeFromLoadThreadedEv
5986:__ZN14Texture2DArray5ResetEv
5987:__ZNK14Texture2DArray22GetTypeVirtualInternalEv
5988:__ZNK14Texture2DArray20GetRuntimeMemorySizeEv
5989:__ZN14Texture2DArray23VirtualRedirectTransferER19StreamedBinaryWrite
5990:__ZN14Texture2DArray23VirtualRedirectTransferER18StreamedBinaryRead
5991:__ZN14Texture2DArray23VirtualRedirectTransferER17RemapPPtrTransfer
5992:__ZN14Texture2DArray23VirtualRedirectTransferER24GenerateTypeTreeTransfer
5993:__ZN14Texture2DArray23VirtualRedirectTransferER14SafeBinaryRead
5994:__ZN14Texture2DArray13ApplySettingsEv
5995:__ZNK14Texture2DArray26CanReuploadDataToGfxDeviceEv
5996:__ZNK14Texture2DArray20GetTextureLayerCountEv
5997:__ZNK14Texture2DArray12GetDimensionEv
5998:__ZN14Texture2DArray34UpdateFileTextureUploadInstructionEP24TextureUploadInstructionj
5999:__ZNK14Texture2DArray13GetIsReadableEv
6000:__ZN14Texture2DArray19UnloadFromGfxDeviceEb
6001:__ZN14Texture2DArray17UploadToGfxDeviceEv
6002:__ZNK14Texture2DArray16ExtractImageImplEP14ImageReference13ImageBlitModebi
6003:__ZN7Texture25ReloadFromStorageIfNeededEPvb
6004:__ZN14Texture2DArray13UploadTextureEv
6005:__ZN17PersistentManager14ReloadFromDiskER6Object
6006:__ZNK7Texture41QueryPersistentManagerForDataAvailabilityEv
6007:__ZN15TextureSettings38ClearUnsupportedSettingsForColorFormatE13TextureFormat
6008:__ZN14Texture2DArray8TransferI14SafeBinaryReadEEvRT_
6009:__ZN7Texture14TransferFormatI14SafeBinaryReadEEvRT_iR14GraphicsFormat
6010:__ZN14SafeBinaryRead16TransferTypelessEPjPKc17TransferMetaFlags
6011:__ZN14Texture2DArray26CreatePixelDataWhenReadingEjjb
6012:__ZN14SafeBinaryRead20TransferTypelessDataEjPvi
6013:__ZN14SafeBinaryRead21TransferResourceImageE19ActiveResourceImagePKcR13StreamingInfoPvjiPKN5Unity4TypeE
6014:__ZN13StreamingInfo8TransferI14SafeBinaryReadEEvRT_
6015:__ZN14Texture2DArray8TransferI24GenerateTypeTreeTransferEEvRT_
6016:__ZN24GenerateTypeTreeTransfer16TransferTypelessEPjPKc17TransferMetaFlags
6017:__ZN24GenerateTypeTreeTransfer21TransferResourceImageE19ActiveResourceImagePKcR13StreamingInfoPvjiPKN5Unity4TypeE
6018:__ZN13StreamingInfo8TransferI24GenerateTypeTreeTransferEEvRT_
6019:__ZN14Texture2DArray8TransferI18StreamedBinaryReadEEvRT_
6020:__ZN7Texture14TransferFormatI18StreamedBinaryReadEEvRT_iR14GraphicsFormat
6021:__ZN18StreamedBinaryRead16TransferTypelessEPjPKc17TransferMetaFlags
6022:__ZN18StreamedBinaryRead20TransferTypelessDataEjPvi
6023:__ZN18StreamedBinaryRead21TransferResourceImageE19ActiveResourceImagePKcR13StreamingInfoPvjiPKN5Unity4TypeE
6024:__ZN12CachedReader4SkipEm
6025:__ZN14Texture2DArray8TransferI19StreamedBinaryWriteEEvRT_
6026:__ZN19StreamedBinaryWrite16TransferTypelessEPjPKc17TransferMetaFlags
6027:__ZN19StreamedBinaryWrite20TransferTypelessDataEjPvi
6028:__ZN19StreamedBinaryWrite21TransferResourceImageE19ActiveResourceImagePKcR13StreamingInfoPvjiPKN5Unity4TypeE
6029:__ZN13StreamingInfo8TransferI19StreamedBinaryWriteEEvRT_
6030:__ZN12CachedWriter5WriteEPKvm
6031:__ZN7Texture16BeginAsyncUploadEjb
6032:__Z18AsyncUploadTextureR7Texturejb
6033:__ZN24TextureUploadInstruction4InitEP7Textureib
6034:__ZN18AsyncUploadManager23CreateQueueUploadHandleEv
6035:__ZL29CreateTextureForDirectLoadJobP24TextureUploadInstruction
6036:__ZL19PrecreateTextureJobP24TextureUploadInstruction
6037:__ZL40CreateTextureForDirectLoadJob_MainThreadP24TextureUploadInstruction
6038:__ZN18BackgroundJobQueue29ScheduleMainThreadJobInternalEPFvPvES0_
6039:__ZL22QueueTextureDirectLoadR9GfxDeviceP24TextureUploadInstruction
6040:__ZL26CalculateAsyncTextureSizesPK24TextureUploadInstructionRjS2_S2_
6041:__ZL32AsyncTextureReadCompleteCallbackbRK23AsyncUploadCallbackInfo
6042:__ZL38AsyncTextureProcessingCompleteCallbackR9GfxDeviceRK23AsyncUploadCallbackInfo
6043:__ZN18AsyncUploadManager16QueueUploadAssetEPKcN3VFS8FileSizeEjjRK18AsyncUploadHandlerRK12AssetContextPh13FileReadFlags
6044:__ZN18AsyncUploadManager16QueueUploadAssetE10AsyncFencePKcN3VFS8FileSizeEjjRK18AsyncUploadHandlerRK12AssetContextPh13FileReadFlags
6045:__ZL20DoCopyTextureDataJobP24TextureUploadInstruction
6046:__ZL38AsyncTextureProcessingFinaliseCallbackR9GfxDeviceRK23AsyncUploadCallbackInfo
6047:__ZL22GetTextureUploadParamsP24TextureUploadInstructionP23UploadTextureDataParams
6048:__Z19UploadTexture2DDataR9GfxDeviceRK23UploadTextureDataParams
6049:__Z17UploadCubemapData9TextureIDPhmiiii14GraphicsFormat18TextureUploadFlagsR9GfxDevice
6050:__ZL35FreeTextureUploadInstructionContextP24TextureUploadInstruction
6051:__Z16DecompressCrunchPKhRmR13TextureFormatiiii10MemLabelIdi
6052:__ZN4crnd17crnd_unpack_beginEPKvj
6053:__ZN4crnd21crnd_get_texture_infoEPKvjPNS_16crn_texture_infoE
6054:__ZN4crnd12crn_unpacker12unpack_levelEPKvjPPvjjj
6055:__ZN4crnd12crn_unpackerD2Ev
6056:__ZN4crndL20crnd_default_reallocEPvmPmbS0_
6057:__ZN4crnd11crnd_deleteINS_13prefix_coding14decoder_tablesEEEvPT_
6058:__ZN4crnd12crn_unpacker11unpack_dxt1EPPhjjj
6059:__ZN4crnd12crn_unpacker11unpack_dxt5EPPhjjj
6060:__ZN4crnd12crn_unpacker12unpack_dxt5aEPPhjjj
6061:__ZN4crnd12crn_unpacker10unpack_dxnEPPhjjj
6062:__ZN4crnd12crn_unpacker11unpack_etc1EPPhjjj
6063:__ZN4crnd12crn_unpacker12unpack_etc2aEPPhjjj
6064:__ZN4crnd16elemental_vector17increase_capacityEjbjPFvPvS1_jE
6065:__ZN4crnd12symbol_codec6decodeERKNS_25static_huffman_data_modelE
6066:__ZN4crnd11crnd_mallocEmPm
6067:__ZN4crnd12crn_unpacker11init_tablesEv
6068:__ZN4crnd12crn_unpacker15decode_palettesEv
6069:__ZN4crnd12crn_unpacker22decode_color_endpointsEv
6070:__ZN4crnd12crn_unpacker22decode_color_selectorsEv
6071:__ZN4crnd12crn_unpacker22decode_alpha_endpointsEv
6072:__ZN4crnd12crn_unpacker26decode_alpha_selectors_etcEv
6073:__ZN4crnd12crn_unpacker22decode_alpha_selectorsEv
6074:__ZN4crnd12symbol_codec32decode_receive_static_data_modelERNS_25static_huffman_data_modelE
6075:__ZN4crnd12symbol_codec11decode_bitsEj
6076:__ZN4crnd25static_huffman_data_model22prepare_decoder_tablesEv
6077:__ZN4crnd13prefix_coding14decoder_tables4initEjPKhj
6078:__Z28CalculateTexture2DUploadDataR9GfxDeviceRK23UploadTextureDataParamsR19Texture2DUploadData
6079:__Z29SkipMipLevelsForTextureUpload16TextureDimensioni13TextureFormatiRiS1_S1_bRmS2_bPK23TexturePlatformMetaData
6080:__Z19GetBytesForOnePixel13TextureFormat
6081:__ZL17DoScaledPaddedJobP24TextureUploadInstruction
6082:__ZN9TextureOpI11TextureDataE15ExtractMipLevelEPS0_S2_iibb
6083:__ZL15DoDeCruncherJobP24TextureUploadInstruction
6084:__ZL18DoCubemapMipmapJobP24TextureUploadInstruction
6085:__Z25ClampMipLevelToSafeLimitsiiiib
6086:__Z21SourceMipLevelForBlitiiii
6087:__Z23BlitCopyCompressedImage14GraphicsFormatPKhiiPhiib
6088:__ZN9TextureOpI11TextureDataE12ExtractImageEPS0_P14ImageReference13ImageBlitModebi
6089:__ZN17SharedTextureData32GetCrunchDecompressedTextureDataI11TextureDataEEbRKT_
6090:__ZN9TextureOpI17SharedTextureDataE12ExtractImageEPS0_P14ImageReference13ImageBlitModebi
6091:__Z27GetDecompressGraphicsFormat13TextureFormat
6092:__ZN5Image9CopyImageERK14ImageReferenceb
6093:__Z41DecompressNativeTextureFormatWithMipLevel14GraphicsFormatS_iiiPKjiiPj
6094:__ZNK14ImageReference9ClipImageEiiii
6095:__Z14PadImageBorderR14ImageReferenceii
6096:__ZN5Image8SetImageEii14GraphicsFormatb
6097:__ZN17SharedTextureData32GetCrunchDecompressedTextureDataIS_EEbRKT_
6098:__ZN17SharedTextureDataC2E10MemLabelId
6099:__ZL38AsyncTextureDirectReadCompleteCallbackbRK23AsyncUploadCallbackInfo
6100:__ZL40AsyncTextureDirectUploadCompleteCallbackR9GfxDeviceRK23AsyncUploadCallbackInfo
6101:__ZN18AsyncUploadManager28AbortUnusedQueueUploadHandleE10AsyncFence
6102:__ZL18EndTextureWriteJobP24TextureUploadInstruction
6103:__ZL44CreateTextureForDirectLoadJob_GraphicsThreadR9GfxDevice23GfxDeviceCallbackThreadPv
6104:__Z23CreateTexture2DThreadedRK23UploadTextureDataParamsRP19Texture2DUploadData
6105:__ZN9Texture3DD2Ev
6106:__ZN9Texture3DD0Ev
6107:__ZN9Texture3D17MainThreadCleanupEv
6108:__ZN9Texture3D13AwakeFromLoadE17AwakeFromLoadMode
6109:__ZNK9Texture3D22GetTypeVirtualInternalEv
6110:__ZN9Texture3D23VirtualRedirectTransferER19StreamedBinaryWrite
6111:__ZN9Texture3D23VirtualRedirectTransferER18StreamedBinaryRead
6112:__ZN9Texture3D23VirtualRedirectTransferER24GenerateTypeTreeTransfer
6113:__ZN9Texture3D23VirtualRedirectTransferER14SafeBinaryRead
6114:__ZNK9Texture3D12GetDimensionEv
6115:__ZN9Texture3D34UpdateFileTextureUploadInstructionEP24TextureUploadInstructionj
6116:__ZNK9Texture3D13GetIsReadableEv
6117:__ZN9Texture3D19UnloadFromGfxDeviceEb
6118:__ZN9Texture3D17UploadToGfxDeviceEv
6119:__ZNK9Texture3D16ExtractImageImplEP14ImageReference13ImageBlitModebi
6120:__ZN9Texture3D13UploadTextureEi
6121:__ZN9Texture3D8TransferI14SafeBinaryReadEEvRT_
6122:__ZN9Texture3D14DestroyTextureEv
6123:__ZN9Texture3D8TransferI24GenerateTypeTreeTransferEEvRT_
6124:__ZN9Texture3D8TransferI18StreamedBinaryReadEEvRT_
6125:__ZN9Texture3D8TransferI19StreamedBinaryWriteEEvRT_
6126:__ZN19CustomRenderTexture22ClearChildDependenciesEv
6127:__ZNSt3__26__treeI4PPtrI19CustomRenderTextureENS_4lessIS3_EENS_9allocatorIS3_EEE7destroyEPNS_11__tree_nodeIS3_PvEE
6128:__ZN9Texture2DD2Ev
6129:__ZN9Texture2DD0Ev
6130:__ZN9Texture2D17MainThreadCleanupEv
6131:__ZN9Texture2D13AwakeFromLoadE17AwakeFromLoadMode
6132:__ZN9Texture2D21AwakeFromLoadThreadedEv
6133:__ZN9Texture2D5ResetEv
6134:__ZNK9Texture2D22GetTypeVirtualInternalEv
6135:__ZNK9Texture2D20GetRuntimeMemorySizeEv
6136:__ZN9Texture2D23VirtualRedirectTransferER19StreamedBinaryWrite
6137:__ZN9Texture2D23VirtualRedirectTransferER18StreamedBinaryRead
6138:__ZN9Texture2D23VirtualRedirectTransferER17RemapPPtrTransfer
6139:__ZN9Texture2D23VirtualRedirectTransferER24GenerateTypeTreeTransfer
6140:__ZN9Texture2D23VirtualRedirectTransferER14SafeBinaryRead
6141:__ZN9Texture2D13ApplySettingsEv
6142:__ZNK9Texture2D20GetUnscaledTextureIDEv
6143:__ZNK9Texture2D11GetGPUWidthEv
6144:__ZNK9Texture2D12GetGPUHeightEv
6145:__ZNK9Texture2D16GetNpotTexelSizeEv
6146:__ZNK9Texture2D13IsNPOTAllowedEv
6147:__ZNK9Texture2D26CanReuploadDataToGfxDeviceEv
6148:__ZN9Texture2D34UpdateFileTextureUploadInstructionEP24TextureUploadInstructionj
6149:__ZN9Texture2D33VerifyFileTextureUploadCompletionEv
6150:__ZNK9Texture2D13GetIsReadableEv
6151:__ZNK9Texture2D21GetMasterTextureLimitEv
6152:__ZNK9Texture2D24IgnoreMasterTextureLimitEv
6153:__ZN9Texture2D27SetIgnoreMasterTextureLimitEb
6154:__ZN9Texture2D19UnloadFromGfxDeviceEb
6155:__ZN9Texture2D17UploadToGfxDeviceEv
6156:__ZNK9Texture2D16ExtractImageImplEP14ImageReference13ImageBlitModebi
6157:__ZN9Texture2D13UploadTextureEi
6158:__ZNK9Texture2D13GetDataFormatEv
6159:__ZN9Texture2D11InitTextureEii13TextureFormat20TextureCreationFlagsiil16TextureDimension
6160:__ZN9Texture2D22UploadImageToGfxDeviceERK14ImageReference18TextureUploadFlags
6161:__ZN9Texture2D15UpdateImageDataEv
6162:__ZN9Texture2D30UpdateImageDataDontTouchMipmapEv
6163:__ZN9Texture2D13RebuildMipMapEv
6164:__Z12CreateMipMapPhiiii14GraphicsFormat
6165:__Z20IsValidTextureFormat13TextureFormat
6166:__Z29GetTextureSizeAllowedMultiple13TextureFormat
6167:__ZN9Texture2D19InitTextureInternalEii13TextureFormatm20TextureCreationFlagsii16TextureDimension
6168:__ZN23TextureStreamingManager13RemoveTextureER9Texture2D
6169:__ZN9Texture2D16DeleteGfxTextureEv
6170:__Z22GetTextureFormatString13TextureFormat
6171:__ZN23TextureStreamingManager10AddTextureER9Texture2D
6172:__ZN23TextureStreamingManager14AddTextureDataER9Texture2DR18TextureListsAccess
6173:__ZN20TextureStreamingData10AddTextureEiii13TextureFormatiiii
6174:__ZN17SharedTextureDataC2E10MemLabelIdii13TextureFormatmiibb
6175:__ZN23TextureStreamingManager24RemoveTextureImmediatelyER9Texture2DR18TextureListsAccess
6176:__ZN20TextureStreamingData13RemoveTextureEi
6177:__ZN9Texture2D25CreateScaledAndPaddedDataEPP17SharedTextureDataS2_
6178:__ZN9Texture2D26AllocateScaledOrPaddedDataE13TextureFormat
6179:__ZN9TextureOpI17SharedTextureDataE15ExtractMipLevelEPS0_S2_iibb
6180:__ZN9TextureOpI17SharedTextureDataE22ExtractCompressedImageEPS0_Phiii
6181:__ZN17SharedTextureData17GetImageReferenceEii
6182:__ZN17SharedTextureData17GetImageReferenceEP14ImageReferenceii
6183:__ZN23TextureStreamingManager20GetLoadedMipmapLevelERK9Texture2D
6184:__ZN9TextureOpI11TextureDataE7SetSizeEPS0_13TextureFormatbii
6185:__ZN9Texture2D8TransferI14SafeBinaryReadEEvRT_
6186:__ZN9Texture2D26CreatePixelDataWhenReadingEjb
6187:__ZN9Texture2D8TransferI24GenerateTypeTreeTransferEEvRT_
6188:__ZN9Texture2D8TransferI18StreamedBinaryReadEEvRT_
6189:__ZN9Texture2D8TransferI19StreamedBinaryWriteEEvRT_
6190:__ZN23TextureStreamingManager21GetDesiredMipmapLevelERK9Texture2D
6191:__ZN23TextureStreamingManager23GetRequestedMipmapLevelERK9Texture2D
6192:__ZN17AsyncTextureFence12HasCompletedEv
6193:__Z18AsyncDeleteTexture9TextureIDS_17AsyncTextureFence
6194:__Z29AsyncTextureDeleteGfxCallbackR9GfxDeviceRK23AsyncUploadCallbackInfo
6195:__ZN9Texture2D15ThreadedCleanupEv
6196:__ZN13ScreenManager17RequestResolutionEii14FullscreenModei
6197:__ZN13ScreenManager22SetRequestedResolutionEv
6198:__ZN13ScreenManager14GetResolutionsER13dynamic_arrayI10ResolutionLm0EE
6199:__ZNK13ScreenManager19GetSystemResolutionEv
6200:__ZNK13ScreenManager20GetCurrentResolutionEv
6201:__ZNK13ScreenManager13GetBrightnessEv
6202:__ZN13ScreenManager13SetBrightnessEf
6203:__ZNK13ScreenManager16GetScreenTimeoutEv
6204:__ZNK13ScreenManager21GetCursorInsideWindowEv
6205:__ZN13ScreenManager21SetCursorInsideWindowEb
6206:__ZNK13ScreenManager11GetSafeAreaEv
6207:__ZN13ScreenManager26ReapplyRequestedResolutionEv
6208:__ZNK13ScreenManager12IsFullscreenEv
6209:__ZN13ScreenManager18RequestOrientationE17ScreenOrientation
6210:__ZN13ScreenManager20SetScreenOrientationE17ScreenOrientation
6211:__ZN13ScreenManager23SetIsOrientationEnabledE18EnabledOrientationb
6212:__ZN13ScreenManager20RequestHDRModeChangeEb
6213:__ZN12CubemapArrayD2Ev
6214:__ZN12CubemapArrayD0Ev
6215:__ZN12CubemapArray13AwakeFromLoadE17AwakeFromLoadMode
6216:__ZN12CubemapArray21AwakeFromLoadThreadedEv
6217:__ZNK12CubemapArray22GetTypeVirtualInternalEv
6218:__ZNK12CubemapArray20GetRuntimeMemorySizeEv
6219:__ZN12CubemapArray23VirtualRedirectTransferER19StreamedBinaryWrite
6220:__ZN12CubemapArray23VirtualRedirectTransferER18StreamedBinaryRead
6221:__ZN12CubemapArray23VirtualRedirectTransferER24GenerateTypeTreeTransfer
6222:__ZN12CubemapArray23VirtualRedirectTransferER14SafeBinaryRead
6223:__ZNK12CubemapArray26CanReuploadDataToGfxDeviceEv
6224:__ZNK12CubemapArray20GetTextureLayerCountEv
6225:__ZNK12CubemapArray12GetDimensionEv
6226:__ZN12CubemapArray34UpdateFileTextureUploadInstructionEP24TextureUploadInstructionj
6227:__ZN12CubemapArray19UnloadFromGfxDeviceEb
6228:__ZN12CubemapArray17UploadToGfxDeviceEv
6229:__ZNK12CubemapArray16ExtractImageImplEP14ImageReference13ImageBlitModebi
6230:__ZN12CubemapArray13UploadTextureEv
6231:__ZN12CubemapArray8TransferI14SafeBinaryReadEEvRT_
6232:__ZN12CubemapArray26CreatePixelDataWhenReadingEjjb
6233:__ZN12CubemapArray8TransferI24GenerateTypeTreeTransferEEvRT_
6234:__ZN12CubemapArray8TransferI18StreamedBinaryReadEEvRT_
6235:__ZN12CubemapArray8TransferI19StreamedBinaryWriteEEvRT_
6236:__ZN8RendererD2Ev
6237:__ZN8RendererD0Ev
6238:__ZN8Renderer17MainThreadCleanupEv
6239:__ZN8Renderer13AwakeFromLoadE17AwakeFromLoadMode
6240:__ZN8Renderer16CheckConsistencyEv
6241:__ZN8Renderer10SmartResetEv
6242:__ZNK8Renderer22GetTypeVirtualInternalEv
6243:__ZN8Renderer23VirtualRedirectTransferER19StreamedBinaryWrite
6244:__ZN8Renderer23VirtualRedirectTransferER18StreamedBinaryRead
6245:__ZN8Renderer23VirtualRedirectTransferER17RemapPPtrTransfer
6246:__ZN8Renderer23VirtualRedirectTransferER24GenerateTypeTreeTransfer
6247:__ZN8Renderer23VirtualRedirectTransferER14SafeBinaryRead
6248:__ZN8Renderer26SupportedMessagesDidChangeEj
6249:__ZN8Renderer10DeactivateE19DeactivateOperation
6250:__ZNK8Renderer10GetEnabledEv
6251:__ZN8Renderer10SetEnabledEb
6252:__ZN8Renderer21RendererBecameVisibleEv
6253:__ZN8Renderer23RendererBecameInvisibleEv
6254:__ZN8Renderer20RendererAddedToSceneEv
6255:__ZN8Renderer24RendererRemovedFromSceneEv
6256:__ZN8Renderer15AddAsRenderNodeER15RenderNodeQueueRK20DeprecatedSourceData
6257:__ZNK8Renderer8GetLayerEv
6258:__ZNK8Renderer16GetMaterialCountEv
6259:__ZNK8Renderer11GetMaterialEi
6260:__ZN8Renderer11SetMaterialE4PPtrI8MaterialEi
6261:__ZN8Renderer20GetForceRenderingOffEv
6262:__ZN8Renderer20SetupSortingOverrideEb
6263:__ZThn32_N8RendererD1Ev
6264:__ZThn32_N8RendererD0Ev
6265:__ZThn32_N8Renderer15AddAsRenderNodeER15RenderNodeQueueRK20DeprecatedSourceData
6266:__ZThn32_NK8Renderer8GetLayerEv
6267:__ZThn32_NK8Renderer16GetMaterialCountEv
6268:__ZThn32_NK8Renderer11GetMaterialEi
6269:__ZThn32_N8Renderer20GetForceRenderingOffEv
6270:__ZN8Renderer15ThreadedCleanupEv
6271:__Z35UpdateSortingGroupStatusForRendererP8Renderer
6272:__ZNK8Renderer29FlattenPerMaterialCustomPropsER22PerThreadPageAllocatorR10RenderNode
6273:__Z30GetLightProbeProxyVolumeHandleRK28LightProbeProxyVolumeContextRK8Renderer
6274:__ZN28ReflectionProbeAnchorManager18RemoveCachedAnchorERK4PPtrI9TransformE
6275:__ZN28ReflectionProbeAnchorManager15AddCachedAnchorERK4PPtrI9TransformE
6276:__ZN4core8hash_mapIiN28ReflectionProbeAnchorManager16CachedAnchorDataENS_4hashIiEENSt3__28equal_toIiEEEixERKi
6277:__ZN4core8hash_setINS_4pairIKiN28ReflectionProbeAnchorManager16CachedAnchorDataELb0EEENS_9hash_pairINS_4hashIiEES2_S4_EENS_10equal_pairINSt3__28equal_toIiEES2_S4_EEE6resizeEi
6278:__ZN6Object11InvokeEventEi
6279:__ZN13RendererScene30RemoveRendererFromPendingNodesEP8Renderer
6280:__Z34ClearSortingGroupStatusForRendererP8Renderer
6281:__ZN8Renderer8TransferI14SafeBinaryReadEEvRT_
6282:__ZN14SafeBinaryRead21TransferSTLStyleArrayI13dynamic_arrayI4PPtrI8MaterialELm0EEEEvRT_17TransferMetaFlags
6283:__ZN15StaticBatchInfo8TransferI14SafeBinaryReadEEvRT_
6284:__ZN8Renderer8TransferI24GenerateTypeTreeTransferEEvRT_
6285:__ZN8Renderer8TransferI17RemapPPtrTransferEEvRT_
6286:__ZN8Renderer8TransferI18StreamedBinaryReadEEvRT_
6287:__ZN18StreamedBinaryRead21TransferSTLStyleArrayI13dynamic_arrayI4PPtrI8MaterialELm0EEEEvRT_17TransferMetaFlags
6288:__ZN8Renderer8TransferI19StreamedBinaryWriteEEvRT_
6289:__ZN8Renderer40ResizePerMaterialPropertiesArrayIfNeededEv
6290:__ZN21RendererUpdateManager19DirtyDispatchUpdateER8Renderer
6291:__ZN8LODGroup25RemoveFromCachedRenderersEP8Renderer
6292:__ZN6SpriteD2Ev
6293:__ZN6SpriteD0Ev
6294:__ZN6Sprite17MainThreadCleanupEv
6295:__ZN6Sprite13AwakeFromLoadE17AwakeFromLoadMode
6296:__ZNK6Sprite22GetTypeVirtualInternalEv
6297:__ZN6Sprite23VirtualRedirectTransferER19StreamedBinaryWrite
6298:__ZN6Sprite23VirtualRedirectTransferER18StreamedBinaryRead
6299:__ZN6Sprite23VirtualRedirectTransferER17RemapPPtrTransfer
6300:__ZN6Sprite23VirtualRedirectTransferER24GenerateTypeTreeTransfer
6301:__ZN6Sprite23VirtualRedirectTransferER14SafeBinaryRead
6302:__ZN6Sprite8TransferI14SafeBinaryReadEEvRT_
6303:__ZN16SpriteRenderData8TransferI14SafeBinaryReadEEvRT_
6304:__ZN14SafeBinaryRead21TransferSTLStyleArrayI13dynamic_arrayIS1_I8Vector2fLm0EELm0EEEEvRT_17TransferMetaFlags
6305:__ZN14SafeBinaryRead21TransferSTLStyleArrayI13dynamic_arrayI10SpriteBoneLm0EEEEvRT_17TransferMetaFlags
6306:__ZN10SpriteBone8TransferI14SafeBinaryReadEEvRT_
6307:__ZN14SafeBinaryRead21TransferSTLStyleArrayI13dynamic_arrayI8Vector2fLm0EEEEvRT_17TransferMetaFlags
6308:__ZN14SafeBinaryRead21TransferSTLStyleArrayI13dynamic_arrayI7SubMeshLm0EEEEvRT_17TransferMetaFlags
6309:__ZN14SafeBinaryRead21TransferSTLStyleArrayI13dynamic_arrayI12SpriteVertexLm0EEEEvRT_17TransferMetaFlags
6310:__ZN14SafeBinaryRead21TransferSTLStyleArrayI13dynamic_arrayItLm0EEEEvRT_17TransferMetaFlags
6311:__Z23SetSpriteMeshIndexCountP14SharedMeshDatam
6312:__Z24SetSpriteMeshVertexCountP14SharedMeshDatam
6313:__ZN10VertexData8TransferI14SafeBinaryReadEEvRT_
6314:__ZN14SafeBinaryRead21TransferSTLStyleArrayI13dynamic_arrayI10Matrix4x4fLm16EEEEvRT_17TransferMetaFlags
6315:__ZN14SafeBinaryRead21TransferSTLStyleArrayI13dynamic_arrayI12BoneWeights4Lm0EEEEvRT_17TransferMetaFlags
6316:__ZN12BoneWeights48TransferI14SafeBinaryReadEEvRT_
6317:__ZN14SafeBinaryRead21TransferSTLStyleArrayI13dynamic_arrayI17VertexChannelInfoLm0EEEEvRT_17TransferMetaFlags
6318:__Z33BuildLegacyShaderChannelsFromMaskR13dynamic_arrayI17VertexChannelInfoLm0EEj
6319:__ZN10VertexData27ConvertLegacyShaderChannelsERK13dynamic_arrayI17VertexChannelInfoLm0EE
6320:__ZN10VertexDataC2E10MemLabelIdRKS_17ShaderChannelMaskRK19VertexStreamsLayoutRK22VertexAttributeFormats
6321:__ZN15SerializeTraitsI17VertexChannelInfoE8TransferI14SafeBinaryReadEEvRS0_RT_
6322:__ZN14SafeBinaryRead8TransferItEEvRT_PKc17TransferMetaFlags
6323:__ZN12SpriteVertex8TransferI14SafeBinaryReadEEvRT_
6324:__ZN7SubMesh8TransferI14SafeBinaryReadEEvRT_
6325:__ZN6Sprite8TransferI24GenerateTypeTreeTransferEEvRT_
6326:__ZN16SpriteRenderData8TransferI24GenerateTypeTreeTransferEEvRT_
6327:__ZN10SpriteBone8TransferI24GenerateTypeTreeTransferEEvRT_
6328:__ZN7SubMesh8TransferI24GenerateTypeTreeTransferEEvRT_
6329:__ZN10VertexData8TransferI24GenerateTypeTreeTransferEEvRT_
6330:__ZN17VertexChannelInfo8TransferI24GenerateTypeTreeTransferEEvRT_
6331:__ZN16SpriteRenderData8TransferI17RemapPPtrTransferEEvRT_
6332:__ZN10VertexData8TransferI17RemapPPtrTransferEEvRT_
6333:__ZN6Sprite8TransferI18StreamedBinaryReadEEvRT_
6334:__ZN16SpriteRenderData8TransferI18StreamedBinaryReadEEvRT_
6335:__ZN18StreamedBinaryRead21TransferSTLStyleArrayI13dynamic_arrayIS1_I8Vector2fLm0EELm0EEEEvRT_17TransferMetaFlags
6336:__ZN18StreamedBinaryRead21TransferSTLStyleArrayI13dynamic_arrayI10SpriteBoneLm0EEEEvRT_17TransferMetaFlags
6337:__ZN10SpriteBone8TransferI18StreamedBinaryReadEEvRT_
6338:__ZN18StreamedBinaryRead21TransferSTLStyleArrayI13dynamic_arrayI7SubMeshLm0EEEEvRT_17TransferMetaFlags
6339:__ZN10VertexData8TransferI18StreamedBinaryReadEEvRT_
6340:__ZN18StreamedBinaryRead21TransferSTLStyleArrayI13dynamic_arrayI17VertexChannelInfoLm0EEEEvRT_17TransferMetaFlags
6341:__ZN17VertexChannelInfo8TransferI18StreamedBinaryReadEEvRT_
6342:__ZN7SubMesh8TransferI18StreamedBinaryReadEEvRT_
6343:__ZN6Sprite8TransferI19StreamedBinaryWriteEEvRT_
6344:__ZN16SpriteRenderData8TransferI19StreamedBinaryWriteEEvRT_
6345:__ZN19StreamedBinaryWrite8TransferI13dynamic_arrayI8Vector2fLm0EEEEvRT_PKc17TransferMetaFlags
6346:__ZN10SpriteBone8TransferI19StreamedBinaryWriteEEvRT_
6347:__ZN7SubMesh8TransferI19StreamedBinaryWriteEEvRT_
6348:__ZN10VertexData8TransferI19StreamedBinaryWriteEEvRT_
6349:__ZN17VertexChannelInfo8TransferI19StreamedBinaryWriteEEvRT_
6350:__ZN6Sprite19LoadAtlasRenderDataEb
6351:__ZN18SpriteAtlasManager8GetAtlasERK4PPtrI6SpriteE
6352:__ZNK11SpriteAtlas20GetRuntimeRenderDataEPK6Sprite
6353:__ZN13dynamic_arrayI22SecondarySpriteTextureLm0EEaSERKS1_
6354:__ZNK4core8hash_setINS_4pairIKNSt3__24pairI9UnityGUIDxEE15SpriteAtlasDataLb0EEENS_9hash_pairI23SpriteRenderDataKeyHashS6_S7_EENS_10equal_pairINS2_8equal_toIS5_EES6_S7_EEE6lookupIS5_SF_EEPNSG_4nodeERKT_RKT0_
6355:__ZN13sorted_vectorI4PPtrI11SpriteAtlasENSt3__24lessIS2_EE13stl_allocatorIS2_L18MemLabelIdentifier1ELi16EEE21sort_clear_duplicatesEv
6356:__ZNK4core8hash_setINS_4pairIKNS_12basic_stringIcNS_20StringStorageDefaultIcEEEE10vector_setI4PPtrI11SpriteAtlasENSt3__24lessISA_EE13stl_allocatorISA_L18MemLabelIdentifier88ELi16EEELb1EEENS_9hash_pairINS_4hashIS5_EES6_SH_EENS_10equal_pairINSB_8equal_toIS5_EES6_SH_EEE6lookupIS5_SQ_EEPNSR_4nodeERKT_RKT0_
6357:__ZNSt3__26vectorI4PPtrI11SpriteAtlasE13stl_allocatorIS3_L18MemLabelIdentifier1ELi16EEE21__push_back_slow_pathIRKS3_EEvOT_
6358:__ZN18SpriteAtlasManager19AddRequestingSpriteE4PPtrI6SpriteE
6359:__ZNSt3__26vectorI4PPtrI6SpriteE13stl_allocatorIS3_L18MemLabelIdentifier88ELi16EEE21__push_back_slow_pathIRKS3_EEvOT_
6360:__ZN4core8hash_mapINS_12basic_stringIcNS_20StringStorageDefaultIcEEEE10vector_setI4PPtrI6SpriteENSt3__24lessIS8_EE13stl_allocatorIS8_L18MemLabelIdentifier88ELi16EEENS_4hashIS4_EENS9_8equal_toIS4_EEEixERKS4_
6361:__ZNSt3__26vectorI4PPtrI6SpriteE13stl_allocatorIS3_L18MemLabelIdentifier88ELi16EEE6assignIPS3_EENS_9enable_ifIXaasr21__is_forward_iteratorIT_EE5valuesr16is_constructibleIS3_NS_15iterator_traitsISB_E9referenceEEE5valueEvE4typeESB_SB_
6362:__ZN13sorted_vectorIN4core12basic_stringIcNS0_20StringStorageDefaultIcEEEENSt3__24lessIS4_EE13stl_allocatorIS4_L18MemLabelIdentifier88ELi16EEE4findIS4_EENS5_11__wrap_iterIPS4_EERKT_
6363:__ZNSt3__26vectorIN4core12basic_stringIcNS1_20StringStorageDefaultIcEEEE13stl_allocatorIS5_L18MemLabelIdentifier88ELi16EEE21__push_back_slow_pathIRKS5_EEvOT_
6364:__ZN4core8hash_setINS_4pairIKNS_12basic_stringIcNS_20StringStorageDefaultIcEEEE10vector_setI4PPtrI6SpriteENSt3__24lessISA_EE13stl_allocatorISA_L18MemLabelIdentifier88ELi16EEELb1EEENS_9hash_pairINS_4hashIS5_EES6_SH_EENS_10equal_pairINSB_8equal_toIS5_EES6_SH_EEE6resizeEi
6365:__ZNSt3__213__stable_sortIRNS_4lessI4PPtrI11SpriteAtlasEEENS_11__wrap_iterIPS4_EEEEvT0_SA_T_NS_15iterator_traitsISA_E15difference_typeEPNSD_10value_typeEl
6366:__ZNSt3__218__stable_sort_moveIRNS_4lessI4PPtrI11SpriteAtlasEEENS_11__wrap_iterIPS4_EEEEvT0_SA_T_NS_15iterator_traitsISA_E15difference_typeEPNSD_10value_typeE
6367:__ZNSt3__215__inplace_mergeIRNS_4lessI4PPtrI11SpriteAtlasEEENS_11__wrap_iterIPS4_EEEEvT0_SA_SA_T_NS_15iterator_traitsISA_E15difference_typeESE_PNSD_10value_typeEl
6368:__ZN16SpriteRenderData17MainThreadCleanupEv
6369:__ZN15GeometryBuffers4FreeEv
6370:__ZN13dynamic_arrayI10SpriteBoneLm0EED2Ev
6371:__ZN16SpriteRenderDataD2Ev
6372:__ZN7CubemapD2Ev
6373:__ZN7CubemapD0Ev
6374:__ZNK7Cubemap22GetTypeVirtualInternalEv
6375:__ZN7Cubemap23VirtualRedirectTransferER19StreamedBinaryWrite
6376:__ZN7Cubemap23VirtualRedirectTransferER18StreamedBinaryRead
6377:__ZN7Cubemap23VirtualRedirectTransferER17RemapPPtrTransfer
6378:__ZN7Cubemap23VirtualRedirectTransferER24GenerateTypeTreeTransfer
6379:__ZN7Cubemap23VirtualRedirectTransferER14SafeBinaryRead
6380:__ZNK7Cubemap12GetDimensionEv
6381:__ZN7Cubemap34UpdateFileTextureUploadInstructionEP24TextureUploadInstructionj
6382:__ZN7Cubemap13UploadTextureEi
6383:__ZN7Cubemap13RebuildMipMapEv
6384:__ZN9Texture2D24AcquireSharedTextureDataEv
6385:__ZN14SafeBinaryRead22TransferWithTypeStringI7CubemapEEvRT_PKcS5_17TransferMetaFlags
6386:__ZN14SafeBinaryRead21TransferSTLStyleArrayINSt3__26vectorI4PPtrI9Texture2DENS1_9allocatorIS5_EEEEEEvRT_17TransferMetaFlags
6387:__Z14resize_trimmedINSt3__26vectorI4PPtrI9Texture2DENS0_9allocatorIS4_EEEEEvRT_j
6388:__ZNSt3__26vectorI4PPtrI9Texture2DENS_9allocatorIS3_EEE6assignINS_11__wrap_iterIPS3_EEEENS_9enable_ifIXaasr21__is_forward_iteratorIT_EE5valuesr16is_constructibleIS3_NS_15iterator_traitsISC_E9referenceEEE5valueEvE4typeESC_SC_
6389:__ZNSt3__26vectorI4PPtrI9Texture2DENS_9allocatorIS3_EEE8__appendEm
6390:__ZN7Cubemap8TransferI18StreamedBinaryReadEEvRT_
6391:__ZN7Cubemap8TransferI19StreamedBinaryWriteEEvRT_
6392:__ZN14SafeBinaryRead21TransferSTLStyleArrayI13dynamic_arrayI8Vector4fLm0EEEEvRT_17TransferMetaFlags
6393:__ZN18StreamedBinaryRead8TransferI13dynamic_arrayItLm0EEEEvRT_PKc17TransferMetaFlags
6394:__ZN8Renderer13BoundsChangedEv
6395:__ZN13RenderTexture9GetActiveEi
6396:__Z25LoadFullScreenOrthoMatrixffR9GfxDevice
6397:__ZN22DeviceMVPMatricesStateD2Ev
6398:__ZN29ExtractProjectionPlanesHelperILb0EE5ApplyERK10Matrix4x4fP5Plane
6399:__ZN8Material10SetTextureEN9ShaderLab16FastPropertyNameEP7Texture
6400:__ZN8Material8SetFloatEN9ShaderLab16FastPropertyNameEf
6401:__ZN12ImageFilters4BlitER17ShaderPassContextP7TextureP13RenderTextureiP8MaterialiNS_9BlitFlagsE11CubemapFaceRK8Vector2fSC_
6402:__ZN8Material9GetShaderEv
6403:__ZN8Material11HasPropertyEN9ShaderLab16FastPropertyNameE
6404:__ZN12ImageFilters4BlitER17ShaderPassContextP7TextureP13RenderTextureiPK18SharedMaterialDataPKcP6ShaderiNS_9BlitFlagsE11CubemapFaceRK8Vector2fSH_
6405:__ZN16BlitStereoHelperC2ER9GfxDeviceR17ShaderPassContextP7TextureP13RenderTexture
6406:__ZL22SetCurrentRenderTargetP13RenderTextureiNS_14SetActiveFlagsE11CubemapFace
6407:__ZN12ImageFilters18ShouldYFlipTextureEP7TextureP13RenderTexture
6408:__ZN13ApplyKeywordsC2EPK6ShaderRK18SharedMaterialDataR17ShaderPassContext
6409:__ZN19ShaderPropertySheet18ReserveValueBufferEm
6410:__ZN14GraphicsHelper15CreateQuadChunkER9GfxDevicebRK5RectTIfE
6411:__ZN16BlitStereoHelper16PrepareEyeRenderEiRK19ShaderPropertySheetRS0_bRK8Vector2fS6_14VRTextureUsage
6412:__ZN9ShaderLab4Pass9ApplyPassEjPK19ShaderPropertySheetR17ShaderPassContextP6ShaderiiPbPKNS_10GrabPassesEPNS_11SubProgramsEPK22DeviceRenderStateBlock
6413:__ZN14GraphicsHelper15RenderQuadChunkER9GfxDevice16VertexInputMasks
6414:__ZNK6Shader28FixupSubshaderAndPassIndicesERiS0_
6415:__ZNK6Shader20GetLocalKeywordRemapEii
6416:__ZNK9ShaderLab11ShaderState16ApplyShaderStateEjPK19ShaderPropertySheetRK17ShaderPassContextP6ShaderPNS_4PassEPbPNS_11SubProgramsEPK22DeviceRenderStateBlock
6417:__ZN9ShaderLab10GrabPasses13ApplyGrabPassERKNS_16FastPropertyNameER17ShaderPassContextRKS0_
6418:__ZN9ShaderLab10GrabPasses23ApplyGrabPassMainThreadERKNS_16FastPropertyNameER17ShaderPassContext
6419:__ZN9ShaderLabL15GetSizedTextureEPK6CameraRKNS_16FastPropertyNameEbbRb
6420:__ZN13RenderTexture17SetGlobalPropertyERKN9ShaderLab16FastPropertyNameER17ShaderPassContext
6421:__ZN9ShaderLabL27GetDesiredRenderTextureDescEPK6Camera
6422:__ZN13RenderTexture10GrabPixelsEiiii
6423:__ZN7Texture13SetFilterModeE17TextureFilterMode
6424:__ZN13RenderTexture10GrabPixelsE12ObjectHandleI17RenderSurface_TagP17RenderSurfaceBaseES4_iiii
6425:__ZN19ShaderPropertySheet38CopyTextureWithAuxiliaryPropertiesFromERKN9ShaderLab16FastPropertyNameERKS_
6426:__ZNK9ShaderLab11ShaderState20FindSubProgramsToUseEPK6ShaderPKNS_4PassERNS_11SubProgramsERK17ShaderPassContextb
6427:__ZN6Shader16GetLoadingShaderEv
6428:__ZNK9ShaderLab7Program13GetSubProgramEi
6429:__ZN14GraphicsHelper28PrepareShaderParameterBufferER13dynamic_arrayIhLm4EERA7_P10GpuProgramRA7_PK20GpuProgramParametersRA7_PKhRKN9ShaderLab11SubProgramsEPK19ShaderPropertySheetSM_
6430:__ZNK22DeviceRenderStateBlock8OverrideERN9ShaderLab11ShaderState12DeviceStatesERi
6431:__ZNK20GpuProgramParameters13PrepareValuesEPK19ShaderPropertySheetS2_R13dynamic_arrayIhLm4EEmP12GfxPatchInfoPb
6432:__ZL22PrepareValueParametersI21FullParameterPreparerEvRK13dynamic_arrayIN20GpuProgramParameters14ValueParameterELm0EEjjjRS1_IhLm4EERKT_
6433:__ZNK21FullParameterPreparer16OnPrepareTextureERPKN9ShaderLab6TexEnvERKN20GpuProgramParameters16TextureParameterEm
6434:__ZN9ShaderLab11shaderprops17GetConstantBufferEPK19ShaderPropertySheetS3_NS_16FastPropertyNameE
6435:__ZN9ShaderLab11shaderprops16GetComputeBufferEPK19ShaderPropertySheetS3_NS_16FastPropertyNameE
6436:__ZN9ShaderLab11shaderprops9GetTexEnvEPK19ShaderPropertySheetS3_NS_16FastPropertyNameE16TextureDimensionb
6437:__ZNK21FullParameterPreparer14OnPrepareFloatER12PartialArrayIfERKN20GpuProgramParameters14ValueParameterEm
6438:__ZNK21FullParameterPreparer15OnPrepareVectorER12PartialArrayI8Vector4fERKN20GpuProgramParameters14ValueParameterEm
6439:__ZNK21FullParameterPreparer15OnPrepareMatrixER12PartialArrayI10Matrix4x4fERKN20GpuProgramParameters14ValueParameterEm
6440:__ZN9ShaderLab11shaderprops9GetMatrixEPK19ShaderPropertySheetS3_NS_16FastPropertyNameE
6441:__ZN9ShaderLab11shaderprops9GetVectorEPK19ShaderPropertySheetS3_NS_16FastPropertyNameE
6442:__ZNK9ShaderLab11ShaderState34ShouldRemoveAnyUnsupportedProgramsEv
6443:__ZN9ShaderLab11ShaderState25RemoveUnsupportedProgramsEPK6Shader
6444:__ZN6Shader27MarkShaderStateNotSupportedEPKS_
6445:__ZN9ShaderLab7Program14RemoveVariantsERK13dynamic_arrayI16ShaderKeywordSetLm0EE
6446:__ZNK9ShaderLab7Program19HasMatchingVariantsERK13dynamic_arrayI16ShaderKeywordSetLm0EE
6447:__ZN19ShaderPropertySheet24SetTextureScaleAndOffsetERK23FastTexturePropertyName8Vector2fS3_
6448:__ZN13RenderTexture9SetActiveEiP12ObjectHandleI17RenderSurface_TagP17RenderSurfaceBaseES4_PPS_i11CubemapFaceiNS_14SetActiveFlagsE
6449:__ZNK19ShaderPropertySheet11HasPropertyERKN9ShaderLab16FastPropertyNameE
6450:__ZN22DeviceMVPMatricesStateC2ER9GfxDevice
6451:__ZN12ImageFilters4BlitER17ShaderPassContextP7TextureP13RenderTextureiiRK8Vector2fS8_NS_9BlitFlagsE
6452:__ZNK6Camera18GetRenderRectangleEv
6453:__ZN12ImageFilters19GetBlitCopyMaterialENS_12BlitCopyModeE
6454:__ZN12ScriptMapper10FindShaderEN4core16basic_string_refIcEE
6455:__ZN8Material14CreateMaterialER6ShaderN6Object9HideFlagsEb
6456:__ZN17ShaderKeywordData13GetKeywordSetERKN4core12basic_stringIcNS0_20StringStorageDefaultIcEEEER16ShaderKeywordSet
6457:__Z14CreateCallbackN4core16basic_string_refIcEEPv
6458:__ZN4core5SplitENS_16basic_string_refIcEEcPFvS1_PvES2_
6459:__ZN8MaterialD2Ev
6460:__ZN8MaterialD0Ev
6461:__ZN8Material17MainThreadCleanupEv
6462:__ZN8Material13AwakeFromLoadE17AwakeFromLoadMode
6463:__ZN8Material5ResetEv
6464:__ZNK8Material22GetTypeVirtualInternalEv
6465:__ZNK8Material20GetRuntimeMemorySizeEv
6466:__ZN8Material23VirtualRedirectTransferER19StreamedBinaryWrite
6467:__ZN8Material23VirtualRedirectTransferER18StreamedBinaryRead
6468:__ZN8Material23VirtualRedirectTransferER17RemapPPtrTransfer
6469:__ZN8Material23VirtualRedirectTransferER24GenerateTypeTreeTransfer
6470:__ZN8Material23VirtualRedirectTransferER14SafeBinaryRead
6471:__ZN8Material8TransferI14SafeBinaryReadEEvRT_
6472:__ZN14SafeBinaryRead19TransferSTLStyleMapINSt3__23mapIN4core12basic_stringIcNS3_20StringStorageDefaultIcEEEES7_NS1_4lessIS7_EE13stl_allocatorINS1_4pairIKS7_S7_EEL18MemLabelIdentifier1ELi16EEEEEEvRT_17TransferMetaFlags
6473:__ZN14SafeBinaryRead21TransferSTLStyleArrayINSt3__26vectorIN4core12basic_stringIcNS3_20StringStorageDefaultIcEEEE13stl_allocatorIS7_L18MemLabelIdentifier1ELi16EEEEEEvRT_17TransferMetaFlags
6474:__ZN18UnityPropertySheet8TransferI14SafeBinaryReadEEvRT_
6475:__ZN14SafeBinaryRead21TransferSTLStyleArrayI13dynamic_arrayI26BuildTextureStackReferenceLm0EEEEvRT_17TransferMetaFlags
6476:__ZNSt3__26__treeINS_12__value_typeIN4core12basic_stringIcNS2_20StringStorageDefaultIcEEEES6_EENS_19__map_value_compareIS6_S7_NS_4lessIS6_EELb1EEE13stl_allocatorIS7_L18MemLabelIdentifier1ELi16EEE7destroyEPNS_11__tree_nodeIS7_PvEE
6477:__ZN13dynamic_arrayI26BuildTextureStackReferenceLm0EE18resize_initializedEm12ResizePolicy
6478:__ZN26BuildTextureStackReference8TransferI14SafeBinaryReadEEvRT_
6479:__ZN14SafeBinaryRead19TransferSTLStyleMapINSt3__23mapI39DeprecatedFastPropertyNameSerializationN18UnityPropertySheet11UnityTexEnvENS1_4lessIS3_EENS1_9allocatorINS1_4pairIKS3_S5_EEEEEEEEvRT_17TransferMetaFlags
6480:__ZN14SafeBinaryRead19TransferSTLStyleMapINSt3__23mapI39DeprecatedFastPropertyNameSerializationfNS1_4lessIS3_EENS1_9allocatorINS1_4pairIKS3_fEEEEEEEEvRT_17TransferMetaFlags
6481:__ZN14SafeBinaryRead19TransferSTLStyleMapINSt3__23mapI39DeprecatedFastPropertyNameSerialization10ColorRGBAfNS1_4lessIS3_EENS1_9allocatorINS1_4pairIKS3_S4_EEEEEEEEvRT_17TransferMetaFlags
6482:__ZN14SafeBinaryRead19TransferSTLStyleMapINSt3__23mapIN9ShaderLab16FastPropertyNameEN18UnityPropertySheet11UnityTexEnvENS1_4lessIS4_EENS1_9allocatorINS1_4pairIKS4_S6_EEEEEEEEvRT_17TransferMetaFlags
6483:__ZN14SafeBinaryRead19TransferSTLStyleMapINSt3__23mapIN9ShaderLab16FastPropertyNameEfNS1_4lessIS4_EENS1_9allocatorINS1_4pairIKS4_fEEEEEEEEvRT_17TransferMetaFlags
6484:__ZN14SafeBinaryRead19TransferSTLStyleMapINSt3__23mapIN9ShaderLab16FastPropertyNameE10ColorRGBAfNS1_4lessIS4_EENS1_9allocatorINS1_4pairIKS4_S5_EEEEEEEEvRT_17TransferMetaFlags
6485:__ZNSt3__26__treeINS_12__value_typeIN9ShaderLab16FastPropertyNameE10ColorRGBAfEENS_19__map_value_compareIS3_S5_NS_4lessIS3_EELb1EEENS_9allocatorIS5_EEE7destroyEPNS_11__tree_nodeIS5_PvEE
6486:__ZN15SerializeTraitsINSt3__24pairIN9ShaderLab16FastPropertyNameE10ColorRGBAfEEE8TransferI14SafeBinaryReadEEvRS5_RT_
6487:__ZNSt3__26__treeINS_12__value_typeIN9ShaderLab16FastPropertyNameEfEENS_19__map_value_compareIS3_S4_NS_4lessIS3_EELb1EEENS_9allocatorIS4_EEE7destroyEPNS_11__tree_nodeIS4_PvEE
6488:__ZN15SerializeTraitsINSt3__24pairIN9ShaderLab16FastPropertyNameEfEEE8TransferI14SafeBinaryReadEEvRS4_RT_
6489:__ZNSt3__26__treeINS_12__value_typeIN9ShaderLab16FastPropertyNameEN18UnityPropertySheet11UnityTexEnvEEENS_19__map_value_compareIS3_S6_NS_4lessIS3_EELb1EEENS_9allocatorIS6_EEE7destroyEPNS_11__tree_nodeIS6_PvEE
6490:__ZN15SerializeTraitsINSt3__24pairIN9ShaderLab16FastPropertyNameEN18UnityPropertySheet11UnityTexEnvEEEE8TransferI14SafeBinaryReadEEvRS6_RT_
6491:__ZN18UnityPropertySheet11UnityTexEnv8TransferI14SafeBinaryReadEEvRT_
6492:__ZNSt3__26__treeINS_12__value_typeI39DeprecatedFastPropertyNameSerialization10ColorRGBAfEENS_19__map_value_compareIS2_S4_NS_4lessIS2_EELb1EEENS_9allocatorIS4_EEE7destroyEPNS_11__tree_nodeIS4_PvEE
6493:__ZN15SerializeTraitsINSt3__24pairI39DeprecatedFastPropertyNameSerialization10ColorRGBAfEEE8TransferI14SafeBinaryReadEEvRS4_RT_
6494:__ZN39DeprecatedFastPropertyNameSerialization8TransferI14SafeBinaryReadEEvRT_
6495:__ZNSt3__26__treeINS_12__value_typeI39DeprecatedFastPropertyNameSerializationfEENS_19__map_value_compareIS2_S3_NS_4lessIS2_EELb1EEENS_9allocatorIS3_EEE7destroyEPNS_11__tree_nodeIS3_PvEE
6496:__ZNSt3__26__treeINS_12__value_typeI39DeprecatedFastPropertyNameSerializationN18UnityPropertySheet11UnityTexEnvEEENS_19__map_value_compareIS2_S5_NS_4lessIS2_EELb1EEENS_9allocatorIS5_EEE7destroyEPNS_11__tree_nodeIS5_PvEE
6497:__ZN15SerializeTraitsINSt3__24pairI39DeprecatedFastPropertyNameSerializationN18UnityPropertySheet11UnityTexEnvEEEE8TransferI14SafeBinaryReadEEvRS5_RT_
6498:__Z14resize_trimmedINSt3__26vectorIN4core12basic_stringIcNS2_20StringStorageDefaultIcEEEE13stl_allocatorIS6_L18MemLabelIdentifier1ELi16EEEEEvRT_j
6499:__ZNSt3__26vectorIN4core12basic_stringIcNS1_20StringStorageDefaultIcEEEE13stl_allocatorIS5_L18MemLabelIdentifier1ELi16EEE7reserveEm
6500:__ZNSt3__26vectorIN4core12basic_stringIcNS1_20StringStorageDefaultIcEEEE13stl_allocatorIS5_L18MemLabelIdentifier1ELi16EEE6assignINS_11__wrap_iterIPS5_EEEENS_9enable_ifIXaasr21__is_forward_iteratorIT_EE5valuesr16is_constructibleIS5_NS_15iterator_traitsISF_E9referenceEEE5valueEvE4typeESF_SF_
6501:__ZNSt3__26vectorIN4core12basic_stringIcNS1_20StringStorageDefaultIcEEEE13stl_allocatorIS5_L18MemLabelIdentifier1ELi16EEE8__appendEm
6502:__ZN15SerializeTraitsINSt3__24pairIN4core12basic_stringIcNS2_20StringStorageDefaultIcEEEES6_EEE8TransferI14SafeBinaryReadEEvRS7_RT_
6503:__ZNSt3__26__treeINS_12__value_typeIN4core12basic_stringIcNS2_20StringStorageDefaultIcEEEES6_EENS_19__map_value_compareIS6_S7_NS_4lessIS6_EELb1EEE13stl_allocatorIS7_L18MemLabelIdentifier1ELi16EEE25__emplace_unique_key_argsIS6_JRNS_4pairIS6_S6_EEEEENSH_INS_15__tree_iteratorIS7_PNS_11__tree_nodeIS7_PvEElEEbEERKT_DpOT0_
6504:__ZN8Material8TransferI24GenerateTypeTreeTransferEEvRT_
6505:__ZN15SerializeTraitsINSt3__24pairIN4core12basic_stringIcNS2_20StringStorageDefaultIcEEEES6_EEE8TransferI24GenerateTypeTreeTransferEEvRS7_RT_
6506:__ZN18UnityPropertySheet8TransferI24GenerateTypeTreeTransferEEvRT_
6507:__ZN26BuildTextureStackReference8TransferI24GenerateTypeTreeTransferEEvRT_
6508:__ZN15SerializeTraitsINSt3__24pairIN9ShaderLab16FastPropertyNameEN18UnityPropertySheet11UnityTexEnvEEEE8TransferI24GenerateTypeTreeTransferEEvRS6_RT_
6509:__ZN15SerializeTraitsINSt3__24pairIN9ShaderLab16FastPropertyNameEfEEE8TransferI24GenerateTypeTreeTransferEEvRS4_RT_
6510:__ZN15SerializeTraitsINSt3__24pairIN9ShaderLab16FastPropertyNameE10ColorRGBAfEEE8TransferI24GenerateTypeTreeTransferEEvRS5_RT_
6511:__ZN15SerializeTraitsIN18UnityPropertySheet11UnityTexEnvEE8TransferI24GenerateTypeTreeTransferEEvRS1_RT_
6512:__ZN18UnityPropertySheet8TransferI17RemapPPtrTransferEEvRT_
6513:__ZN8Material8TransferI18StreamedBinaryReadEEvRT_
6514:__ZN18StreamedBinaryRead19TransferSTLStyleMapINSt3__23mapIN4core12basic_stringIcNS3_20StringStorageDefaultIcEEEES7_NS1_4lessIS7_EE13stl_allocatorINS1_4pairIKS7_S7_EEL18MemLabelIdentifier1ELi16EEEEEEvRT_17TransferMetaFlags
6515:__ZN18UnityPropertySheet8TransferI18StreamedBinaryReadEEvRT_
6516:__ZN18StreamedBinaryRead19TransferSTLStyleMapINSt3__23mapIN9ShaderLab16FastPropertyNameEN18UnityPropertySheet11UnityTexEnvENS1_4lessIS4_EENS1_9allocatorINS1_4pairIKS4_S6_EEEEEEEEvRT_17TransferMetaFlags
6517:__ZN18StreamedBinaryRead19TransferSTLStyleMapINSt3__23mapIN9ShaderLab16FastPropertyNameEfNS1_4lessIS4_EENS1_9allocatorINS1_4pairIKS4_fEEEEEEEEvRT_17TransferMetaFlags
6518:__ZN18StreamedBinaryRead19TransferSTLStyleMapINSt3__23mapIN9ShaderLab16FastPropertyNameE10ColorRGBAfNS1_4lessIS4_EENS1_9allocatorINS1_4pairIKS4_S5_EEEEEEEEvRT_17TransferMetaFlags
6519:__ZN18UnityPropertySheet11UnityTexEnv8TransferI18StreamedBinaryReadEEvRT_
6520:__ZNSt3__26__treeINS_12__value_typeIN4core12basic_stringIcNS2_20StringStorageDefaultIcEEEES6_EENS_19__map_value_compareIS6_S7_NS_4lessIS6_EELb1EEE13stl_allocatorIS7_L18MemLabelIdentifier1ELi16EEE25__emplace_unique_key_argsIS6_JNS_4pairIS6_S6_EEEEENSH_INS_15__tree_iteratorIS7_PNS_11__tree_nodeIS7_PvEElEEbEERKT_DpOT0_
6521:__ZN8Material8TransferI19StreamedBinaryWriteEEvRT_
6522:__ZNSt3__26__treeINS_12__value_typeIN4core12basic_stringIcNS2_20StringStorageDefaultIcEEEES6_EENS_19__map_value_compareIS6_S7_NS_4lessIS6_EELb1EEE13stl_allocatorIS7_L18MemLabelIdentifier1ELi16EEE25__emplace_unique_key_argsIS6_JRKNS_21piecewise_construct_tENS_5tupleIJOS6_EEENSK_IJEEEEEENS_4pairINS_15__tree_iteratorIS7_PNS_11__tree_nodeIS7_PvEElEEbEERKT_DpOT0_
6523:__ZN15SerializeTraitsINSt3__24pairIN4core12basic_stringIcNS2_20StringStorageDefaultIcEEEES6_EEE8TransferI19StreamedBinaryWriteEEvRS7_RT_
6524:__ZN19StreamedBinaryWrite21TransferSTLStyleArrayINSt3__26vectorIN4core12basic_stringIcNS3_20StringStorageDefaultIcEEEE13stl_allocatorIS7_L18MemLabelIdentifier1ELi16EEEEEEvRT_17TransferMetaFlags
6525:__ZN18UnityPropertySheet8TransferI19StreamedBinaryWriteEEvRT_
6526:__Z36UnityPropertySheet_MakeSortedTexEnvsRKNSt3__23mapIN9ShaderLab16FastPropertyNameEN18UnityPropertySheet11UnityTexEnvENS_4lessIS2_EENS_9allocatorINS_4pairIKS2_S4_EEEEEER10vector_mapIS2_S4_S6_NS7_INS8_IS2_S4_EEEEE
6527:__ZN15SerializeTraitsIN9ShaderLab16FastPropertyNameEE8TransferI19StreamedBinaryWriteEEvRS1_RT_
6528:__ZN18UnityPropertySheet11UnityTexEnv8TransferI19StreamedBinaryWriteEEvRT_
6529:__Z35UnityPropertySheet_MakeSortedFloatsRKNSt3__23mapIN9ShaderLab16FastPropertyNameEfNS_4lessIS2_EENS_9allocatorINS_4pairIKS2_fEEEEEER10vector_mapIS2_fS4_NS5_INS6_IS2_fEEEEE
6530:__Z35UnityPropertySheet_MakeSortedColorsRKNSt3__23mapIN9ShaderLab16FastPropertyNameE10ColorRGBAfNS_4lessIS2_EENS_9allocatorINS_4pairIKS2_S3_EEEEEER10vector_mapIS2_S3_S5_NS6_INS7_IS2_S3_EEEEE
6531:__ZL15SortColorByNameRKNSt3__24pairIN9ShaderLab16FastPropertyNameE10ColorRGBAfEES6_
6532:__ZNSt3__26__sortIRPFbRKNS_4pairIN9ShaderLab16FastPropertyNameE10ColorRGBAfEES7_EPS5_EEvT0_SC_T_
6533:__ZNSt3__26vectorINS_4pairIN9ShaderLab16FastPropertyNameE10ColorRGBAfEENS_9allocatorIS5_EEE21__push_back_slow_pathIS5_EEvOT_
6534:__ZNSt3__27__sort3IRPFbRKNS_4pairIN9ShaderLab16FastPropertyNameE10ColorRGBAfEES7_EPS5_EEjT0_SC_SC_T_
6535:__ZNSt3__27__sort4IRPFbRKNS_4pairIN9ShaderLab16FastPropertyNameE10ColorRGBAfEES7_EPS5_EEjT0_SC_SC_SC_T_
6536:__ZNSt3__27__sort5IRPFbRKNS_4pairIN9ShaderLab16FastPropertyNameE10ColorRGBAfEES7_EPS5_EEjT0_SC_SC_SC_SC_T_
6537:__ZNSt3__227__insertion_sort_incompleteIRPFbRKNS_4pairIN9ShaderLab16FastPropertyNameE10ColorRGBAfEES7_EPS5_EEbT0_SC_T_
6538:__ZNSt3__26__sortIRPFbRKNS_4pairIN9ShaderLab16FastPropertyNameEfEES6_EPS4_EEvT0_SB_T_
6539:__ZNSt3__27__sort3IRPFbRKNS_4pairIN9ShaderLab16FastPropertyNameEfEES6_EPS4_EEjT0_SB_SB_T_
6540:__ZNSt3__27__sort5IRPFbRKNS_4pairIN9ShaderLab16FastPropertyNameEfEES6_EPS4_EEjT0_SB_SB_SB_SB_T_
6541:__ZNSt3__227__insertion_sort_incompleteIRPFbRKNS_4pairIN9ShaderLab16FastPropertyNameEfEES6_EPS4_EEbT0_SB_T_
6542:__ZNSt3__26__sortIRPFbRKNS_4pairIN9ShaderLab16FastPropertyNameEN18UnityPropertySheet11UnityTexEnvEEES8_EPS6_EEvT0_SD_T_
6543:__ZNSt3__26vectorINS_4pairIN9ShaderLab16FastPropertyNameEN18UnityPropertySheet11UnityTexEnvEEENS_9allocatorIS6_EEE21__push_back_slow_pathIS6_EEvOT_
6544:__ZNSt3__27__sort3IRPFbRKNS_4pairIN9ShaderLab16FastPropertyNameEN18UnityPropertySheet11UnityTexEnvEEES8_EPS6_EEjT0_SD_SD_T_
6545:__ZNSt3__27__sort4IRPFbRKNS_4pairIN9ShaderLab16FastPropertyNameEN18UnityPropertySheet11UnityTexEnvEEES8_EPS6_EEjT0_SD_SD_SD_T_
6546:__ZNSt3__27__sort5IRPFbRKNS_4pairIN9ShaderLab16FastPropertyNameEN18UnityPropertySheet11UnityTexEnvEEES8_EPS6_EEjT0_SD_SD_SD_SD_T_
6547:__ZNSt3__227__insertion_sort_incompleteIRPFbRKNS_4pairIN9ShaderLab16FastPropertyNameEN18UnityPropertySheet11UnityTexEnvEEES8_EPS6_EEbT0_SD_T_
6548:__ZN8Material15ResetWithShaderEP6Shader
6549:__ZN19ShaderPropertySheet5ClearEb
6550:__ZN8Material17UpdateToNewShaderEb
6551:__ZN8Material14SetOverrideTagE11ShaderTagIDS0_
6552:__ZN13dynamic_arrayI26BuildTextureStackReferenceLm0EED2Ev
6553:__ZN15NameToObjectMapI6ShaderNSt3__23mapI4PPtrIS0_EN4core12basic_stringIcNS5_20StringStorageDefaultIcEEEENS1_4lessIS4_EENS1_9allocatorINS1_4pairIKS4_S9_EEEEEENS1_8multimapIS9_S4_NSA_IS9_EENSC_INSD_IKS9_S4_EEEEEEE4FindENS5_16basic_string_refIcEE
6554:__ZNSt3__26__treeINS_12__value_typeIN4core12basic_stringIcNS2_20StringStorageDefaultIcEEEE4PPtrI6ShaderEEENS_19__map_value_compareIS6_SA_NS_4lessIS6_EELb1EEENS_9allocatorISA_EEE19__equal_range_multiIS6_EENS_4pairINS_15__tree_iteratorISA_PNS_11__tree_nodeISA_PvEElEESP_EERKT_
6555:__Z29PluginsIssueRenderingExtQuery26UnityRenderingExtQueryType32GfxDeviceRenderingExtQueryMethod
6556:__ZNK9Transform14TransformPointERK8Vector3f
6557:__ZNK9Transform18GetWorldScaleLossyEv
6558:__ZN15LODGroupManager24UpdateLODGroupParametersEjR8LODGroupRK8Vector3ff
6559:__Z25CalculateGlobalScaleLossy23TransformAccessReadOnly
6560:__Z14TransformPoint23TransformAccessReadOnlyRKN4math7_float3E
6561:__ZN12MeshRenderer17MainThreadCleanupEv
6562:__ZN12MeshRenderer13AwakeFromLoadE17AwakeFromLoadMode
6563:__ZNK12MeshRenderer22GetTypeVirtualInternalEv
6564:__ZN12MeshRenderer23VirtualRedirectTransferER19StreamedBinaryWrite
6565:__ZN12MeshRenderer23VirtualRedirectTransferER18StreamedBinaryRead
6566:__ZN12MeshRenderer23VirtualRedirectTransferER17RemapPPtrTransfer
6567:__ZN12MeshRenderer23VirtualRedirectTransferER24GenerateTypeTreeTransfer
6568:__ZN12MeshRenderer23VirtualRedirectTransferER14SafeBinaryRead
6569:__ZN12MeshRenderer10DeactivateE19DeactivateOperation
6570:__ZN12MeshRenderer20RendererAddedToSceneEv
6571:__ZN12MeshRenderer24RendererRemovedFromSceneEv
6572:__ZN12MeshRenderer15AddAsRenderNodeER15RenderNodeQueueRK20DeprecatedSourceData
6573:__ZNK12MeshRenderer19GetStaticBatchIndexEv
6574:__ZThn32_N12MeshRenderer15AddAsRenderNodeER15RenderNodeQueueRK20DeprecatedSourceData
6575:__ZThn32_NK12MeshRenderer19GetStaticBatchIndexEv
6576:__ZN12MeshRenderer8TransferI14SafeBinaryReadEEvRT_
6577:__ZN15SerializeTraitsI12MeshRendererE8TransferI24GenerateTypeTreeTransferEEvRS0_RT_
6578:__ZN17RemapPPtrTransfer8TransferI12MeshRendererEEvRT_PKc17TransferMetaFlags
6579:__ZN12MeshRenderer16UpdateCachedMeshEv
6580:__ZN12MeshRenderer18CalculateLocalAABBER4AABBRKS_RK4Mesh
6581:__ZNK6Sprite9GetBoundsEbbb
6582:__ZN16SpriteRenderDataC2Ev
6583:__ZN14SharedMeshDataC2E10MemLabelId
6584:__ZN8Renderer39GetCustomPropertiesRememberToUpdateHashEv
6585:__ZN19ShaderPropertySheet11ComputeHashEv
6586:__ZN16SpriteRenderData28PrepareRenderingDataIfNeededEv
6587:__ZN6Sprite28PrepareRenderingDataIfNeededEb
6588:__Z36AddDefaultStreamsToMeshBuffersSpriteR9GfxDeviceR11MeshBuffersj17ShaderChannelMaskS3_b
6589:__ZNK16MeshVertexFormat26GetVertexDeclarationSpriteER9GfxDevice16VertexInputMasksjb
6590:__Z30AddDefaultStreamsToChannelInfoRK18VertexChannelsInfo17ShaderChannelMaskS2_jbRS_
6591:__ZN16SpriteRenderData20CalculateUVsIfNeededEbRK8Vector2fRK5RectTIfE
6592:__Z14RecalculateUVs14StrideIteratorI8Vector2fES1_S_I8Vector3fER9Texture2DRKS0_RK5RectTIfERK8Vector4fSB_S7_21SpritePackingRotationf
6593:__Z23PrepareSpriteRenderDataPK14SharedMeshDataP15GeometryBuffersRP16MeshVertexFormat
6594:__ZN15GeometryBuffers16FreeVertexBufferEi
6595:__ZN15GeometryBuffers26CreateOrUpdateVertexBufferER9GfxDeviceiR13GfxBufferDescPKv20GfxUpdateBufferFlagsPKc
6596:__ZL20CreateOrUpdateBufferR9GfxDeviceRP9GfxBufferR13GfxBufferDescPKv20GfxUpdateBufferFlagsPKc
6597:__ZNK9Transform13GetLocalScaleEv
6598:__ZN17TransformInternal36OnScaleChangedCalculateTransformTypeE15TransformAccess
6599:__ZN22SerializableManagedRef10FindMethodEP6ObjectPKc
6600:__ZN9Scripting26GetMethodWithSearchOptionsE17ScriptingClassPtrPKcN24ScriptingMethodFiltering18MethodSearchFilterE
6601:__ZN10MeshFilterD0Ev
6602:__ZN10MeshFilter13AwakeFromLoadE17AwakeFromLoadMode
6603:__ZNK10MeshFilter22GetTypeVirtualInternalEv
6604:__ZN10MeshFilter23VirtualRedirectTransferER19StreamedBinaryWrite
6605:__ZN10MeshFilter23VirtualRedirectTransferER18StreamedBinaryRead
6606:__ZN10MeshFilter23VirtualRedirectTransferER17RemapPPtrTransfer
6607:__ZN10MeshFilter23VirtualRedirectTransferER24GenerateTypeTreeTransfer
6608:__ZN10MeshFilter23VirtualRedirectTransferER14SafeBinaryRead
6609:__ZN10MeshFilter20WillDestroyComponentEv
6610:__ZN12MeshRenderer13SetSharedMeshE4PPtrI4MeshE
6611:__ZN14SafeBinaryRead8TransferI10MeshFilterEEvRT_PKc17TransferMetaFlags
6612:__ZNK10BootConfig4Data6HasKeyEPKc
6613:__ZNK10BootConfig4Data8GetValueEPKcm
6614:__ZNK10BootConfig15ParameterParserIbE5ParseEPKcb
6615:__Z18TransformPoints3x3RK10Matrix4x4fPK8Vector3fmPS2_mi
6616:__ZN14SharedMeshData14GetBoneWeightsE14BonesPerVertex
6617:__ZNK9Transform13GetWorldScaleEv
6618:__ZN8Renderer12GetTransformEv
6619:__ZN14SharedMeshData14GetBoneWeightsE14BonesPerVertexRj
6620:__ZNK24VariableBoneCountWeights21ConvertToBoneIndices1EPij
6621:__ZNK24VariableBoneCountWeights21ConvertToBoneWeights2EP12BoneWeights2j
6622:__ZNK24VariableBoneCountWeights21ConvertToBoneWeights4EP12BoneWeights4j
6623:__ZN4Mesh15GetMaxBoneIndexEv
6624:__ZNK24VariableBoneCountWeights21CalculateMaxBoneIndexEj
6625:__Z21CalculateGlobalMatrix23TransformAccessReadOnly
6626:__ZN5crc3213process_blockEPKvS1_
6627:__Z8StrNICmpPKcS0_m
6628:__ZN14SafeBinaryRead21TransferSTLStyleArrayI13dynamic_arrayIfLm0EEEEvRT_17TransferMetaFlags
6629:__ZN14AsyncOperationD2Ev
6630:__ZN14AsyncOperation15InvokeCoroutineEv
6631:__ZN30RuntimeInitializeOnLoadManagerD2Ev
6632:__ZN30RuntimeInitializeOnLoadManagerD0Ev
6633:__ZNK30RuntimeInitializeOnLoadManager22GetTypeVirtualInternalEv
6634:__ZN30RuntimeInitializeOnLoadManager23VirtualRedirectTransferER24GenerateTypeTreeTransfer
6635:__ZN30RuntimeInitializeOnLoadManager23VirtualRedirectTransferER14SafeBinaryRead
6636:__ZN27GenericSlowGarbageCollector18GenerateInstanceIDEi17TransferMetaFlags
6637:__ZN27GenericSlowGarbageCollector16ProcessReferenceEi
6638:__ZN15ResourceManagerD2Ev
6639:__ZN15ResourceManagerD0Ev
6640:__ZNK15ResourceManager22GetTypeVirtualInternalEv
6641:__ZN15ResourceManager23VirtualRedirectTransferER19StreamedBinaryWrite
6642:__ZN15ResourceManager23VirtualRedirectTransferER18StreamedBinaryRead
6643:__ZN15ResourceManager23VirtualRedirectTransferER17RemapPPtrTransfer
6644:__ZN15ResourceManager23VirtualRedirectTransferER24GenerateTypeTreeTransfer
6645:__ZN15ResourceManager23VirtualRedirectTransferER14SafeBinaryRead
6646:__ZN15ResourceManager8TransferI14SafeBinaryReadEEvRT_
6647:__ZN14SafeBinaryRead19TransferSTLStyleMapINSt3__28multimapIN4core12basic_stringIcNS3_20StringStorageDefaultIcEEEE4PPtrI6ObjectENS1_4lessIS7_EE13stl_allocatorINS1_4pairIKS7_SA_EEL18MemLabelIdentifier57ELi16EEEEEEvRT_17TransferMetaFlags
6648:__ZN14SafeBinaryRead21TransferSTLStyleArrayI13dynamic_arrayIN15ResourceManager10DependencyELm0EEEEvRT_17TransferMetaFlags
6649:__ZNSt3__26__sortIRN15ResourceManager10Dependency6SorterEPS2_EEvT0_S6_T_
6650:__ZNSt3__27__sort3IRN15ResourceManager10Dependency6SorterEPS2_EEjT0_S6_S6_T_
6651:__ZNSt3__27__sort4IRN15ResourceManager10Dependency6SorterEPS2_EEjT0_S6_S6_S6_T_
6652:__ZNSt3__27__sort5IRN15ResourceManager10Dependency6SorterEPS2_EEjT0_S6_S6_S6_S6_T_
6653:__ZNSt3__218__insertion_sort_3IRN15ResourceManager10Dependency6SorterEPS2_EEvT0_S6_T_
6654:__ZNSt3__227__insertion_sort_incompleteIRN15ResourceManager10Dependency6SorterEPS2_EEbT0_S6_T_
6655:__ZN15ResourceManager10Dependency8TransferI14SafeBinaryReadEEvRT_
6656:__ZNSt3__26__treeINS_12__value_typeIN4core12basic_stringIcNS2_20StringStorageDefaultIcEEEE4PPtrI6ObjectEEENS_19__map_value_compareIS6_SA_NS_4lessIS6_EELb1EEE13stl_allocatorISA_L18MemLabelIdentifier57ELi16EEE7destroyEPNS_11__tree_nodeISA_PvEE
